 gamex86

 Timestamp is 57045ffa (Tue Apr 05 21:01:46 2016)

 Preferred load address is 20000000

 Start         Length     Name                   Class
 0001:00000000 00090d87H .text                   CODE
 0001:00090d90 00000109H .text$x                 CODE
 0002:00000000 00000158H .idata$5                DATA
 0002:00000158 00000004H .CRT$XCA                DATA
 0002:0000015c 00000004H .CRT$XCZ                DATA
 0002:00000160 00000004H .CRT$XIA                DATA
 0002:00000164 00000014H .CRT$XIC                DATA
 0002:00000178 00000004H .CRT$XIZ                DATA
 0002:0000017c 00000004H .CRT$XPA                DATA
 0002:00000180 00000008H .CRT$XPX                DATA
 0002:00000188 00000004H .CRT$XPXA               DATA
 0002:0000018c 00000004H .CRT$XPZ                DATA
 0002:00000190 00000004H .CRT$XTA                DATA
 0002:00000194 00000004H .CRT$XTZ                DATA
 0002:000001a0 00015cf8H .rdata                  DATA
 0002:00015e98 00000044H .rdata$debug            DATA
 0002:00015edc 000001c4H .rdata$r                DATA
 0002:000160a0 0000002cH .rdata$sxdata           DATA
 0002:000160cc 00000004H .rtc$IAA                DATA
 0002:000160d0 00000004H .rtc$IZZ                DATA
 0002:000160d4 00000004H .rtc$TAA                DATA
 0002:000160d8 00000004H .rtc$TZZ                DATA
 0002:000160e0 00000d08H .xdata$x                DATA
 0002:00016de8 00000014H .idata$2                DATA
 0002:00016dfc 00000014H .idata$3                DATA
 0002:00016e10 00000158H .idata$4                DATA
 0002:00016f68 0000063eH .idata$6                DATA
 0002:000175b0 00000049H .edata                  DATA
 0003:00000000 00012460H .data                   DATA
 0003:00012460 0000d9f4H .bss                    DATA

  Address         Publics by Value              Rva+Base       Lib:Object

 0000:00000000       __except_list              00000000     <absolute>
 0000:0000000b       ___safe_se_handler_count   0000000b     <absolute>
 0000:00000000       ___ImageBase               20000000     <linker-defined>
 0001:00000000       _AI_SetSightClient         20001000 f   g_ai.obj
 0001:000000c0       _ai_move                   200010c0 f   g_ai.obj
 0001:000000f0       _ai_stand                  200010f0 f   g_ai.obj
 0001:00000340       _ai_walk                   20001340 f   g_ai.obj
 0001:00000430       _ai_charge                 20001430 f   g_ai.obj
 0001:000004e0       _ai_turn                   200014e0 f   g_ai.obj
 0001:00000540       _range                     20001540 f   g_ai.obj
 0001:000005f0       _visible                   200015f0 f   g_ai.obj
 0001:000006c0       _infront                   200016c0 f   g_ai.obj
 0001:00000770       _HuntTarget                20001770 f   g_ai.obj
 0001:00000850       _FoundTarget               20001850 f   g_ai.obj
 0001:00000a10       _FindTarget                20001a10 f   g_ai.obj
 0001:00000ed0       _FacingIdeal               20001ed0 f   g_ai.obj
 0001:00000f30       _M_CheckAttack             20001f30 f   g_ai.obj
 0001:00001220       _ai_run_melee              20002220 f   g_ai.obj
 0001:00001280       _ai_run_missile            20002280 f   g_ai.obj
 0001:000012e0       _ai_run_slide              200022e0 f   g_ai.obj
 0001:000013a0       _ai_checkattack            200023a0 f   g_ai.obj
 0001:000017c0       _ai_run                    200027c0 f   g_ai.obj
 0001:00002210       _UpdateChaseCam            20003210 f   g_chase.obj
 0001:00002700       _ChaseNext                 20003700 f   g_chase.obj
 0001:000027d0       _ChasePrev                 200037d0 f   g_chase.obj
 0001:00002890       _GetChaseTarget            20003890 f   g_chase.obj
 0001:00002940       _ClientTeam                20003940 f   g_cmds.obj
 0001:000029e0       _OnSameTeam                200039e0 f   g_cmds.obj
 0001:00002a80       _SelectNextItem            20003a80 f   g_cmds.obj
 0001:00002b50       _SelectPrevItem            20003b50 f   g_cmds.obj
 0001:00002c20       _ValidateSelectedItem      20003c20 f   g_cmds.obj
 0001:00002c60       _Cmd_Give_f                20003c60 f   g_cmds.obj
 0001:00003140       _Cmd_God_f                 20004140 f   g_cmds.obj
 0001:000031e0       _Cmd_Notarget_f            200041e0 f   g_cmds.obj
 0001:00003280       _Cmd_Noclip_f              20004280 f   g_cmds.obj
 0001:00003320       _Cmd_Use_f                 20004320 f   g_cmds.obj
 0001:000033e0       _Cmd_Drop_f                200043e0 f   g_cmds.obj
 0001:000034a0       _Cmd_Inven_f               200044a0 f   g_cmds.obj
 0001:00003550       _Cmd_InvUse_f              20004550 f   g_cmds.obj
 0001:000035e0       _Cmd_WeapPrev_f            200045e0 f   g_cmds.obj
 0001:000036c0       _Cmd_WeapNext_f            200046c0 f   g_cmds.obj
 0001:000037a0       _Cmd_WeapLast_f            200047a0 f   g_cmds.obj
 0001:00003840       _Cmd_InvDrop_f             20004840 f   g_cmds.obj
 0001:000038d0       _Cmd_Kill_f                200048d0 f   g_cmds.obj
 0001:00003950       _Cmd_PutAway_f             20004950 f   g_cmds.obj
 0001:00003990       _PlayerSort                20004990 f   g_cmds.obj
 0001:00003a10       _Cmd_Players_f             20004a10 f   g_cmds.obj
 0001:00003ba0       _Cmd_Wave_f                20004ba0 f   g_cmds.obj
 0001:00003d20       _Cmd_Say_f                 20004d20 f   g_cmds.obj
 0001:000040a0       _Cmd_PlayerList_f          200050a0 f   g_cmds.obj
 0001:00004280       _ClientCommand             20005280 f   g_cmds.obj
 0001:000046e0       _CanDamage                 200056e0 f   g_combat.obj
 0001:00004a40       _Killed                    20005a40 f   g_combat.obj
 0001:00004bb0       _SpawnDamage               20005bb0 f   g_combat.obj
 0001:00004c20       _M_ReactToDamage           20005c20 f   g_combat.obj
 0001:00004f30       _CheckTeamDamage           20005f30 f   g_combat.obj
 0001:00004f50       _T_Damage                  20005f50 f   g_combat.obj
 0001:000058f0       _T_RadiusDamage            200068f0 f   g_combat.obj
 0001:00005ab0       _Move_Done                 20006ab0 f   g_func.obj
 0001:00005b00       _Move_Final                20006b00 f   g_func.obj
 0001:00005b90       _Move_Begin                20006b90 f   g_func.obj
 0001:00005c70       _Move_Calc                 20006c70 f   g_func.obj
 0001:00005dd0       _AngleMove_Done            20006dd0 f   g_func.obj
 0001:00005e20       _AngleMove_Final           20006e20 f   g_func.obj
 0001:00005f30       _AngleMove_Begin           20006f30 f   g_func.obj
 0001:00006080       _AngleMove_Calc            20007080 f   g_func.obj
 0001:00006120       _plat_CalcAcceleratedMove  20007120 f   g_func.obj
 0001:00006250       _plat_Accelerate           20007250 f   g_func.obj
 0001:00006450       _Think_AccelMove           20007450 f   g_func.obj
 0001:00006530       _plat_hit_top              20007530 f   g_func.obj
 0001:000065d0       _plat_hit_bottom           200075d0 f   g_func.obj
 0001:00006650       _plat_go_down              20007650 f   g_func.obj
 0001:000066f0       _plat_go_up                200076f0 f   g_func.obj
 0001:00006790       _plat_blocked              20007790 f   g_func.obj
 0001:00006870       _Use_Plat                  20007870 f   g_func.obj
 0001:000068a0       _Touch_Plat_Center         200078a0 f   g_func.obj
 0001:00006910       _plat_spawn_inside_trigger 20007910 f   g_func.obj
 0001:00006ae0       _SP_func_plat              20007ae0 f   g_func.obj
 0001:00006ea0       _rotating_blocked          20007ea0 f   g_func.obj
 0001:00006ef0       _rotating_touch            20007ef0 f   g_func.obj
 0001:00006f80       _rotating_use              20007f80 f   g_func.obj
 0001:00007040       _SP_func_rotating          20008040 f   g_func.obj
 0001:00007230       _button_done               20008230 f   g_func.obj
 0001:00007280       _button_return             20008280 f   g_func.obj
 0001:000072e0       _button_wait               200082e0 f   g_func.obj
 0001:00007380       _button_fire               20008380 f   g_func.obj
 0001:00007420       _button_use                20008420 f   g_func.obj
 0001:00007450       _button_touch              20008450 f   g_func.obj
 0001:000074a0       _button_killed             200084a0 f   g_func.obj
 0001:000074f0       _SP_func_button            200084f0 f   g_func.obj
 0001:000078a0       _door_use_areaportals      200088a0 f   g_func.obj
 0001:00007920       _door_hit_top              20008920 f   g_func.obj
 0001:000079e0       _door_hit_bottom           200089e0 f   g_func.obj
 0001:00007a70       _door_go_down              20008a70 f   g_func.obj
 0001:00007b80       _door_go_up                20008b80 f   g_func.obj
 0001:00007cd0       _door_use                  20008cd0 f   g_func.obj
 0001:00007db0       _Touch_DoorTrigger         20008db0 f   g_func.obj
 0001:00007e60       _Think_CalcMoveSpeed       20008e60 f   g_func.obj
 0001:00007fe0       _Think_SpawnDoorTrigger    20008fe0 f   g_func.obj
 0001:000081a0       _door_blocked              200091a0 f   g_func.obj
 0001:000082e0       _door_killed               200092e0 f   g_func.obj
 0001:00008350       _door_touch                20009350 f   g_func.obj
 0001:000083f0       _SP_func_door              200093f0 f   g_func.obj
 0001:00008970       _SP_func_door_rotating     20009970 f   g_func.obj
 0001:00008f30       _SP_func_water             20009f30 f   g_func.obj
 0001:00009350       _train_blocked             2000a350 f   g_func.obj
 0001:00009430       _train_wait                2000a430 f   g_func.obj
 0001:000095c0       _train_next                2000a5c0 f   g_func.obj
 0001:00009850       _train_resume              2000a850 f   g_func.obj
 0001:00009940       _func_train_find           2000a940 f   g_func.obj
 0001:00009a70       _train_use                 2000aa70 f   g_func.obj
 0001:00009b20       _SP_func_train             2000ab20 f   g_func.obj
 0001:00009ca0       _trigger_elevator_use      2000aca0 f   g_func.obj
 0001:00009d50       _trigger_elevator_init     2000ad50 f   g_func.obj
 0001:00009e20       _SP_trigger_elevator       2000ae20 f   g_func.obj
 0001:00009e60       _func_timer_think          2000ae60 f   g_func.obj
 0001:00009ed0       _func_timer_use            2000aed0 f   g_func.obj
 0001:00009f50       _SP_func_timer             2000af50 f   g_func.obj
 0001:0000a070       _func_conveyor_use         2000b070 f   g_func.obj
 0001:0000a100       _SP_func_conveyor          2000b100 f   g_func.obj
 0001:0000a1b0       _door_secret_use           2000b1b0 f   g_func.obj
 0001:0000a210       _door_secret_move1         2000b210 f   g_func.obj
 0001:0000a250       _door_secret_move2         2000b250 f   g_func.obj
 0001:0000a280       _door_secret_move3         2000b280 f   g_func.obj
 0001:0000a2d0       _door_secret_move4         2000b2d0 f   g_func.obj
 0001:0000a300       _door_secret_move5         2000b300 f   g_func.obj
 0001:0000a340       _door_secret_move6         2000b340 f   g_func.obj
 0001:0000a370       _door_secret_done          2000b370 f   g_func.obj
 0001:0000a3d0       _door_secret_blocked       2000b3d0 f   g_func.obj
 0001:0000a4a0       _door_secret_die           2000b4a0 f   g_func.obj
 0001:0000a4e0       _SP_func_door_secret       2000b4e0 f   g_func.obj
 0001:0000a860       _use_killbox               2000b860 f   g_func.obj
 0001:0000a880       _SP_func_killbox           2000b880 f   g_func.obj
 0001:0000a8d0       _GetItemByIndex            2000b8d0 f   g_items.obj
 0001:0000a900       _FindItemByClassname       2000b900 f   g_items.obj
 0001:0000a970       _FindItem                  2000b970 f   g_items.obj
 0001:0000a9e0       _DoRespawn                 2000b9e0 f   g_items.obj
 0001:0000aab0       _SetRespawn                2000bab0 f   g_items.obj
 0001:0000ab30       _Pickup_Powerup            2000bb30 f   g_items.obj
 0001:0000ad00       _Drop_General              2000bd00 f   g_items.obj
 0001:0000ad70       _Pickup_Adrenaline         2000bd70 f   g_items.obj
 0001:0000ae20       _Pickup_AncientHead        2000be20 f   g_items.obj
 0001:0000ae90       _Pickup_Bandolier          2000be90 f   g_items.obj
 0001:0000b080       _Pickup_Pack               2000c080 f   g_items.obj
 0001:0000b4d0       _Use_Quad                  2000c4d0 f   g_items.obj
 0001:0000b5d0       _Use_Breather              2000c5d0 f   g_items.obj
 0001:0000b680       _Use_Envirosuit            2000c680 f   g_items.obj
 0001:0000b730       _Use_Invulnerability       2000c730 f   g_items.obj
 0001:0000b810       _Use_Silencer              2000c810 f   g_items.obj
 0001:0000b890       _Pickup_Key                2000c890 f   g_items.obj
 0001:0000ba20       _Add_Ammo                  2000ca20 f   g_items.obj
 0001:0000bb60       _Pickup_Ammo               2000cb60 f   g_items.obj
 0001:0000bcc0       _Drop_Ammo                 2000ccc0 f   g_items.obj
 0001:0000bde0       _MegaHealth_think          2000cde0 f   g_items.obj
 0001:0000be90       _Pickup_Health             2000ce90 f   g_items.obj
 0001:0000bfd0       _ArmorIndex                2000cfd0 f   g_items.obj
 0001:0000c050       _Pickup_Armor              2000d050 f   g_items.obj
 0001:0000c290       _PowerArmorType            2000d290 f   g_items.obj
 0001:0000c300       _Use_PowerArmor            2000d300 f   g_items.obj
 0001:0000c400       _Pickup_PowerArmor         2000d400 f   g_items.obj
 0001:0000c4f0       _Drop_PowerArmor           2000d4f0 f   g_items.obj
 0001:0000c560       _Touch_Item                2000d560 f   g_items.obj
 0001:0000c880       _Drop_Item                 2000d880 f   g_items.obj
 0001:0000cba0       _Use_Item                  2000dba0 f   g_items.obj
 0001:0000cc30       _droptofloor               2000dc30 f   g_items.obj
 0001:0000cf80       _PrecacheItem              2000df80 f   g_items.obj
 0001:0000d1a0       _SpawnItem                 2000e1a0 f   g_items.obj
 0001:0000d420       _SP_item_health            2000e420 f   g_items.obj
 0001:0000d4b0       _SP_item_health_small      2000e4b0 f   g_items.obj
 0001:0000d550       _SP_item_health_large      2000e550 f   g_items.obj
 0001:0000d5e0       _SP_item_health_mega       2000e5e0 f   g_items.obj
 0001:0000d680       _InitItems                 2000e680 f   g_items.obj
 0001:0000d6a0       _SetItemNames              2000e6a0 f   g_items.obj
 0001:0000d7a0       _ShutdownGame              2000e7a0 f   g_main.obj
 0001:0000d7e0       _GetGameAPI                2000e7e0 f   g_main.obj
 0001:0000d8b0       _Sys_Error                 2000e8b0 f   g_main.obj
 0001:0000d920       _Com_Printf                2000e920 f   g_main.obj
 0001:0000d980       _ClientEndServerFrames     2000e980 f   g_main.obj
 0001:0000da00       _CreateTargetChangeLevel   2000ea00 f   g_main.obj
 0001:0000da50       _EndDMLevel                2000ea50 f   g_main.obj
 0001:0000dc00       _CheckNeedPass             2000ec00 f   g_main.obj
 0001:0000dcd0       _CheckDMRules              2000ecd0 f   g_main.obj
 0001:0000de00       _ExitLevel                 2000ee00 f   g_main.obj
 0001:0000def0       _G_RunFrame                2000eef0 f   g_main.obj
 0001:0000e050       _Use_Areaportal            2000f050 f   g_misc.obj
 0001:0000e0a0       _SP_func_areaportal        2000f0a0 f   g_misc.obj
 0001:0000e0d0       _VelocityForDamage         2000f0d0 f   g_misc.obj
 0001:0000e1a0       _ClipGibVelocity           2000f1a0 f   g_misc.obj
 0001:0000e2a0       _gib_think                 2000f2a0 f   g_misc.obj
 0001:0000e330       _gib_touch                 2000f330 f   g_misc.obj
 0001:0000e430       _gib_die                   2000f430 f   g_misc.obj
 0001:0000e450       _ThrowGib                  2000f450 f   g_misc.obj
 0001:0000e710       _ThrowHead                 2000f710 f   g_misc.obj
 0001:0000e930       _ThrowClientHead           2000f930 f   g_misc.obj
 0001:0000eb00       _debris_die                2000fb00 f   g_misc.obj
 0001:0000eb20       _ThrowDebris               2000fb20 f   g_misc.obj
 0001:0000ed50       _BecomeExplosion1          2000fd50 f   g_misc.obj
 0001:0000edb0       _BecomeExplosion2          2000fdb0 f   g_misc.obj
 0001:0000ee10       _path_corner_touch         2000fe10 f   g_misc.obj
 0001:0000f040       _SP_path_corner            20010040 f   g_misc.obj
 0001:0000f130       _point_combat_touch        20010130 f   g_misc.obj
 0001:0000f370       _SP_point_combat           20010370 f   g_misc.obj
 0001:0000f440       _TH_viewthing              20010440 f   g_misc.obj
 0001:0000f480       _SP_viewthing              20010480 f   g_misc.obj
 0001:0000f560       _SP_info_null              20010560 f   g_misc.obj
 0001:0000f580       _SP_info_notnull           20010580 f   g_misc.obj
 0001:0000f5f0       _SP_light                  200105f0 f   g_misc.obj
 0001:0000f730       _func_wall_use             20010730 f   g_misc.obj
 0001:0000f7d0       _SP_func_wall              200107d0 f   g_misc.obj
 0001:0000f930       _func_object_touch         20010930 f   g_misc.obj
 0001:0000f9a0       _func_object_release       200109a0 f   g_misc.obj
 0001:0000f9d0       _func_object_use           200109d0 f   g_misc.obj
 0001:0000fa30       _SP_func_object            20010a30 f   g_misc.obj
 0001:0000fbe0       _func_explosive_explode    20010be0 f   g_misc.obj
 0001:0000ff80       _func_explosive_use        20010f80 f   g_misc.obj
 0001:0000ffc0       _func_explosive_spawn      20010fc0 f   g_misc.obj
 0001:00010020       _SP_func_explosive         20011020 f   g_misc.obj
 0001:00010190       _barrel_touch              20011190 f   g_misc.obj
 0001:00010250       _barrel_explode            20011250 f   g_misc.obj
 0001:00010cb0       _barrel_delay              20011cb0 f   g_misc.obj
 0001:00010d00       _SP_misc_explobox          20011d00 f   g_misc.obj
 0001:00010eb0       _misc_blackhole_use        20011eb0 f   g_misc.obj
 0001:00010ed0       _misc_blackhole_think      20011ed0 f   g_misc.obj
 0001:00010f40       _SP_misc_blackhole         20011f40 f   g_misc.obj
 0001:00011020       _misc_eastertank_think     20012020 f   g_misc.obj
 0001:00011090       _SP_misc_eastertank        20012090 f   g_misc.obj
 0001:00011170       _misc_easterchick_think    20012170 f   g_misc.obj
 0001:000111e0       _SP_misc_easterchick       200121e0 f   g_misc.obj
 0001:000112b0       _misc_easterchick2_think   200122b0 f   g_misc.obj
 0001:00011320       _SP_misc_easterchick2      20012320 f   g_misc.obj
 0001:000113f0       _commander_body_think      200123f0 f   g_misc.obj
 0001:00011480       _commander_body_use        20012480 f   g_misc.obj
 0001:000114f0       _commander_body_drop       200124f0 f   g_misc.obj
 0001:00011520       _SP_monster_commander_body 20012520 f   g_misc.obj
 0001:00011650       _misc_banner_think         20012650 f   g_misc.obj
 0001:000116a0       _SP_misc_banner            200126a0 f   g_misc.obj
 0001:00011730       _misc_deadsoldier_die      20012730 f   g_misc.obj
 0001:000117d0       _SP_misc_deadsoldier       200127d0 f   g_misc.obj
 0001:00011980       _misc_viper_use            20012980 f   g_misc.obj
 0001:000119d0       _SP_misc_viper             200129d0 f   g_misc.obj
 0001:00011b50       _SP_misc_bigviper          20012b50 f   g_misc.obj
 0001:00011c00       _misc_viper_bomb_touch     20012c00 f   g_misc.obj
 0001:00011c80       _misc_viper_bomb_prethink  20012c80 f   g_misc.obj
 0001:00011d40       _misc_viper_bomb_use       20012d40 f   g_misc.obj
 0001:00011e50       _SP_misc_viper_bomb        20012e50 f   g_misc.obj
 0001:00011f30       _misc_strogg_ship_use      20012f30 f   g_misc.obj
 0001:00011f80       _SP_misc_strogg_ship       20012f80 f   g_misc.obj
 0001:00012110       _misc_satellite_dish_think 20013110 f   g_misc.obj
 0001:00012150       _misc_satellite_dish_use   20013150 f   g_misc.obj
 0001:00012190       _SP_misc_satellite_dish    20013190 f   g_misc.obj
 0001:00012240       _SP_light_mine1            20013240 f   g_misc.obj
 0001:00012290       _SP_light_mine2            20013290 f   g_misc.obj
 0001:000122e0       _SP_misc_gib_arm           200132e0 f   g_misc.obj
 0001:00012410       _SP_misc_gib_leg           20013410 f   g_misc.obj
 0001:00012540       _SP_misc_gib_head          20013540 f   g_misc.obj
 0001:00012670       _SP_target_character       20013670 f   g_misc.obj
 0001:000126d0       _target_string_use         200136d0 f   g_misc.obj
 0001:000127c0       _SP_target_string          200137c0 f   g_misc.obj
 0001:00012800       _func_clock_think          20013800 f   g_misc.obj
 0001:00012cc0       _func_clock_use            20013cc0 f   g_misc.obj
 0001:00012d20       _SP_func_clock             20013d20 f   g_misc.obj
 0001:00012e60       _teleporter_touch          20013e60 f   g_misc.obj
 0001:00013050       _SP_misc_teleporter        20014050 f   g_misc.obj
 0001:00013210       _SP_misc_teleporter_dest   20014210 f   g_misc.obj
 0001:000132b0       _monster_fire_bullet       200142b0 f   g_monster.obj
 0001:00013330       _monster_fire_shotgun      20014330 f   g_monster.obj
 0001:000133b0       _monster_fire_blaster      200143b0 f   g_monster.obj
 0001:00013430       _monster_fire_grenade      20014430 f   g_monster.obj
 0001:000134c0       _monster_fire_rocket       200144c0 f   g_monster.obj
 0001:00013550       _monster_fire_railgun      20014550 f   g_monster.obj
 0001:000135c0       _monster_fire_bfg          200145c0 f   g_monster.obj
 0001:00013640       _M_FlyCheck                20014640 f   g_monster.obj
 0001:00013770       _AttackFinished            20014770 f   g_monster.obj
 0001:000137a0       _M_CheckGround             200147a0 f   g_monster.obj
 0001:000138e0       _M_CatagorizePosition      200148e0 f   g_monster.obj
 0001:000139e0       _M_WorldEffects            200149e0 f   g_monster.obj
 0001:00013eb0       _M_droptofloor             20014eb0 f   g_monster.obj
 0001:00013fb0       _M_SetEffects              20014fb0 f   g_monster.obj
 0001:00014090       _M_MoveFrame               20015090 f   g_monster.obj
 0001:00014290       _monster_think             20015290 f   g_monster.obj
 0001:00014300       _monster_use               20015300 f   g_monster.obj
 0001:00014370       _monster_triggered_spawn   20015370 f   g_monster.obj
 0001:00014450       _monster_triggered_spawn_use 20015450 f   g_monster.obj
 0001:000144b0       _monster_triggered_start   200154b0 f   g_monster.obj
 0001:00014510       _monster_death_use         20015510 f   g_monster.obj
 0001:000145c0       _monster_start             200155c0 f   g_monster.obj
 0001:000147f0       _monster_start_go          200157f0 f   g_monster.obj
 0001:00014bb0       _walkmonster_start_go      20015bb0 f   g_monster.obj
 0001:00014ca0       _walkmonster_start         20015ca0 f   g_monster.obj
 0001:00014cd0       _flymonster_start_go       20015cd0 f   g_monster.obj
 0001:00014d80       _flymonster_start          20015d80 f   g_monster.obj
 0001:00014dc0       _swimmonster_start_go      20015dc0 f   g_monster.obj
 0001:00014e30       _swimmonster_start         20015e30 f   g_monster.obj
 0001:00014e70       _SV_TestEntityPosition     20015e70 f   g_phys.obj
 0001:00014f10       _SV_CheckVelocity          20015f10 f   g_phys.obj
 0001:00014fb0       _SV_RunThink               20015fb0 f   g_phys.obj
 0001:00015040       _SV_Impact                 20016040 f   g_phys.obj
 0001:000150d0       _ClipVelocity              200160d0 f   g_phys.obj
 0001:000151d0       _SV_FlyMove                200161d0 f   g_phys.obj
 0001:00015760       _SV_AddGravity             20016760 f   g_phys.obj
 0001:000157a0       _SV_PushEntity             200167a0 f   g_phys.obj
 0001:00015910       _SV_Push                   20016910 f   g_phys.obj
 0001:00016010       _SV_Physics_Pusher         20017010 f   g_phys.obj
 0001:00016210       _SV_Physics_None           20017210 f   g_phys.obj
 0001:00016230       _SV_Physics_Noclip         20017230 f   g_phys.obj
 0001:000162c0       _SV_Physics_Toss           200172c0 f   g_phys.obj
 0001:00016660       _SV_AddRotationalFriction  20017660 f   g_phys.obj
 0001:00016770       _SV_Physics_Step           20017770 f   g_phys.obj
 0001:00016bf0       _G_RunEntity               20017bf0 f   g_phys.obj
 0001:00016cc0       _InitGame                  20017cc0 f   g_save.obj
 0001:00017100       _WriteField1               20018100 f   g_save.obj
 0001:000172b0       _WriteField2               200182b0 f   g_save.obj
 0001:00017320       _ReadField                 20018320 f   g_save.obj
 0001:000174e0       _WriteClient               200184e0 f   g_save.obj
 0001:000175a0       _ReadClient                200185a0 f   g_save.obj
 0001:00017600       _WriteGame                 20018600 f   g_save.obj
 0001:00017710       _ReadGame                  20018710 f   g_save.obj
 0001:00017860       _WriteEdict                20018860 f   g_save.obj
 0001:00017920       _WriteLevelLocals          20018920 f   g_save.obj
 0001:000179e0       _ReadEdict                 200189e0 f   g_save.obj
 0001:00017a40       _ReadLevelLocals           20018a40 f   g_save.obj
 0001:00017aa0       _WriteLevel                20018aa0 f   g_save.obj
 0001:00017bb0       _ReadLevel                 20018bb0 f   g_save.obj
 0001:00017e40       _ED_CallSpawn              20018e40 f   g_spawn.obj
 0001:00017f40       _ED_NewString              20018f40 f   g_spawn.obj
 0001:00018010       _ED_ParseField             20019010 f   g_spawn.obj
 0001:000181c0       _ED_ParseEdict             200191c0 f   g_spawn.obj
 0001:00018300       _G_FindTeams               20019300 f   g_spawn.obj
 0001:000184a0       _SpawnEntities             200194a0 f   g_spawn.obj
 0001:00018800       _SP_worldspawn             20019800 f   g_spawn.obj
 0001:00018e90       _Svcmd_Test_f              20019e90 f   g_svcmds.obj
 0001:00018ec0       _SV_FilterPacket           20019ec0 f   g_svcmds.obj
 0001:00018fd0       _SVCmd_AddIP_f             20019fd0 f   g_svcmds.obj
 0001:00019230       _SVCmd_RemoveIP_f          2001a230 f   g_svcmds.obj
 0001:00019350       _SVCmd_ListIP_f            2001a350 f   g_svcmds.obj
 0001:000193d0       _SVCmd_WriteIP_f           2001a3d0 f   g_svcmds.obj
 0001:00019550       _ServerCommand             2001a550 f   g_svcmds.obj
 0001:00019620       _Use_Target_Tent           2001a620 f   g_target.obj
 0001:00019670       _SP_target_temp_entity     2001a670 f   g_target.obj
 0001:00019690       _Use_Target_Speaker        2001a690 f   g_target.obj
 0001:00019740       _SP_target_speaker         2001a740 f   g_target.obj
 0001:00019890       _Use_Target_Help           2001a890 f   g_target.obj
 0001:00019900       _SP_target_help            2001a900 f   g_target.obj
 0001:00019980       _use_target_secret         2001a980 f   g_target.obj
 0001:000199f0       _SP_target_secret          2001a9f0 f   g_target.obj
 0001:00019ae0       _use_target_goal           2001aae0 f   g_target.obj
 0001:00019b70       _SP_target_goal            2001ab70 f   g_target.obj
 0001:00019c00       _target_explosion_explode  2001ac00 f   g_target.obj
 0001:00019cc0       _use_target_explosion      2001acc0 f   g_target.obj
 0001:00019d30       _SP_target_explosion       2001ad30 f   g_target.obj
 0001:00019d60       _use_target_changelevel    2001ad60 f   g_target.obj
 0001:00019eb0       _SP_target_changelevel     2001aeb0 f   g_target.obj
 0001:00019f50       _use_target_splash         2001af50 f   g_target.obj
 0001:0001a020       _SP_target_splash          2001b020 f   g_target.obj
 0001:0001a080       _use_target_spawner        2001b080 f   g_target.obj
 0001:0001a170       _SP_target_spawner         2001b170 f   g_target.obj
 0001:0001a1f0       _use_target_blaster        2001b1f0 f   g_target.obj
 0001:0001a2a0       _SP_target_blaster         2001b2a0 f   g_target.obj
 0001:0001a340       _trigger_crosslevel_trigger_use 2001b340 f   g_target.obj
 0001:0001a380       _SP_target_crosslevel_trigger 2001b380 f   g_target.obj
 0001:0001a3b0       _target_crosslevel_target_think 2001b3b0 f   g_target.obj
 0001:0001a400       _SP_target_crosslevel_target 2001b400 f   g_target.obj
 0001:0001a470       _target_laser_think        2001b470 f   g_target.obj
 0001:0001a780       _target_laser_on           2001b780 f   g_target.obj
 0001:0001a7f0       _target_laser_off          2001b7f0 f   g_target.obj
 0001:0001a840       _target_laser_use          2001b840 f   g_target.obj
 0001:0001a890       _target_laser_start        2001b890 f   g_target.obj
 0001:0001aae0       _SP_target_laser           2001bae0 f   g_target.obj
 0001:0001ab20       _target_lightramp_think    2001bb20 f   g_target.obj
 0001:0001ac30       _target_lightramp_use      2001bc30 f   g_target.obj
 0001:0001ad80       _SP_target_lightramp       2001bd80 f   g_target.obj
 0001:0001af50       _target_earthquake_think   2001bf50 f   g_target.obj
 0001:0001b100       _target_earthquake_use     2001c100 f   g_target.obj
 0001:0001b160       _SP_target_earthquake      2001c160 f   g_target.obj
 0001:0001b230       _InitTrigger               2001c230 f   g_trigger.obj
 0001:0001b2b0       _multi_wait                2001c2b0 f   g_trigger.obj
 0001:0001b2d0       _multi_trigger             2001c2d0 f   g_trigger.obj
 0001:0001b380       _Use_Multi                 2001c380 f   g_trigger.obj
 0001:0001b3b0       _Touch_Multi               2001c3b0 f   g_trigger.obj
 0001:0001b490       _trigger_enable            2001c490 f   g_trigger.obj
 0001:0001b4d0       _SP_trigger_multiple       2001c4d0 f   g_trigger.obj
 0001:0001b640       _SP_trigger_once           2001c640 f   g_trigger.obj
 0001:0001b710       _trigger_relay_use         2001c710 f   g_trigger.obj
 0001:0001b730       _SP_trigger_relay          2001c730 f   g_trigger.obj
 0001:0001b750       _trigger_key_use           2001c750 f   g_trigger.obj
 0001:0001ba20       _SP_trigger_key            2001ca20 f   g_trigger.obj
 0001:0001bb10       _trigger_counter_use       2001cb10 f   g_trigger.obj
 0001:0001bc20       _SP_trigger_counter        2001cc20 f   g_trigger.obj
 0001:0001bc70       _SP_trigger_always         2001cc70 f   g_trigger.obj
 0001:0001bcc0       _trigger_push_touch        2001ccc0 f   g_trigger.obj
 0001:0001be30       _SP_trigger_push           2001ce30 f   g_trigger.obj
 0001:0001bea0       _hurt_use                  2001cea0 f   g_trigger.obj
 0001:0001bf00       _hurt_touch                2001cf00 f   g_trigger.obj
 0001:0001c020       _SP_trigger_hurt           2001d020 f   g_trigger.obj
 0001:0001c0d0       _trigger_gravity_touch     2001d0d0 f   g_trigger.obj
 0001:0001c100       _SP_trigger_gravity        2001d100 f   g_trigger.obj
 0001:0001c180       _trigger_monsterjump_touch 2001d180 f   g_trigger.obj
 0001:0001c230       _SP_trigger_monsterjump    2001d230 f   g_trigger.obj
 0001:0001c2c0       _AnglesNormalize           2001d2c0 f   g_turret.obj
 0001:0001c370       _SnapToEights              2001d370 f   g_turret.obj
 0001:0001c3d0       _turret_blocked            2001d3d0 f   g_turret.obj
 0001:0001c460       _turret_breach_fire        2001d460 f   g_turret.obj
 0001:0001c5c0       _turret_breach_think       2001d5c0 f   g_turret.obj
 0001:0001cc30       _turret_breach_finish_init 2001dc30 f   g_turret.obj
 0001:0001cd40       _SP_turret_breach          2001dd40 f   g_turret.obj
 0001:0001cec0       _SP_turret_base            2001dec0 f   g_turret.obj
 0001:0001cf20       _turret_driver_die         2001df20 f   g_turret.obj
 0001:0001cff0       _turret_driver_think       2001dff0 f   g_turret.obj
 0001:0001d230       _turret_driver_link        2001e230 f   g_turret.obj
 0001:0001d430       _SP_turret_driver          2001e430 f   g_turret.obj
 0001:0001d670       _G_ProjectSource           2001e670 f   g_utils.obj
 0001:0001d700       _G_Find                    2001e700 f   g_utils.obj
 0001:0001d790       _findradius                2001e790 f   g_utils.obj
 0001:0001d890       _G_PickTarget              2001e890 f   g_utils.obj
 0001:0001d940       _Think_Delay               2001e940 f   g_utils.obj
 0001:0001d980       _G_UseTargets              2001e980 f   g_utils.obj
 0001:0001dc40       _tv                        2001ec40 f   g_utils.obj
 0001:0001dc90       _vtos                      2001ec90 f   g_utils.obj
 0001:0001dd00       _G_SetMovedir              2001ed00 f   g_utils.obj
 0001:0001ddb0       _vectoyaw                  2001edb0 f   g_utils.obj
 0001:0001de70       _vectoangles               2001ee70 f   g_utils.obj
 0001:0001e000       _G_CopyString              2001f000 f   g_utils.obj
 0001:0001e050       _G_InitEdict               2001f050 f   g_utils.obj
 0001:0001e0a0       _G_Spawn                   2001f0a0 f   g_utils.obj
 0001:0001e190       _G_FreeEdict               2001f190 f   g_utils.obj
 0001:0001e220       _G_TouchTriggers           2001f220 f   g_utils.obj
 0001:0001e300       _G_TouchSolids             2001f300 f   g_utils.obj
 0001:0001e3c0       _KillBox                   2001f3c0 f   g_utils.obj
 0001:0001e490       _fire_hit                  2001f490 f   g_weapon.obj
 0001:0001e820       _fire_bullet               2001f820 f   g_weapon.obj
 0001:0001eec0       _fire_shotgun              2001fec0 f   g_weapon.obj
 0001:0001ef20       _blaster_touch             2001ff20 f   g_weapon.obj
 0001:0001f070       _fire_blaster              20020070 f   g_weapon.obj
 0001:0001f450       _fire_grenade              20020450 f   g_weapon.obj
 0001:0001fb00       _fire_grenade2             20020b00 f   g_weapon.obj
 0001:0001fdf0       _rocket_touch              20020df0 f   g_weapon.obj
 0001:00020000       _fire_rocket               20021000 f   g_weapon.obj
 0001:000201e0       _fire_rail                 200211e0 f   g_weapon.obj
 0001:000203e0       _bfg_explode               200213e0 f   g_weapon.obj
 0001:00020630       _bfg_touch                 20021630 f   g_weapon.obj
 0001:00020850       _bfg_think                 20021850 f   g_weapon.obj
 0001:00020b60       _fire_bfg                  20021b60 f   g_weapon.obj
 0001:00020d70       _actor_stand               20021d70 f   m_actor.obj
 0001:00020de0       _actor_walk                20021de0 f   m_actor.obj
 0001:00020e00       _actor_run                 20021e00 f   m_actor.obj
 0001:00020e90       _actor_pain                20021e90 f   m_actor.obj
 0001:00021060       _actorMachineGun           20022060 f   m_actor.obj
 0001:000211e0       _actor_dead                200221e0 f   m_actor.obj
 0001:00021290       _actor_die                 20022290 f   m_actor.obj
 0001:000213a0       _actor_fire                200223a0 f   m_actor.obj
 0001:00021410       _actor_attack              20022410 f   m_actor.obj
 0001:00021460       _actor_use                 20022460 f   m_actor.obj
 0001:000215d0       _SP_misc_actor             200225d0 f   m_actor.obj
 0001:00021800       _target_actor_touch        20022800 f   m_actor.obj
 0001:00021b90       _SP_target_actor           20022b90 f   m_actor.obj
 0001:00021cf0       _berserk_sight             20022cf0 f   m_berserk.obj
 0001:00021d30       _berserk_search            20022d30 f   m_berserk.obj
 0001:00021d70       _berserk_stand             20022d70 f   m_berserk.obj
 0001:00021d90       _berserk_fidget            20022d90 f   m_berserk.obj
 0001:00021e10       _berserk_walk              20022e10 f   m_berserk.obj
 0001:00021e30       _berserk_run               20022e30 f   m_berserk.obj
 0001:00021e70       _berserk_attack_spike      20022e70 f   m_berserk.obj
 0001:00021eb0       _berserk_swing             20022eb0 f   m_berserk.obj
 0001:00021ef0       _berserk_attack_club       20022ef0 f   m_berserk.obj
 0001:00021f60       _berserk_strike            20022f60 f   m_berserk.obj
 0001:00021f70       _berserk_melee             20022f70 f   m_berserk.obj
 0001:00021fc0       _berserk_pain              20022fc0 f   m_berserk.obj
 0001:000220b0       _berserk_dead              200230b0 f   m_berserk.obj
 0001:00022160       _berserk_die               20023160 f   m_berserk.obj
 0001:000222c0       _SP_monster_berserk        200232c0 f   m_berserk.obj
 0001:000224d0       _boss2_search              200234d0 f   m_boss2.obj
 0001:00022530       _Boss2Rocket               20023530 f   m_boss2.obj
 0001:00022810       _boss2_firebullet_right    20023810 f   m_boss2.obj
 0001:00022910       _boss2_firebullet_left     20023910 f   m_boss2.obj
 0001:00022a10       _Boss2MachineGun           20023a10 f   m_boss2.obj
 0001:00022a40       _boss2_stand               20023a40 f   m_boss2.obj
 0001:00022a60       _boss2_run                 20023a60 f   m_boss2.obj
 0001:00022aa0       _boss2_walk                20023aa0 f   m_boss2.obj
 0001:00022ac0       _boss2_attack              20023ac0 f   m_boss2.obj
 0001:00022b90       _boss2_attack_mg           20023b90 f   m_boss2.obj
 0001:00022bb0       _boss2_reattack_mg         20023bb0 f   m_boss2.obj
 0001:00022c30       _boss2_pain                20023c30 f   m_boss2.obj
 0001:00022d50       _boss2_dead                20023d50 f   m_boss2.obj
 0001:00022df0       _boss2_die                 20023df0 f   m_boss2.obj
 0001:00022e60       _Boss2_CheckAttack         20023e60 f   m_boss2.obj
 0001:00023170       _SP_monster_boss2          20024170 f   m_boss2.obj
 0001:00023370       _Use_Boss3                 20024370 f   m_boss3.obj
 0001:000233d0       _Think_Boss3Stand          200243d0 f   m_boss3.obj
 0001:00023420       _SP_monster_boss3_stand    20024420 f   m_boss3.obj
 0001:00023540       _jorg_search               20024540 f   m_boss31.obj
 0001:00023610       _jorg_idle                 20024610 f   m_boss31.obj
 0001:00023650       _jorg_death_hit            20024650 f   m_boss31.obj
 0001:00023690       _jorg_step_left            20024690 f   m_boss31.obj
 0001:000236d0       _jorg_step_right           200246d0 f   m_boss31.obj
 0001:00023710       _jorg_stand                20024710 f   m_boss31.obj
 0001:00023730       _jorg_walk                 20024730 f   m_boss31.obj
 0001:00023750       _jorg_run                  20024750 f   m_boss31.obj
 0001:00023790       _jorg_reattack1            20024790 f   m_boss31.obj
 0001:00023820       _jorg_attack1              20024820 f   m_boss31.obj
 0001:00023840       _jorg_pain                 20024840 f   m_boss31.obj
 0001:00023a80       _jorgBFG                   20024a80 f   m_boss31.obj
 0001:00023ba0       _jorg_firebullet_right     20024ba0 f   m_boss31.obj
 0001:00023ca0       _jorg_firebullet_left      20024ca0 f   m_boss31.obj
 0001:00023da0       _jorg_firebullet           20024da0 f   m_boss31.obj
 0001:00023dd0       _jorg_attack               20024dd0 f   m_boss31.obj
 0001:00023ef0       _jorg_dead                 20024ef0 f   m_boss31.obj
 0001:00023f00       _jorg_die                  20024f00 f   m_boss31.obj
 0001:00023f80       _Jorg_CheckAttack          20024f80 f   m_boss31.obj
 0001:00024290       _SP_monster_jorg           20025290 f   m_boss31.obj
 0001:00024560       _makron_taunt              20025560 f   m_boss32.obj
 0001:00024630       _makron_stand              20025630 f   m_boss32.obj
 0001:00024650       _makron_hit                20025650 f   m_boss32.obj
 0001:00024690       _makron_popup              20025690 f   m_boss32.obj
 0001:000246d0       _makron_step_left          200256d0 f   m_boss32.obj
 0001:00024710       _makron_step_right         20025710 f   m_boss32.obj
 0001:00024750       _makron_brainsplorch       20025750 f   m_boss32.obj
 0001:00024790       _makron_prerailgun         20025790 f   m_boss32.obj
 0001:000247d0       _makron_walk               200257d0 f   m_boss32.obj
 0001:000247f0       _makron_run                200257f0 f   m_boss32.obj
 0001:00024830       _makronBFG                 20025830 f   m_boss32.obj
 0001:00024950       _MakronSaveloc             20025950 f   m_boss32.obj
 0001:000249c0       _MakronRailgun             200259c0 f   m_boss32.obj
 0001:00024a80       _MakronHyperblaster        20025a80 f   m_boss32.obj
 0001:00024c10       _makron_pain               20025c10 f   m_boss32.obj
 0001:00024e00       _makron_sight              20025e00 f   m_boss32.obj
 0001:00024e20       _makron_attack             20025e20 f   m_boss32.obj
 0001:00024f00       _makron_torso_think        20025f00 f   m_boss32.obj
 0001:00024f70       _makron_torso              20025f70 f   m_boss32.obj
 0001:00025060       _makron_dead               20026060 f   m_boss32.obj
 0001:00025100       _makron_die                20026100 f   m_boss32.obj
 0001:000252c0       _Makron_CheckAttack        200262c0 f   m_boss32.obj
 0001:000255d0       _MakronPrecache            200265d0 f   m_boss32.obj
 0001:00025700       _SP_monster_makron         20026700 f   m_boss32.obj
 0001:000258a0       _MakronSpawn               200268a0 f   m_boss32.obj
 0001:00025970       _MakronToss                20026970 f   m_boss32.obj
 0001:000259e0       _brain_sight               200269e0 f   m_brain.obj
 0001:00025a20       _brain_search              20026a20 f   m_brain.obj
 0001:00025a60       _brain_stand               20026a60 f   m_brain.obj
 0001:00025a80       _brain_idle                20026a80 f   m_brain.obj
 0001:00025ad0       _brain_walk                20026ad0 f   m_brain.obj
 0001:00025af0       _brain_duck_down           20026af0 f   m_brain.obj
 0001:00025b60       _brain_duck_hold           20026b60 f   m_brain.obj
 0001:00025bc0       _brain_duck_up             20026bc0 f   m_brain.obj
 0001:00025c20       _brain_dodge               20026c20 f   m_brain.obj
 0001:00025ca0       _brain_swing_right         20026ca0 f   m_brain.obj
 0001:00025ce0       _brain_hit_right           20026ce0 f   m_brain.obj
 0001:00025d70       _brain_swing_left          20026d70 f   m_brain.obj
 0001:00025db0       _brain_hit_left            20026db0 f   m_brain.obj
 0001:00025e40       _brain_chest_open          20026e40 f   m_brain.obj
 0001:00025ea0       _brain_tentacle_attack     20026ea0 f   m_brain.obj
 0001:00025f60       _brain_chest_closed        20026f60 f   m_brain.obj
 0001:00025fc0       _brain_melee               20026fc0 f   m_brain.obj
 0001:00026010       _brain_run                 20027010 f   m_brain.obj
 0001:00026060       _brain_pain                20027060 f   m_brain.obj
 0001:000261c0       _brain_dead                200271c0 f   m_brain.obj
 0001:00026270       _brain_die                 20027270 f   m_brain.obj
 0001:00026400       _SP_monster_brain          20027400 f   m_brain.obj
 0001:000266c0       _ChickMoan                 200276c0 f   m_chick.obj
 0001:00026750       _chick_fidget              20027750 f   m_chick.obj
 0001:000267a0       _chick_stand               200277a0 f   m_chick.obj
 0001:000267c0       _chick_walk                200277c0 f   m_chick.obj
 0001:000267e0       _chick_run                 200277e0 f   m_chick.obj
 0001:00026850       _chick_pain                20027850 f   m_chick.obj
 0001:000269c0       _chick_dead                200279c0 f   m_chick.obj
 0001:00026a60       _chick_die                 20027a60 f   m_chick.obj
 0001:00026c00       _chick_duck_down           20027c00 f   m_chick.obj
 0001:00026c90       _chick_duck_hold           20027c90 f   m_chick.obj
 0001:00026cf0       _chick_duck_up             20027cf0 f   m_chick.obj
 0001:00026d50       _chick_dodge               20027d50 f   m_chick.obj
 0001:00026db0       _ChickSlash                20027db0 f   m_chick.obj
 0001:00026e40       _ChickRocket               20027e40 f   m_chick.obj
 0001:00026f30       _Chick_PreAttack1          20027f30 f   m_chick.obj
 0001:00026f70       _ChickReload               20027f70 f   m_chick.obj
 0001:00026fb0       _chick_rerocket            20027fb0 f   m_chick.obj
 0001:00027050       _chick_attack1             20028050 f   m_chick.obj
 0001:00027070       _chick_reslash             20028070 f   m_chick.obj
 0001:00027100       _chick_slash               20028100 f   m_chick.obj
 0001:00027120       _chick_melee               20028120 f   m_chick.obj
 0001:00027140       _chick_attack              20028140 f   m_chick.obj
 0001:00027160       _chick_sight               20028160 f   m_chick.obj
 0001:000271a0       _SP_monster_chick          200281a0 f   m_chick.obj
 0001:00027450       _flipper_stand             20028450 f   m_flipper.obj
 0001:00027470       _flipper_run_loop          20028470 f   m_flipper.obj
 0001:00027490       _flipper_run               20028490 f   m_flipper.obj
 0001:000274b0       _flipper_walk              200284b0 f   m_flipper.obj
 0001:000274d0       _flipper_start_run         200284d0 f   m_flipper.obj
 0001:000274f0       _flipper_bite              200284f0 f   m_flipper.obj
 0001:00027540       _flipper_preattack         20028540 f   m_flipper.obj
 0001:00027580       _flipper_melee             20028580 f   m_flipper.obj
 0001:000275a0       _flipper_pain              200285a0 f   m_flipper.obj
 0001:000276b0       _flipper_dead              200286b0 f   m_flipper.obj
 0001:00027760       _flipper_sight             20028760 f   m_flipper.obj
 0001:000277a0       _flipper_die               200287a0 f   m_flipper.obj
 0001:000278e0       _SP_monster_flipper        200288e0 f   m_flipper.obj
 0001:00027af0       _floater_sight             20028af0 f   m_float.obj
 0001:00027b30       _floater_idle              20028b30 f   m_float.obj
 0001:00027b70       _floater_fire_blaster      20028b70 f   m_float.obj
 0001:00027c70       _floater_stand             20028c70 f   m_float.obj
 0001:00027cc0       _floater_run               20028cc0 f   m_float.obj
 0001:00027d00       _floater_walk              20028d00 f   m_float.obj
 0001:00027d20       _floater_wham              20028d20 f   m_float.obj
 0001:00027d80       _floater_zap               20028d80 f   m_float.obj
 0001:00027f00       _floater_attack            20028f00 f   m_float.obj
 0001:00027f20       _floater_melee             20028f20 f   m_float.obj
 0001:00027f70       _floater_pain              20028f70 f   m_float.obj
 0001:00028080       _floater_dead              20029080 f   m_float.obj
 0001:00028130       _floater_die               20029130 f   m_float.obj
 0001:00028180       _SP_monster_floater        20029180 f   m_float.obj
 0001:000283f0       _flyer_sight               200293f0 f   m_flyer.obj
 0001:00028430       _flyer_idle                20029430 f   m_flyer.obj
 0001:00028470       _flyer_pop_blades          20029470 f   m_flyer.obj
 0001:000284b0       _flyer_run                 200294b0 f   m_flyer.obj
 0001:000284f0       _flyer_walk                200294f0 f   m_flyer.obj
 0001:00028510       _flyer_stand               20029510 f   m_flyer.obj
 0001:00028530       _flyer_stop                20029530 f   m_flyer.obj
 0001:00028550       _flyer_start               20029550 f   m_flyer.obj
 0001:00028570       _flyer_fire                20029570 f   m_flyer.obj
 0001:00028690       _flyer_fireleft            20029690 f   m_flyer.obj
 0001:000286b0       _flyer_fireright           200296b0 f   m_flyer.obj
 0001:000286d0       _flyer_slash_left          200296d0 f   m_flyer.obj
 0001:00028750       _flyer_slash_right         20029750 f   m_flyer.obj
 0001:000287d0       _flyer_loop_melee          200297d0 f   m_flyer.obj
 0001:000287f0       _flyer_attack              200297f0 f   m_flyer.obj
 0001:00028810       _flyer_setstart            20029810 f   m_flyer.obj
 0001:00028840       _flyer_nextmove            20029840 f   m_flyer.obj
 0001:000288a0       _flyer_melee               200298a0 f   m_flyer.obj
 0001:000288c0       _flyer_check_melee         200298c0 f   m_flyer.obj
 0001:00028940       _flyer_pain                20029940 f   m_flyer.obj
 0001:00028a80       _flyer_die                 20029a80 f   m_flyer.obj
 0001:00028ad0       _SP_monster_flyer          20029ad0 f   m_flyer.obj
 0001:00028d40       _gladiator_idle            20029d40 f   m_gladiator.obj
 0001:00028d80       _gladiator_sight           20029d80 f   m_gladiator.obj
 0001:00028dc0       _gladiator_search          20029dc0 f   m_gladiator.obj
 0001:00028e00       _gladiator_cleaver_swing   20029e00 f   m_gladiator.obj
 0001:00028e40       _gladiator_stand           20029e40 f   m_gladiator.obj
 0001:00028e60       _gladiator_walk            20029e60 f   m_gladiator.obj
 0001:00028e80       _gladiator_run             20029e80 f   m_gladiator.obj
 0001:00028ec0       _GaldiatorMelee            20029ec0 f   m_gladiator.obj
 0001:00028f80       _gladiator_melee           20029f80 f   m_gladiator.obj
 0001:00028fa0       _GladiatorGun              20029fa0 f   m_gladiator.obj
 0001:00029060       _gladiator_attack          2002a060 f   m_gladiator.obj
 0001:00029180       _gladiator_pain            2002a180 f   m_gladiator.obj
 0001:000292e0       _gladiator_dead            2002a2e0 f   m_gladiator.obj
 0001:00029390       _gladiator_die             2002a390 f   m_gladiator.obj
 0001:000294d0       _SP_monster_gladiator      2002a4d0 f   m_gladiator.obj
 0001:00029740       _gunner_idlesound          2002a740 f   m_gunner.obj
 0001:00029780       _gunner_sight              2002a780 f   m_gunner.obj
 0001:000297c0       _gunner_search             2002a7c0 f   m_gunner.obj
 0001:00029800       _gunner_fidget             2002a800 f   m_gunner.obj
 0001:00029850       _gunner_stand              2002a850 f   m_gunner.obj
 0001:00029870       _gunner_walk               2002a870 f   m_gunner.obj
 0001:00029890       _gunner_run                2002a890 f   m_gunner.obj
 0001:000298d0       _gunner_runandshoot        2002a8d0 f   m_gunner.obj
 0001:000298f0       _gunner_pain               2002a8f0 f   m_gunner.obj
 0001:00029a00       _gunner_dead               2002aa00 f   m_gunner.obj
 0001:00029ab0       _gunner_die                2002aab0 f   m_gunner.obj
 0001:00029bf0       _gunner_duck_down          2002abf0 f   m_gunner.obj
 0001:00029cc0       _gunner_duck_hold          2002acc0 f   m_gunner.obj
 0001:00029d20       _gunner_duck_up            2002ad20 f   m_gunner.obj
 0001:00029d80       _gunner_dodge              2002ad80 f   m_gunner.obj
 0001:00029de0       _gunner_opengun            2002ade0 f   m_gunner.obj
 0001:00029e20       _GunnerFire                2002ae20 f   m_gunner.obj
 0001:00029f50       _GunnerGrenade             2002af50 f   m_gunner.obj
 0001:0002a030       _gunner_attack             2002b030 f   m_gunner.obj
 0001:0002a0b0       _gunner_fire_chain         2002b0b0 f   m_gunner.obj
 0001:0002a0d0       _gunner_refire_chain       2002b0d0 f   m_gunner.obj
 0001:0002a150       _SP_monster_gunner         2002b150 f   m_gunner.obj
 0001:0002a390       _hover_sight               2002b390 f   m_hover.obj
 0001:0002a3d0       _hover_search              2002b3d0 f   m_hover.obj
 0001:0002a460       _hover_reattack            2002b460 f   m_hover.obj
 0001:0002a4e0       _hover_fire_blaster        2002b4e0 f   m_hover.obj
 0001:0002a5e0       _hover_stand               2002b5e0 f   m_hover.obj
 0001:0002a600       _hover_run                 2002b600 f   m_hover.obj
 0001:0002a640       _hover_walk                2002b640 f   m_hover.obj
 0001:0002a660       _hover_start_attack        2002b660 f   m_hover.obj
 0001:0002a680       _hover_attack              2002b680 f   m_hover.obj
 0001:0002a6a0       _hover_pain                2002b6a0 f   m_hover.obj
 0001:0002a7f0       _hover_deadthink           2002b7f0 f   m_hover.obj
 0001:0002a850       _hover_dead                2002b850 f   m_hover.obj
 0001:0002a910       _hover_die                 2002b910 f   m_hover.obj
 0001:0002aaa0       _SP_monster_hover          2002baa0 f   m_hover.obj
 0001:0002acd0       _infantry_stand            2002bcd0 f   m_infantry.obj
 0001:0002acf0       _infantry_fidget           2002bcf0 f   m_infantry.obj
 0001:0002ad40       _infantry_walk             2002bd40 f   m_infantry.obj
 0001:0002ad60       _infantry_run              2002bd60 f   m_infantry.obj
 0001:0002ada0       _infantry_pain             2002bda0 f   m_infantry.obj
 0001:0002aeb0       _InfantryMachineGun        2002beb0 f   m_infantry.obj
 0001:0002b0a0       _infantry_sight            2002c0a0 f   m_infantry.obj
 0001:0002b0e0       _infantry_dead             2002c0e0 f   m_infantry.obj
 0001:0002b190       _infantry_die              2002c190 f   m_infantry.obj
 0001:0002b360       _infantry_duck_down        2002c360 f   m_infantry.obj
 0001:0002b3f0       _infantry_duck_hold        2002c3f0 f   m_infantry.obj
 0001:0002b450       _infantry_duck_up          2002c450 f   m_infantry.obj
 0001:0002b4b0       _infantry_dodge            2002c4b0 f   m_infantry.obj
 0001:0002b510       _infantry_cock_gun         2002c510 f   m_infantry.obj
 0001:0002b570       _infantry_fire             2002c570 f   m_infantry.obj
 0001:0002b5e0       _infantry_swing            2002c5e0 f   m_infantry.obj
 0001:0002b620       _infantry_smack            2002c620 f   m_infantry.obj
 0001:0002b6b0       _infantry_attack           2002c6b0 f   m_infantry.obj
 0001:0002b700       _SP_monster_infantry       2002c700 f   m_infantry.obj
 0001:0002b970       _insane_fist               2002c970 f   m_insane.obj
 0001:0002b9b0       _insane_shake              2002c9b0 f   m_insane.obj
 0001:0002b9f0       _insane_moan               2002c9f0 f   m_insane.obj
 0001:0002ba30       _insane_scream             2002ca30 f   m_insane.obj
 0001:0002ba80       _insane_cross              2002ca80 f   m_insane.obj
 0001:0002bad0       _insane_walk               2002cad0 f   m_insane.obj
 0001:0002bb70       _insane_run                2002cb70 f   m_insane.obj
 0001:0002bc10       _insane_pain               2002cc10 f   m_insane.obj
 0001:0002bd70       _insane_onground           2002cd70 f   m_insane.obj
 0001:0002bd90       _insane_checkdown          2002cd90 f   m_insane.obj
 0001:0002be20       _insane_checkup            2002ce20 f   m_insane.obj
 0001:0002be80       _insane_stand              2002ce80 f   m_insane.obj
 0001:0002bf30       _insane_dead               2002cf30 f   m_insane.obj
 0001:0002c000       _insane_die                2002d000 f   m_insane.obj
 0001:0002c1d0       _SP_misc_insane            2002d1d0 f   m_insane.obj
 0001:0002c500       _medic_FindDeadMonster     2002d500 f   m_medic.obj
 0001:0002c600       _medic_idle                2002d600 f   m_medic.obj
 0001:0002c6a0       _medic_search              2002d6a0 f   m_medic.obj
 0001:0002c750       _medic_sight               2002d750 f   m_medic.obj
 0001:0002c790       _medic_stand               2002d790 f   m_medic.obj
 0001:0002c7b0       _medic_walk                2002d7b0 f   m_medic.obj
 0001:0002c7d0       _medic_run                 2002d7d0 f   m_medic.obj
 0001:0002c890       _medic_pain                2002d890 f   m_medic.obj
 0001:0002c9a0       _medic_fire_blaster        2002d9a0 f   m_medic.obj
 0001:0002cae0       _medic_dead                2002dae0 f   m_medic.obj
 0001:0002cb90       _medic_die                 2002db90 f   m_medic.obj
 0001:0002cd00       _medic_duck_down           2002dd00 f   m_medic.obj
 0001:0002cd90       _medic_duck_hold           2002dd90 f   m_medic.obj
 0001:0002cdf0       _medic_duck_up             2002ddf0 f   m_medic.obj
 0001:0002ce50       _medic_dodge               2002de50 f   m_medic.obj
 0001:0002ceb0       _medic_continue            2002deb0 f   m_medic.obj
 0001:0002cf10       _medic_hook_launch         2002df10 f   m_medic.obj
 0001:0002cf50       _medic_cable_attack        2002df50 f   m_medic.obj
 0001:0002d400       _medic_hook_retract        2002e400 f   m_medic.obj
 0001:0002d460       _medic_attack              2002e460 f   m_medic.obj
 0001:0002d4a0       _medic_checkattack         2002e4a0 f   m_medic.obj
 0001:0002d4e0       _SP_monster_medic          2002e4e0 f   m_medic.obj
 0001:0002d760       _M_CheckBottom             2002e760 f   m_move.obj
 0001:0002da70       _SV_movestep               2002ea70 f   m_move.obj
 0001:0002e080       _M_ChangeYaw               2002f080 f   m_move.obj
 0001:0002e190       _SV_StepDirection          2002f190 f   m_move.obj
 0001:0002e2d0       _SV_FixCheckBottom         2002f2d0 f   m_move.obj
 0001:0002e300       _SV_NewChaseDir            2002f300 f   m_move.obj
 0001:0002e6f0       _SV_CloseEnough            2002f6f0 f   m_move.obj
 0001:0002e780       _M_MoveToGoal              2002f780 f   m_move.obj
 0001:0002e840       _M_walkmove                2002f840 f   m_move.obj
 0001:0002e8e0       _mutant_step               2002f8e0 f   m_mutant.obj
 0001:0002e990       _mutant_sight              2002f990 f   m_mutant.obj
 0001:0002e9d0       _mutant_search             2002f9d0 f   m_mutant.obj
 0001:0002ea10       _mutant_swing              2002fa10 f   m_mutant.obj
 0001:0002ea50       _mutant_stand              2002fa50 f   m_mutant.obj
 0001:0002ea70       _mutant_idle_loop          2002fa70 f   m_mutant.obj
 0001:0002eab0       _mutant_idle               2002fab0 f   m_mutant.obj
 0001:0002eb00       _mutant_walk_loop          2002fb00 f   m_mutant.obj
 0001:0002eb20       _mutant_walk               2002fb20 f   m_mutant.obj
 0001:0002eb40       _mutant_run                2002fb40 f   m_mutant.obj
 0001:0002eb80       _mutant_hit_left           2002fb80 f   m_mutant.obj
 0001:0002ec40       _mutant_hit_right          2002fc40 f   m_mutant.obj
 0001:0002ed00       _mutant_check_refire       2002fd00 f   m_mutant.obj
 0001:0002eda0       _mutant_melee              2002fda0 f   m_mutant.obj
 0001:0002edc0       _mutant_jump_touch         2002fdc0 f   m_mutant.obj
 0001:0002ef30       _mutant_jump_takeoff       2002ff30 f   m_mutant.obj
 0001:0002f020       _mutant_check_landing      20030020 f   m_mutant.obj
 0001:0002f0c0       _mutant_jump               200300c0 f   m_mutant.obj
 0001:0002f0e0       _mutant_check_melee        200300e0 f   m_mutant.obj
 0001:0002f120       _mutant_check_jump         20030120 f   m_mutant.obj
 0001:0002f250       _mutant_checkattack        20030250 f   m_mutant.obj
 0001:0002f2d0       _mutant_pain               200302d0 f   m_mutant.obj
 0001:0002f430       _mutant_dead               20030430 f   m_mutant.obj
 0001:0002f4e0       _mutant_die                200304e0 f   m_mutant.obj
 0001:0002f660       _SP_monster_mutant         20030660 f   m_mutant.obj
 0001:0002f910       _parasite_launch           20030910 f   m_parasite.obj
 0001:0002f950       _parasite_reel_in          20030950 f   m_parasite.obj
 0001:0002f990       _parasite_sight            20030990 f   m_parasite.obj
 0001:0002f9d0       _parasite_tap              200309d0 f   m_parasite.obj
 0001:0002fa10       _parasite_scratch          20030a10 f   m_parasite.obj
 0001:0002fa50       _parasite_search           20030a50 f   m_parasite.obj
 0001:0002fa90       _parasite_end_fidget       20030a90 f   m_parasite.obj
 0001:0002fab0       _parasite_do_fidget        20030ab0 f   m_parasite.obj
 0001:0002fad0       _parasite_refidget         20030ad0 f   m_parasite.obj
 0001:0002fb20       _parasite_idle             20030b20 f   m_parasite.obj
 0001:0002fb40       _parasite_stand            20030b40 f   m_parasite.obj
 0001:0002fb60       _parasite_start_run        20030b60 f   m_parasite.obj
 0001:0002fba0       _parasite_run              20030ba0 f   m_parasite.obj
 0001:0002fbe0       _parasite_start_walk       20030be0 f   m_parasite.obj
 0001:0002fc00       _parasite_walk             20030c00 f   m_parasite.obj
 0001:0002fc20       _parasite_pain             20030c20 f   m_parasite.obj
 0001:0002fd30       _parasite_drain_attack     20030d30 f   m_parasite.obj
 0001:000300d0       _parasite_attack           200310d0 f   m_parasite.obj
 0001:000300f0       _parasite_dead             200310f0 f   m_parasite.obj
 0001:000301a0       _parasite_die              200311a0 f   m_parasite.obj
 0001:000302e0       _SP_monster_parasite       200312e0 f   m_parasite.obj
 0001:00030530       _soldier_idle              20031530 f   m_soldier.obj
 0001:00030590       _soldier_cock              20031590 f   m_soldier.obj
 0001:00030600       _soldier_stand             20031600 f   m_soldier.obj
 0001:00030660       _soldier_walk1_random      20031660 f   m_soldier.obj
 0001:000306a0       _soldier_walk              200316a0 f   m_soldier.obj
 0001:000306f0       _soldier_run               200316f0 f   m_soldier.obj
 0001:00030770       _soldier_pain              20031770 f   m_soldier.obj
 0001:00030960       _soldier_fire              20031960 f   m_soldier.obj
 0001:00030cc0       _soldier_fire1             20031cc0 f   m_soldier.obj
 0001:00030ce0       _soldier_attack1_refire1   20031ce0 f   m_soldier.obj
 0001:00030d90       _soldier_attack1_refire2   20031d90 f   m_soldier.obj
 0001:00030e20       _soldier_fire2             20031e20 f   m_soldier.obj
 0001:00030e40       _soldier_attack2_refire1   20031e40 f   m_soldier.obj
 0001:00030ef0       _soldier_attack2_refire2   20031ef0 f   m_soldier.obj
 0001:00030f80       _soldier_duck_down         20031f80 f   m_soldier.obj
 0001:00031010       _soldier_duck_up           20032010 f   m_soldier.obj
 0001:00031070       _soldier_fire3             20032070 f   m_soldier.obj
 0001:000310a0       _soldier_attack3_refire    200320a0 f   m_soldier.obj
 0001:000310e0       _soldier_fire4             200320e0 f   m_soldier.obj
 0001:00031100       _soldier_fire8             20032100 f   m_soldier.obj
 0001:00031120       _soldier_attack6_refire    20032120 f   m_soldier.obj
 0001:00031190       _soldier_attack            20032190 f   m_soldier.obj
 0001:00031200       _soldier_sight             20032200 f   m_soldier.obj
 0001:000312f0       _soldier_duck_hold         200322f0 f   m_soldier.obj
 0001:00031350       _soldier_dodge             20032350 f   m_soldier.obj
 0001:00031490       _soldier_fire6             20032490 f   m_soldier.obj
 0001:000314b0       _soldier_fire7             200324b0 f   m_soldier.obj
 0001:000314d0       _soldier_dead              200324d0 f   m_soldier.obj
 0001:00031580       _soldier_die               20032580 f   m_soldier.obj
 0001:000317c0       _SP_monster_soldier_x      200327c0 f   m_soldier.obj
 0001:00031960       _SP_monster_soldier_light  20032960 f   m_soldier.obj
 0001:00031a20       _SP_monster_soldier        20032a20 f   m_soldier.obj
 0001:00031ac0       _SP_monster_soldier_ss     20032ac0 f   m_soldier.obj
 0001:00031b60       _TreadSound                20032b60 f   m_supertank.obj
 0001:00031ba0       _supertank_search          20032ba0 f   m_supertank.obj
 0001:00031c30       _supertank_stand           20032c30 f   m_supertank.obj
 0001:00031c50       _supertank_forward         20032c50 f   m_supertank.obj
 0001:00031c70       _supertank_walk            20032c70 f   m_supertank.obj
 0001:00031c90       _supertank_run             20032c90 f   m_supertank.obj
 0001:00031cd0       _supertank_reattack1       20032cd0 f   m_supertank.obj
 0001:00031d50       _supertank_pain            20032d50 f   m_supertank.obj
 0001:00031ee0       _supertankRocket           20032ee0 f   m_supertank.obj
 0001:00032000       _supertankMachineGun       20033000 f   m_supertank.obj
 0001:00032150       _supertank_attack          20033150 f   m_supertank.obj
 0001:00032220       _supertank_dead            20033220 f   m_supertank.obj
 0001:000322c0       _BossExplode               200332c0 f   m_supertank.obj
 0001:00032570       _supertank_die             20033570 f   m_supertank.obj
 0001:000325e0       _SP_monster_supertank      200335e0 f   m_supertank.obj
 0001:00032800       _tank_sight                20033800 f   m_tank.obj
 0001:00032840       _tank_footstep             20033840 f   m_tank.obj
 0001:00032880       _tank_thud                 20033880 f   m_tank.obj
 0001:000328c0       _tank_windup               200338c0 f   m_tank.obj
 0001:00032900       _tank_idle                 20033900 f   m_tank.obj
 0001:00032940       _tank_stand                20033940 f   m_tank.obj
 0001:00032960       _tank_walk                 20033960 f   m_tank.obj
 0001:00032980       _tank_run                  20033980 f   m_tank.obj
 0001:00032a40       _tank_pain                 20033a40 f   m_tank.obj
 0001:00032ba0       _TankBlaster               20033ba0 f   m_tank.obj
 0001:00032cb0       _TankStrike                20033cb0 f   m_tank.obj
 0001:00032cf0       _TankRocket                20033cf0 f   m_tank.obj
 0001:00032e20       _TankMachineGun            20033e20 f   m_tank.obj
 0001:00032fb0       _tank_reattack_blaster     20033fb0 f   m_tank.obj
 0001:00033040       _tank_poststrike           20034040 f   m_tank.obj
 0001:00033070       _tank_refire_rocket        20034070 f   m_tank.obj
 0001:00033100       _tank_doattack_rocket      20034100 f   m_tank.obj
 0001:00033120       _tank_attack               20034120 f   m_tank.obj
 0001:000332d0       _tank_dead                 200342d0 f   m_tank.obj
 0001:00033370       _tank_die                  20034370 f   m_tank.obj
 0001:000334d0       _SP_monster_tank           200344d0 f   m_tank.obj
 0001:000337c0       _SP_info_player_start      200347c0 f   p_client.obj
 0001:00033940       _SP_info_player_deathmatch 20034940 f   p_client.obj
 0001:00033980       _SP_info_player_coop       20034980 f   p_client.obj
 0001:00033c30       _SP_info_player_intermission 20034c30 f   p_client.obj
 0001:00033c40       _player_pain               20034c40 f   p_client.obj
 0001:00033c50       _IsFemale                  20034c50 f   p_client.obj
 0001:00033cb0       _IsNeutral                 20034cb0 f   p_client.obj
 0001:00033d20       _ClientObituary            20034d20 f   p_client.obj
 0001:000342a0       _TossClientWeapon          200352a0 f   p_client.obj
 0001:000344b0       _LookAtKiller              200354b0 f   p_client.obj
 0001:00034650       _player_die                20035650 f   p_client.obj
 0001:00034a10       _InitClientPersistant      20035a10 f   p_client.obj
 0001:00034b00       _InitClientResp            20035b00 f   p_client.obj
 0001:00034b50       _SaveClientData            20035b50 f   p_client.obj
 0001:00034c40       _FetchClientEntData        20035c40 f   p_client.obj
 0001:00034cd0       _PlayersRangeFromSpot      20035cd0 f   p_client.obj
 0001:00034db0       _SelectRandomDeathmatchSpawnPoint 20035db0 f   p_client.obj
 0001:00034ee0       _SelectFarthestDeathmatchSpawnPoint 20035ee0 f   p_client.obj
 0001:00034f80       _SelectDeathmatchSpawnPoint 20035f80 f   p_client.obj
 0001:00034fc0       _SelectCoopSpawnPoint      20035fc0 f   p_client.obj
 0001:00035070       _SelectSpawnPoint          20036070 f   p_client.obj
 0001:000351e0       _InitBodyQue               200361e0 f   p_client.obj
 0001:00035230       _body_die                  20036230 f   p_client.obj
 0001:000352e0       _CopyToBodyQue             200362e0 f   p_client.obj
 0001:00035500       _respawn                   20036500 f   p_client.obj
 0001:000355b0       _spectator_respawn         200365b0 f   p_client.obj
 0001:00035920       _PutClientInServer         20036920 f   p_client.obj
 0001:00036000       _ClientBeginDeathmatch     20037000 f   p_client.obj
 0001:000360d0       _ClientBegin               200370d0 f   p_client.obj
 0001:00036250       _ClientUserinfoChanged     20037250 f   p_client.obj
 0001:00036480       _ClientConnect             20037480 f   p_client.obj
 0001:00036760       _ClientDisconnect          20037760 f   p_client.obj
 0001:00036860       _PM_trace                  20037860 f   p_client.obj
 0001:00036900       _CheckBlock                20037900 f   p_client.obj
 0001:00036950       _PrintPmove                20037950 f   p_client.obj
 0001:000369b0       _ClientThink               200379b0 f   p_client.obj
 0001:000370e0       _ClientBeginServerFrame    200380e0 f   p_client.obj
 0001:00037280       _MoveClientToIntermission  20038280 f   p_hud.obj
 0001:00037490       _BeginIntermission         20038490 f   p_hud.obj
 0001:00037780       _DeathmatchScoreboardMessage 20038780 f   p_hud.obj
 0001:00037bd0       _DeathmatchScoreboard      20038bd0 f   p_hud.obj
 0001:00037c10       _Cmd_Score_f               20038c10 f   p_hud.obj
 0001:00037cb0       _HelpComputer              20038cb0 f   p_hud.obj
 0001:00037dd0       _Cmd_Help_f                20038dd0 f   p_hud.obj
 0001:00037e90       _G_SetStats                20038e90 f   p_hud.obj
 0001:000384e0       _G_CheckChaseStats         200394e0 f   p_hud.obj
 0001:00038590       _G_SetSpectatorStats       20039590 f   p_hud.obj
 0001:000386a0       _PlayerTrail_Init          200396a0 f   p_trail.obj
 0001:00038720       _PlayerTrail_Add           20039720 f   p_trail.obj
 0001:00038830       _PlayerTrail_New           20039830 f   p_trail.obj
 0001:00038860       _PlayerTrail_PickFirst     20039860 f   p_trail.obj
 0001:00038940       _PlayerTrail_PickNext      20039940 f   p_trail.obj
 0001:000389c0       _PlayerTrail_LastSpot      200399c0 f   p_trail.obj
 0001:000389f0       _SV_CalcRoll               200399f0 f   p_view.obj
 0001:00038ab0       _P_DamageFeedback          20039ab0 f   p_view.obj
 0001:00039060       _SV_CalcViewOffset         2003a060 f   p_view.obj
 0001:000394b0       _SV_CalcGunOffset          2003a4b0 f   p_view.obj
 0001:00039700       _SV_AddBlend               2003a700 f   p_view.obj
 0001:000397a0       _SV_CalcBlend              2003a7a0 f   p_view.obj
 0001:00039d40       _P_FallingDamage           2003ad40 f   p_view.obj
 0001:00039fd0       _P_WorldEffects            2003afd0 f   p_view.obj
 0001:0003a7f0       _G_SetClientEffects        2003b7f0 f   p_view.obj
 0001:0003a980       _G_SetClientEvent          2003b980 f   p_view.obj
 0001:0003a9f0       _G_SetClientSound          2003b9f0 f   p_view.obj
 0001:0003ab90       _G_SetClientFrame          2003bb90 f   p_view.obj
 0001:0003ade0       _ClientEndServerFrame      2003bde0 f   p_view.obj
 0001:0003b240       _PlayerNoise               2003c240 f   p_weapon.obj
 0001:0003b510       _Pickup_Weapon             2003c510 f   p_weapon.obj
 0001:0003b730       _ChangeWeapon              2003c730 f   p_weapon.obj
 0001:0003b960       _NoAmmoWeaponChange        2003c960 f   p_weapon.obj
 0001:0003bc40       _Think_Weapon              2003cc40 f   p_weapon.obj
 0001:0003bd10       _Use_Weapon                2003cd10 f   p_weapon.obj
 0001:0003be10       _Drop_Weapon               2003ce10 f   p_weapon.obj
 0001:0003bed0       _Weapon_Generic            2003ced0 f   p_weapon.obj
 0001:0003c390       _weapon_grenade_fire       2003d390 f   p_weapon.obj
 0001:0003c640       _Weapon_Grenade            2003d640 f   p_weapon.obj
 0001:0003ca30       _weapon_grenadelauncher_fire 2003da30 f   p_weapon.obj
 0001:0003cc10       _Weapon_GrenadeLauncher    2003dc10 f   p_weapon.obj
 0001:0003cc50       _Weapon_RocketLauncher_Fire 2003dc50 f   p_weapon.obj
 0001:0003ce60       _Weapon_RocketLauncher     2003de60 f   p_weapon.obj
 0001:0003cea0       _Blaster_Fire              2003dea0 f   p_weapon.obj
 0001:0003d040       _Weapon_Blaster_Fire       2003e040 f   p_weapon.obj
 0001:0003d0b0       _Weapon_Blaster            2003e0b0 f   p_weapon.obj
 0001:0003d0f0       _Weapon_HyperBlaster_Fire  2003e0f0 f   p_weapon.obj
 0001:0003d3e0       _Weapon_HyperBlaster       2003e3e0 f   p_weapon.obj
 0001:0003d420       _Machinegun_Fire           2003e420 f   p_weapon.obj
 0001:0003d8e0       _Weapon_Machinegun         2003e8e0 f   p_weapon.obj
 0001:0003d920       _Chaingun_Fire             2003e920 f   p_weapon.obj
 0001:0003deb0       _Weapon_Chaingun           2003eeb0 f   p_weapon.obj
 0001:0003def0       _weapon_shotgun_fire       2003eef0 f   p_weapon.obj
 0001:0003e130       _Weapon_Shotgun            2003f130 f   p_weapon.obj
 0001:0003e170       _weapon_supershotgun_fire  2003f170 f   p_weapon.obj
 0001:0003e3f0       _Weapon_SuperShotgun       2003f3f0 f   p_weapon.obj
 0001:0003e430       _weapon_railgun_fire       2003f430 f   p_weapon.obj
 0001:0003e620       _Weapon_Railgun            2003f620 f   p_weapon.obj
 0001:0003e660       _weapon_bfg_fire           2003f660 f   p_weapon.obj
 0001:0003e900       _Weapon_BFG                2003f900 f   p_weapon.obj
 0001:0003e940       _RotatePointAroundVector   2003f940 f   q_shared.obj
 0001:0003eb90       _AngleVectors              2003fb90 f   q_shared.obj
 0001:0003ed80       _ProjectPointOnPlane       2003fd80 f   q_shared.obj
 0001:0003ee60       _PerpendicularVector       2003fe60 f   q_shared.obj
 0001:0003ef30       _R_ConcatRotations         2003ff30 f   q_shared.obj
 0001:0003f0e0       _R_ConcatTransforms        200400e0 f   q_shared.obj
 0001:0003f330       _Q_fabs                    20040330 f   q_shared.obj
 0001:0003f360       _Q_ftol                    20040360 f   q_shared.obj
 0001:0003f370       _LerpAngle                 20040370 f   q_shared.obj
 0001:0003f3d0       _anglemod                  200403d0 f   q_shared.obj
 0001:0003f410       _BoxOnPlaneSide2           20040410 f   q_shared.obj
 0001:0003f530       _BoxOnPlaneSide            20040530 f   q_shared.obj
 0001:0003f7b0       _ClearBounds               200407b0 f   q_shared.obj
 0001:0003f810       _AddPointToBounds          20040810 f   q_shared.obj
 0001:0003f890       _VectorCompare             20040890 f   q_shared.obj
 0001:0003f8f0       _VectorNormalize           200408f0 f   q_shared.obj
 0001:0003f990       _VectorNormalize2          20040990 f   q_shared.obj
 0001:0003fa30       _VectorMA                  20040a30 f   q_shared.obj
 0001:0003fa80       __DotProduct               20040a80 f   q_shared.obj
 0001:0003fac0       __VectorSubtract           20040ac0 f   q_shared.obj
 0001:0003fb10       __VectorAdd                20040b10 f   q_shared.obj
 0001:0003fb60       __VectorCopy               20040b60 f   q_shared.obj
 0001:0003fba0       _CrossProduct              20040ba0 f   q_shared.obj
 0001:0003fc10       _VectorLength              20040c10 f   q_shared.obj
 0001:0003fc70       _VectorInverse             20040c70 f   q_shared.obj
 0001:0003fcb0       _VectorScale               20040cb0 f   q_shared.obj
 0001:0003fcf0       _Q_log2                    20040cf0 f   q_shared.obj
 0001:0003fd20       _COM_SkipPath              20040d20 f   q_shared.obj
 0001:0003fd70       _COM_StripExtension        20040d70 f   q_shared.obj
 0001:0003fdc0       _COM_FileExtension         20040dc0 f   q_shared.obj
 0001:0003fe60       _COM_FileBase              20040e60 f   q_shared.obj
 0001:0003ff10       _COM_FilePath              20040f10 f   q_shared.obj
 0001:0003ff80       _COM_DefaultExtension      20040f80 f   q_shared.obj
 0001:0003fff0       _BigShort                  20040ff0 f   q_shared.obj
 0001:00040010       _LittleShort               20041010 f   q_shared.obj
 0001:00040030       _BigLong                   20041030 f   q_shared.obj
 0001:00040050       _LittleLong                20041050 f   q_shared.obj
 0001:00040070       _BigFloat                  20041070 f   q_shared.obj
 0001:00040090       _LittleFloat               20041090 f   q_shared.obj
 0001:000400b0       _ShortSwap                 200410b0 f   q_shared.obj
 0001:000400f0       _ShortNoSwap               200410f0 f   q_shared.obj
 0001:00040110       _LongSwap                  20041110 f   q_shared.obj
 0001:00040180       _LongNoSwap                20041180 f   q_shared.obj
 0001:000401a0       _FloatSwap                 200411a0 f   q_shared.obj
 0001:000401e0       _FloatNoSwap               200411e0 f   q_shared.obj
 0001:00040200       _Swap_Init                 20041200 f   q_shared.obj
 0001:000402b0       _va                        200412b0 f   q_shared.obj
 0001:000402f0       _COM_Parse                 200412f0 f   q_shared.obj
 0001:00040470       _Com_PageInMemory          20041470 f   q_shared.obj
 0001:000404c0       _Q_stricmp                 200414c0 f   q_shared.obj
 0001:000404e0       _Q_strncasecmp             200414e0 f   q_shared.obj
 0001:00040570       _Q_strcasecmp              20041570 f   q_shared.obj
 0001:000405a0       _Com_sprintf               200415a0 f   q_shared.obj
 0001:00040630       _Info_ValueForKey          20041630 f   q_shared.obj
 0001:000407a0       _Info_RemoveKey            200417a0 f   q_shared.obj
 0001:00040900       _Info_Validate             20041900 f   q_shared.obj
 0001:00040950       _Info_SetValueForKey       20041950 f   q_shared.obj
 0001:00040b60       __fpmath                   20041b60 f   LIBCMTD:_fpinit_.obj
 0001:00040b80       __cfltcvt_init             20041b80 f   LIBCMTD:_fpinit_.obj
 0001:00040bf0       ___setfflag                20041bf0 f   LIBCMTD:_fpinit_.obj
 0001:00040c10       _srand                     20041c10 f   LIBCMTD:rand.obj
 0001:00040c30       _rand                      20041c30 f   LIBCMTD:rand.obj
 0001:00040c70       @__security_check_cookie@4 20041c70 f   LIBCMTD:secchk.obj
 0001:00040c80       __ftol2_sse                20041c80 f   LIBCMTD:ftol2.obj
 0001:00040c89       __ftol2_pentium4           20041c89 f   LIBCMTD:ftol2.obj
 0001:00040c9c       __ftol2_sse_excpt          20041c9c f   LIBCMTD:ftol2.obj
 0001:00040cb6       __ftol2                    20041cb6 f   LIBCMTD:ftol2.obj
 0001:00040d30       _strcmp                    20041d30 f   LIBCMTD:strcmp.obj
 0001:00040dd0       _strchr                    20041dd0 f   LIBCMTD:strchr.obj
 0001:00040dd6       ___from_strstr_to_strchr   20041dd6     LIBCMTD:strchr.obj
 0001:00040e90       _strcpy                    20041e90 f   LIBCMTD:strcat.obj
 0001:00040ea0       _strcat                    20041ea0 f   LIBCMTD:strcat.obj
 0001:00040f90       _atol                      20041f90 f   LIBCMTD:atox.obj
 0001:00040fb0       __atol_l                   20041fb0 f   LIBCMTD:atox.obj
 0001:00040fd0       _atoi                      20041fd0 f   LIBCMTD:atox.obj
 0001:00040ff0       __atoi_l                   20041ff0 f   LIBCMTD:atox.obj
 0001:00041010       __atoi64                   20042010 f   LIBCMTD:atox.obj
 0001:00041030       __atoi64_l                 20042030 f   LIBCMTD:atox.obj
 0001:00041050       _strlen                    20042050 f   LIBCMTD:strlen.obj
 0001:000410e0       _qsort                     200420e0 f   LIBCMTD:qsort.obj
 0001:00041690       _sprintf                   20042690 f   LIBCMTD:sprintf.obj
 0001:00041830       __sprintf_l                20042830 f   LIBCMTD:sprintf.obj
 0001:00041860       _sprintf_s                 20042860 f   LIBCMTD:sprintf.obj
 0001:00041890       __sprintf_s_l              20042890 f   LIBCMTD:sprintf.obj
 0001:000418c0       __snprintf_s               200428c0 f   LIBCMTD:sprintf.obj
 0001:000418f0       __snprintf_s_l             200428f0 f   LIBCMTD:sprintf.obj
 0001:00041920       __sprintf_p                20042920 f   LIBCMTD:sprintf.obj
 0001:00041950       __sprintf_p_l              20042950 f   LIBCMTD:sprintf.obj
 0001:00041980       __scprintf                 20042980 f   LIBCMTD:sprintf.obj
 0001:000419a0       __scprintf_p               200429a0 f   LIBCMTD:sprintf.obj
 0001:000419c0       __scprintf_l               200429c0 f   LIBCMTD:sprintf.obj
 0001:000419f0       __scprintf_p_l             200429f0 f   LIBCMTD:sprintf.obj
 0001:00041a20       _ceil                      20042a20 f   LIBCMTD:_ceil_pentium4_.obj
 0001:00041a60       __ceil_pentium4            20042a60 f   LIBCMTD:_ceil_pentium4_.obj
 0001:00041b40       _floor                     20042b40 f   LIBCMTD:_floor_pentium4_.obj
 0001:00041b80       __floor_pentium4           20042b80 f   LIBCMTD:_floor_pentium4_.obj
 0001:00041c70       __CIsqrt                   20042c70 f   LIBCMTD:_sqrt_.obj
 0001:00041c84       _sqrt                      20042c84     LIBCMTD:_sqrt_.obj
 0001:00041d30       _fabs                      20042d30 f   LIBCMTD:_fabs_.obj
 0001:00041e30       _memcpy                    20042e30 f   LIBCMTD:memcpy.obj
 0001:000421a0       __vsprintf_l               200431a0 f   LIBCMTD:vsprintf.obj
 0001:00042340       _vsprintf                  20043340 f   LIBCMTD:vsprintf.obj
 0001:00042360       __vscprintf_helper         20043360 f   LIBCMTD:vsprintf.obj
 0001:00042440       __vscprintf                20043440 f   LIBCMTD:vsprintf.obj
 0001:00042460       __vscprintf_l              20043460 f   LIBCMTD:vsprintf.obj
 0001:00042480       __vscprintf_p              20043480 f   LIBCMTD:vsprintf.obj
 0001:000424a0       __vscprintf_p_l            200434a0 f   LIBCMTD:vsprintf.obj
 0001:000424c0       _free                      200434c0 f   LIBCMTD:dbgfree.obj
 0001:000424e0       _strtok                    200434e0 f   LIBCMTD:strtok.obj
 0001:00042630       __localtime64_s            20043630 f   LIBCMTD:loctim64.obj
 0001:00042b50       __invoke_watson_if_error   20043b50 f i LIBCMTD:loctim64.obj
 0001:00042b80       __localtime64              20043b80 f   LIBCMTD:loctim64.obj
 0001:00042bc0       __time64                   20043bc0 f   LIBCMTD:time64.obj
 0001:00042c40       _fwrite                    20043c40 f   LIBCMTD:fwrite.obj
 0001:00042d50       __fwrite_nolock            20043d50 f   LIBCMTD:fwrite.obj
 0001:00043120       _fread_s                   20044120 f   LIBCMTD:fread.obj
 0001:00043250       __fread_nolock_s           20044250 f   LIBCMTD:fread.obj
 0001:00043830       _fread                     20044830 f   LIBCMTD:fread.obj
 0001:00043860       __fread_nolock             20044860 f   LIBCMTD:fread.obj
 0001:00043890       _fclose                    20044890 f   LIBCMTD:fclose.obj
 0001:000439a0       __fclose_nolock            200449a0 f   LIBCMTD:fclose.obj
 0001:00043aa0       _memset                    20044aa0 f   LIBCMTD:memset.obj
 0001:00043b20       __fsopen                   20044b20 f   LIBCMTD:fopen.obj
 0001:00043d30       _fopen                     20044d30 f   LIBCMTD:fopen.obj
 0001:00043d50       _fopen_s                   20044d50 f   LIBCMTD:fopen.obj
 0001:00043df0       __atof_l                   20044df0 f   LIBCMTD:atof.obj
 0001:00043f30       ??0_LocaleUpdate@@QAE@PAUlocaleinfo_struct@@@Z 20044f30 f i LIBCMTD:atof.obj
 0001:00044010       ??1_LocaleUpdate@@QAE@XZ   20045010 f i LIBCMTD:atof.obj
 0001:00044040       ?GetLocaleT@_LocaleUpdate@@QAEPAUlocaleinfo_struct@@XZ 20045040 f i LIBCMTD:atof.obj
 0001:00044050       _atof                      20045050 f   LIBCMTD:atof.obj
 0001:00044070       ___strgtold12              20045070 f   LIBCMTD:atof.obj
 0001:000440d0       ___STRINGTOLD              200450d0 f   LIBCMTD:atof.obj
 0001:00044120       _sscanf                    20045120 f   LIBCMTD:sscanf.obj
 0001:000442b0       __sscanf_l                 200452b0 f   LIBCMTD:sscanf.obj
 0001:000442e0       _sscanf_s                  200452e0 f   LIBCMTD:sscanf.obj
 0001:00044310       __sscanf_s_l               20045310 f   LIBCMTD:sscanf.obj
 0001:00044340       _strncpy                   20045340 f   LIBCMTD:strncpy.obj
 0001:00044470       _fprintf                   20045470 f   LIBCMTD:fprintf.obj
 0001:00044710       __fprintf_l                20045710 f   LIBCMTD:fprintf.obj
 0001:00044740       __fprintf_s_l              20045740 f   LIBCMTD:fprintf.obj
 0001:00044770       _fprintf_s                 20045770 f   LIBCMTD:fprintf.obj
 0001:000447a0       __fprintf_p_l              200457a0 f   LIBCMTD:fprintf.obj
 0001:000447d0       __fprintf_p                200457d0 f   LIBCMTD:fprintf.obj
 0001:00044800       _strstr                    20045800 f   LIBCMTD:strstr.obj
 0001:00044890       _tan                       20045890 f   LIBCMTD:_tan_.obj
 0001:000448d0       __CItan                    200458d0 f   LIBCMTD:_tan_.obj
 0001:0004490b       __CItan_default            2004590b f   LIBCMTD:_tan_.obj
 0001:0004491f       __tan_default              2004591f     LIBCMTD:_tan_.obj
 0001:000449c0       _sin                       200459c0 f   LIBCMTD:_sin_.obj
 0001:00044a00       __CIsin                    20045a00 f   LIBCMTD:_sin_.obj
 0001:00044a3b       __CIsin_default            20045a3b f   LIBCMTD:_sin_.obj
 0001:00044a4f       __sin_default              20045a4f     LIBCMTD:_sin_.obj
 0001:00044af0       _cos                       20045af0 f   LIBCMTD:_cos_.obj
 0001:00044b30       __CIcos                    20045b30 f   LIBCMTD:_cos_.obj
 0001:00044b6b       __CIcos_default            20045b6b f   LIBCMTD:_cos_.obj
 0001:00044b7f       __cos_default              20045b7f     LIBCMTD:_cos_.obj
 0001:00044c20       _atan2                     20045c20 f   LIBCMTD:_87ctriga_.obj
 0001:00044c2a       __CIatan2                  20045c2a f   LIBCMTD:_87ctriga_.obj
 0001:00044c40       __chkstk                   20045c40 f   LIBCMTD:chkstk.obj
 0001:00044c40       __alloca_probe             20045c40     LIBCMTD:chkstk.obj
 0001:00044c70       _strncmp                   20045c70 f   LIBCMTD:strncmp.obj
 0001:00044df0       _abs                       20045df0 f   LIBCMTD:abs.obj
 0001:00044e20       __abs64                    20045e20 f   LIBCMTD:abs.obj
 0001:00044e70       _memcmp                    20045e70 f   LIBCMTD:memcmp.obj
 0001:000458e0       __stricmp_l                200468e0 f   LIBCMTD:stricmp.obj
 0001:00045a90       ___ascii_stricmp           20046a90 f   LIBCMTD:stricmp.obj
 0001:00045b10       __stricmp                  20046b10 f   LIBCMTD:stricmp.obj
 0001:00045c20       __CRT_INIT@12              20046c20 f   LIBCMTD:dllcrt0.obj
 0001:00045e40       __DllMainCRTStartup@12     20046e40 f   LIBCMTD:dllcrt0.obj
 0001:00046030       __setdefaultprecision      20047030 f   LIBCMTD:fp8.obj
 0001:00046070       __forcdecpt                20047070 f   LIBCMTD:cvt.obj
 0001:00046090       __forcdecpt_l              20047090 f   LIBCMTD:cvt.obj
 0001:00046150       __cropzeros                20047150 f   LIBCMTD:cvt.obj
 0001:00046170       __cropzeros_l              20047170 f   LIBCMTD:cvt.obj
 0001:00046280       __positive                 20047280 f   LIBCMTD:cvt.obj
 0001:000462b0       __fassign_l                200472b0 f   LIBCMTD:cvt.obj
 0001:00046310       __fassign                  20047310 f   LIBCMTD:cvt.obj
 0001:00046330       __cftoe_l                  20047330 f   LIBCMTD:cvt.obj
 0001:00046880       __cftoe                    20047880 f   LIBCMTD:cvt.obj
 0001:000468b0       __cftoa_l                  200478b0 f   LIBCMTD:cvt.obj
 0001:00047090       ?strrchr@@YAPADPADH@Z      20048090 f i LIBCMTD:cvt.obj
 0001:000470b0       __cftoa                    200480b0 f   LIBCMTD:cvt.obj
 0001:000470e0       __cftof_l                  200480e0 f   LIBCMTD:cvt.obj
 0001:000474f0       __cftof                    200484f0 f   LIBCMTD:cvt.obj
 0001:00047520       __cftog_l                  20048520 f   LIBCMTD:cvt.obj
 0001:00047750       __cftog                    20048750 f   LIBCMTD:cvt.obj
 0001:00047780       __cfltcvt_l                20048780 f   LIBCMTD:cvt.obj
 0001:00047840       __cfltcvt                  20048840 f   LIBCMTD:cvt.obj
 0001:000478a0       __initp_misc_cfltcvt_tab   200488a0 f   LIBCMTD:cmiscdat.obj
 0001:000478e0       __encoded_null             200488e0 f   LIBCMTD:tidtable.obj
 0001:000478f0       ___crtTlsAlloc@4           200488f0 f   LIBCMTD:tidtable.obj
 0001:00047900       ___fls_getvalue@4          20048900 f   LIBCMTD:tidtable.obj
 0001:00047920       ___get_flsindex            20048920 f   LIBCMTD:tidtable.obj
 0001:00047930       ___set_flsgetvalue         20048930 f   LIBCMTD:tidtable.obj
 0001:00047980       ___fls_setvalue@8          20048980 f   LIBCMTD:tidtable.obj
 0001:000479a0       __mtinit                   200489a0 f   LIBCMTD:tidtable.obj
 0001:00047ba0       __mtterm                   20048ba0 f   LIBCMTD:tidtable.obj
 0001:00047c00       __initptd                  20048c00 f   LIBCMTD:tidtable.obj
 0001:00047d30       __getptd_noexit            20048d30 f   LIBCMTD:tidtable.obj
 0001:00047df0       __getptd                   20048df0 f   LIBCMTD:tidtable.obj
 0001:00047e20       __freefls@4                20048e20 f   LIBCMTD:tidtable.obj
 0001:00048030       __freeptd                  20049030 f   LIBCMTD:tidtable.obj
 0001:000480b0       ___threadid                200490b0 f   LIBCMTD:tidtable.obj
 0001:000480c0       ___threadhandle            200490c0 f   LIBCMTD:tidtable.obj
 0001:000480d0       ___report_gsfailure        200490d0 f   LIBCMTD:gs_report.obj
 0001:000481e0       ___sse2_available_init     200491e0 f   LIBCMTD:cpu_disp.obj
 0001:00048200       _strtol                    20049200 f   LIBCMTD:strtol.obj
 0001:00048730       __strtol_l                 20049730 f   LIBCMTD:strtol.obj
 0001:00048760       _strtoul                   20049760 f   LIBCMTD:strtol.obj
 0001:000487b0       __strtoul_l                200497b0 f   LIBCMTD:strtol.obj
 0001:000487e0       __strtoi64                 200497e0 f   LIBCMTD:strtoq.obj
 0001:00048d50       __strtoi64_l               20049d50 f   LIBCMTD:strtoq.obj
 0001:00048d80       __strtoui64                20049d80 f   LIBCMTD:strtoq.obj
 0001:00048dd0       __strtoui64_l              20049dd0 f   LIBCMTD:strtoq.obj
 0001:00048e00       __initp_misc_invarg        20049e00 f   LIBCMTD:invarg.obj
 0001:00048e10       __invalid_parameter        20049e10 f   LIBCMTD:invarg.obj
 0001:00048e70       __invoke_watson            20049e70 f   LIBCMTD:invarg.obj
 0001:00048ea0       __call_reportfault         20049ea0 f   LIBCMTD:invarg.obj
 0001:00048ff0       __set_invalid_parameter_handler 20049ff0 f   LIBCMTD:invarg.obj
 0001:00049030       __get_invalid_parameter_handler 2004a030 f   LIBCMTD:invarg.obj
 0001:00049060       ?_invalid_parameter@@YAXPBG00II@Z 2004a060 f   LIBCMTD:invarg.obj
 0001:00049090       ?_invoke_watson@@YAXPBG00II@Z 2004a090 f   LIBCMTD:invarg.obj
 0001:000490b0       __dosmaperr                2004a0b0 f   LIBCMTD:dosmap.obj
 0001:000490e0       __get_errno_from_oserr     2004a0e0 f   LIBCMTD:dosmap.obj
 0001:00049160       __set_errno                2004a160 f   LIBCMTD:dosmap.obj
 0001:00049190       __get_errno                2004a190 f   LIBCMTD:dosmap.obj
 0001:00049210       __set_doserrno             2004a210 f   LIBCMTD:dosmap.obj
 0001:00049240       __get_doserrno             2004a240 f   LIBCMTD:dosmap.obj
 0001:000492c0       __errno                    2004a2c0 f   LIBCMTD:dosmap.obj
 0001:000492f0       ___doserrno                2004a2f0 f   LIBCMTD:dosmap.obj
 0001:00049320       __CrtSetReportHookW2       2004a320 f   LIBCMTD:dbgrptw.obj
 0001:00049650       __CrtDbgReportW            2004a650 f   LIBCMTD:dbgrptw.obj
 0001:00049690       __CrtDbgReportWV           2004a690 f i LIBCMTD:dbgrptw.obj
 0001:000496c0       ___crtMessageWindowW       2004a6c0 f   LIBCMTD:dbgrptw.obj
 0001:00049ac0       __invoke_watson_if_oneof   2004aac0 f i LIBCMTD:dbgrptw.obj
 0001:00049b00       ?_CrtDbgReportW@@YAHHPBGH00ZZ 2004ab00 f   LIBCMTD:dbgrptw.obj
 0001:00049b40       __flsbuf                   2004ab40 f   LIBCMTD:_flsbuf.obj
 0001:00049e00       __output_l                 2004ae00 f   LIBCMTD:output.obj
 0001:0004b270       _get_int_arg               2004c270 f i LIBCMTD:output.obj
 0001:0004b290       _get_int64_arg             2004c290 f i LIBCMTD:output.obj
 0001:0004b2b0       _get_short_arg             2004c2b0 f i LIBCMTD:output.obj
 0001:0004b2d0       __vsnprintf_helper         2004c2d0 f   LIBCMTD:vsnprnc.obj
 0001:0004b4c0       __vsnprintf_c              2004c4c0 f   LIBCMTD:vsnprnc.obj
 0001:0004b510       __vsnprintf_c_l            2004c510 f   LIBCMTD:vsnprnc.obj
 0001:0004b560       __vsprintf_s_l             2004c560 f   LIBCMTD:vsnprnc.obj
 0001:0004b7d0       _vsprintf_s                2004c7d0 f   LIBCMTD:vsnprnc.obj
 0001:0004b800       __vsnprintf_s_l            2004c800 f   LIBCMTD:vsnprnc.obj
 0001:0004bba0       __vsnprintf_s              2004cba0 f   LIBCMTD:vsnprnc.obj
 0001:0004bbd0       __vsprintf_p               2004cbd0 f   LIBCMTD:vsnprnc.obj
 0001:0004bc20       __vsprintf_p_l             2004cc20 f   LIBCMTD:vsnprnc.obj
 0001:0004bc70       ___libm_setusermatherr     2004cc70 f   LIBCMTD:_libm_error_.obj
 0001:0004bcb0       ___libm_error_support      2004ccb0 f   LIBCMTD:_libm_error_.obj
 0001:0004c7e0       __set_SSE2_enable          2004d7e0 f   LIBCMTD:_mathfcns_.obj
 0001:0004c800       __sse2_mathfcns_init       2004d800 f   LIBCMTD:_mathfcns_.obj
 0001:0004c820       __ceil_default             2004d820 f   LIBCMTD:_ceil_.obj
 0001:0004c960       __floor_default            2004d960 f   LIBCMTD:_floor_.obj
 0001:0004caa0       __trandisp1                2004daa0 f   LIBCMTD:_87disp_.obj
 0001:0004cb07       __trandisp2                2004db07 f   LIBCMTD:_87disp_.obj
 0001:0004cb93       __rttospopde               2004db93     LIBCMTD:_87disp_.obj
 0001:0004cb98       __rttospop                 2004db98     LIBCMTD:_87disp_.obj
 0001:0004cb9a       __rtnospop                 2004db9a     LIBCMTD:_87disp_.obj
 0001:0004cb9c       __rttosnpop                2004db9c     LIBCMTD:_87disp_.obj
 0001:0004cb9d       __rtnospopde               2004db9d     LIBCMTD:_87disp_.obj
 0001:0004cba4       __rtzeropop                2004dba4     LIBCMTD:_87disp_.obj
 0001:0004cba6       __rtzeronpop               2004dba6     LIBCMTD:_87disp_.obj
 0001:0004cbab       __rtonepop                 2004dbab     LIBCMTD:_87disp_.obj
 0001:0004cbad       __rtonenpop                2004dbad     LIBCMTD:_87disp_.obj
 0001:0004cbb2       __tosnan1                  2004dbb2     LIBCMTD:_87disp_.obj
 0001:0004cbdd       __nosnan2                  2004dbdd     LIBCMTD:_87disp_.obj
 0001:0004cbdf       __tosnan2                  2004dbdf     LIBCMTD:_87disp_.obj
 0001:0004cc07       __nan2                     2004dc07     LIBCMTD:_87disp_.obj
 0001:0004cc46       __rtindfpop                2004dc46     LIBCMTD:_87disp_.obj
 0001:0004cc48       __rtindfnpop               2004dc48     LIBCMTD:_87disp_.obj
 0001:0004cc59       __rttosnpopde              2004dc59     LIBCMTD:_87disp_.obj
 0001:0004cc63       __rtchsifneg               2004dc63     LIBCMTD:_87disp_.obj
 0001:0004cc70       __startTwoArgErrorHandling 2004dc70 f   LIBCMTD:_genexcep_.obj
 0001:0004cc87       __startOneArgErrorHandling 2004dc87 f   LIBCMTD:_genexcep_.obj
 0001:0004ccd0       __twoToTOS                 2004dcd0 f   LIBCMTD:_common_.obj
 0001:0004cce5       __load_CW                  2004dce5 f   LIBCMTD:_common_.obj
 0001:0004ccfc       __convertTOStoQNaN         2004dcfc f   LIBCMTD:_common_.obj
 0001:0004cd15       __fload_withFB             2004dd15 f   LIBCMTD:_common_.obj
 0001:0004cd58       __checkTOS_withFB          2004dd58 f   LIBCMTD:_common_.obj
 0001:0004cd6e       __fast_exit                2004dd6e f   LIBCMTD:_common_.obj
 0001:0004cd7b       __math_exit                2004dd7b f   LIBCMTD:_common_.obj
 0001:0004cda5       __check_overflow_exit      2004dda5 f   LIBCMTD:_common_.obj
 0001:0004cdb9       __check_range_exit         2004ddb9 f   LIBCMTD:_common_.obj
 0001:0004ce60       __handle_qnan1             2004de60 f   LIBCMTD:_fpexcept_.obj
 0001:0004cec0       __handle_qnan2             2004dec0 f   LIBCMTD:_fpexcept_.obj
 0001:0004cf30       __except1                  2004df30 f   LIBCMTD:_fpexcept_.obj
 0001:0004d030       __except2                  2004e030 f   LIBCMTD:_fpexcept_.obj
 0001:0004d140       __raise_exc_ex             2004e140 f   LIBCMTD:_fpexcept_.obj
 0001:0004d670       __raise_exc                2004e670 f   LIBCMTD:_fpexcept_.obj
 0001:0004d6a0       __raise_excf               2004e6a0 f   LIBCMTD:_fpexcept_.obj
 0001:0004d6d0       __handle_exc               2004e6d0 f   LIBCMTD:_fpexcept_.obj
 0001:0004d9e0       __umatherr                 2004e9e0 f   LIBCMTD:_fpexcept_.obj
 0001:0004da80       __set_errno_from_matherr   2004ea80 f   LIBCMTD:_fpexcept_.obj
 0001:0004db10       __errcode                  2004eb10 f   LIBCMTD:_fpexcept_.obj
 0001:0004db80       __set_exp                  2004eb80 f   LIBCMTD:_util_.obj
 0001:0004dbc0       __get_exp                  2004ebc0 f   LIBCMTD:_util_.obj
 0001:0004dbf0       __add_exp                  2004ebf0 f   LIBCMTD:_util_.obj
 0001:0004dc30       __set_bexp                 2004ec30 f   LIBCMTD:_util_.obj
 0001:0004dc60       __sptype                   2004ec60 f   LIBCMTD:_util_.obj
 0001:0004dce0       __decomp                   2004ece0 f   LIBCMTD:_util_.obj
 0001:0004de10       __statfp                   2004ee10 f   LIBCMTD:_fpctrl_.obj
 0001:0004de30       __clrfp                    2004ee30 f   LIBCMTD:_fpctrl_.obj
 0001:0004de50       __ctrlfp                   2004ee50 f   LIBCMTD:_fpctrl_.obj
 0001:0004de80       __set_statfp               2004ee80 f   LIBCMTD:_fpctrl_.obj
 0001:0004def0       ___get_fpsr_sse2           2004eef0 f   LIBCMTD:_fpctrl_.obj
 0001:0004df20       ___set_fpsr_sse2           2004ef20 f   LIBCMTD:_fpctrl_.obj
 0001:0004e000       ___fclrf_sse2              2004f000 f   LIBCMTD:_fpctrl_.obj
 0001:0004e020       ___statfp_sse2             2004f020 f   LIBCMTD:_fpctrl_.obj
 0001:0004e050       ___clrfp_sse2              2004f050 f   LIBCMTD:_fpctrl_.obj
 0001:0004e090       ___ctrlfp_sse2             2004f090 f   LIBCMTD:_fpctrl_.obj
 0001:0004e0f0       ___set_statfp_sse2         2004f0f0 f   LIBCMTD:_fpctrl_.obj
 0001:0004e120       __VEC_memcpy               2004f120 f   LIBCMTD:p4_memcpy.obj
 0001:0004e230       __validate_param_reuseA    2004f230 f   LIBCMTD:outputp.obj
 0001:0004e4a0       __output_p_l               2004f4a0 f   LIBCMTD:outputp.obj
 0001:000520b0       _get_crtdouble_arg         200530b0 f i LIBCMTD:outputp.obj
 0001:000520d0       __malloc_dbg               200530d0 f   LIBCMTD:dbgheap.obj
 0001:00052100       __nh_malloc                20053100 f   LIBCMTD:dbgheap.obj
 0001:00052120       __nh_malloc_dbg            20053120 f   LIBCMTD:dbgheap.obj
 0001:00052200       __heap_alloc               20053200 f   LIBCMTD:dbgheap.obj
 0001:000525e0       __heap_alloc_dbg           200535e0 f   LIBCMTD:dbgheap.obj
 0001:00052640       __calloc_dbg_impl          20053640 f   LIBCMTD:dbgheap.obj
 0001:000526c0       __calloc_dbg               200536c0 f   LIBCMTD:dbgheap.obj
 0001:00052720       __recalloc                 20053720 f   LIBCMTD:dbgheap.obj
 0001:00052750       __realloc_dbg              20053750 f   LIBCMTD:dbgheap.obj
 0001:00052df0       __recalloc_dbg             20053df0 f   LIBCMTD:dbgheap.obj
 0001:00052ea0       __expand                   20053ea0 f   LIBCMTD:dbgheap.obj
 0001:00052ed0       __expand_dbg               20053ed0 f   LIBCMTD:dbgheap.obj
 0001:00052fe0       __free_nolock              20053fe0 f   LIBCMTD:dbgheap.obj
 0001:00053000       __free_dbg                 20054000 f   LIBCMTD:dbgheap.obj
 0001:00053080       __free_dbg_nolock          20054080 f   LIBCMTD:dbgheap.obj
 0001:00053560       __msize                    20054560 f   LIBCMTD:dbgheap.obj
 0001:00053580       __msize_dbg                20054580 f   LIBCMTD:dbgheap.obj
 0001:00053770       __CrtSetBreakAlloc         20054770 f   LIBCMTD:dbgheap.obj
 0001:00053790       __CrtSetDbgBlockType       20054790 f   LIBCMTD:dbgheap.obj
 0001:00053880       __CrtSetAllocHook          20054880 f   LIBCMTD:dbgheap.obj
 0001:000538a0       __CrtGetAllocHook          200548a0 f   LIBCMTD:dbgheap.obj
 0001:000538f0       __CrtCheckMemory           200548f0 f   LIBCMTD:dbgheap.obj
 0001:00053d50       __CrtSetDbgFlag            20054d50 f   LIBCMTD:dbgheap.obj
 0001:00053ea0       __CrtDoForAllClientObjects 20054ea0 f   LIBCMTD:dbgheap.obj
 0001:00053fc0       __CrtIsValidPointer        20054fc0 f   LIBCMTD:dbgheap.obj
 0001:00053fd0       __CrtIsValidHeapPointer    20054fd0 f   LIBCMTD:dbgheap.obj
 0001:00054020       __CrtIsMemoryBlock         20055020 f   LIBCMTD:dbgheap.obj
 0001:00054190       __CrtReportBlockType       20055190 f   LIBCMTD:dbgheap.obj
 0001:000541c0       __CrtSetDumpClient         200551c0 f   LIBCMTD:dbgheap.obj
 0001:000541e0       __CrtGetDumpClient         200551e0 f   LIBCMTD:dbgheap.obj
 0001:000541f0       __CrtMemCheckpoint         200551f0 f   LIBCMTD:dbgheap.obj
 0001:00054410       __CrtMemDifference         20055410 f   LIBCMTD:dbgheap.obj
 0001:00054630       __CrtMemDumpAllObjectsSince 20055630 f   LIBCMTD:dbgheap.obj
 0001:00054b20       __CrtDumpMemoryLeaks       20055b20 f   LIBCMTD:dbgheap.obj
 0001:00054ba0       __CrtMemDumpStatistics     20055ba0 f   LIBCMTD:dbgheap.obj
 0001:00054cb0       __aligned_malloc           20055cb0 f   LIBCMTD:dbgheap.obj
 0001:00054cd0       __aligned_malloc_dbg       20055cd0 f   LIBCMTD:dbgheap.obj
 0001:00054d00       __aligned_realloc          20055d00 f   LIBCMTD:dbgheap.obj
 0001:00054d30       __aligned_recalloc         20055d30 f   LIBCMTD:dbgheap.obj
 0001:00054d60       __aligned_realloc_dbg      20055d60 f   LIBCMTD:dbgheap.obj
 0001:00054d90       __aligned_recalloc_dbg     20055d90 f   LIBCMTD:dbgheap.obj
 0001:00054dc0       __aligned_offset_malloc    20055dc0 f   LIBCMTD:dbgheap.obj
 0001:00054de0       __aligned_offset_malloc_dbg 20055de0 f   LIBCMTD:dbgheap.obj
 0001:00054fa0       __aligned_offset_realloc   20055fa0 f   LIBCMTD:dbgheap.obj
 0001:00054fd0       __aligned_offset_recalloc  20055fd0 f   LIBCMTD:dbgheap.obj
 0001:00055000       __aligned_offset_realloc_dbg 20056000 f   LIBCMTD:dbgheap.obj
 0001:000552f0       __aligned_offset_recalloc_dbg 200562f0 f   LIBCMTD:dbgheap.obj
 0001:000553b0       __aligned_free             200563b0 f   LIBCMTD:dbgheap.obj
 0001:000553d0       __aligned_free_dbg         200563d0 f   LIBCMTD:dbgheap.obj
 0001:00055480       __CrtSetDebugFillThreshold 20056480 f   LIBCMTD:dbgheap.obj
 0001:000554a0       __CrtSetCheckCount         200564a0 f   LIBCMTD:dbgheap.obj
 0001:000554c0       __CrtGetCheckCount         200564c0 f   LIBCMTD:dbgheap.obj
 0001:000554d0       __aligned_msize            200564d0 f   LIBCMTD:dbgheap.obj
 0001:000554f0       __aligned_msize_dbg        200564f0 f   LIBCMTD:dbgheap.obj
 0001:00055600       ___tzset                   20056600 f   LIBCMTD:tzset.obj
 0001:000556a0       __tzset                    200566a0 f   LIBCMTD:tzset.obj
 0001:00055c50       __set_daylight             20056c50 f i LIBCMTD:tzset.obj
 0001:00055c70       __set_dstbias              20056c70 f i LIBCMTD:tzset.obj
 0001:00055c90       __set_timezone             20056c90 f i LIBCMTD:tzset.obj
 0001:00055cb0       __isindst                  20056cb0 f   LIBCMTD:tzset.obj
 0001:00056360       __gmtime64_s               20057360 f   LIBCMTD:gmtime64.obj
 0001:00056760       __gmtime64                 20057760 f   LIBCMTD:gmtime64.obj
 0001:000567a0       __get_daylight             200577a0 f   LIBCMTD:timeset.obj
 0001:00056820       __get_dstbias              20057820 f   LIBCMTD:timeset.obj
 0001:000568a0       __get_timezone             200578a0 f   LIBCMTD:timeset.obj
 0001:00056920       __get_tzname               20057920 f   LIBCMTD:timeset.obj
 0001:00056af0       ___daylight                20057af0 f   LIBCMTD:timeset.obj
 0001:00056b00       ___dstbias                 20057b00 f   LIBCMTD:timeset.obj
 0001:00056b10       ___timezone                20057b10 f   LIBCMTD:timeset.obj
 0001:00056b20       ___tzname                  20057b20 f   LIBCMTD:timeset.obj
 0001:00056b30       __alldiv                   20057b30 f   LIBCMTD:lldiv.obj
 0001:00056be0       __allrem                   20057be0 f   LIBCMTD:llrem.obj
 0001:00056ca0       __gmtime32_s               20057ca0 f   LIBCMTD:gmtime.obj
 0001:00056f60       ___getgmtimebuf            20057f60 f   LIBCMTD:gmtime.obj
 0001:00056fe0       __gmtime32                 20057fe0 f   LIBCMTD:gmtime.obj
 0001:00057020       __aulldiv                  20058020 f   LIBCMTD:ulldiv.obj
 0001:00057090       ___iob_func                20058090 f   LIBCMTD:_file.obj
 0001:000570a0       ___initstdio               200580a0 f   LIBCMTD:_file.obj
 0001:000571f0       ___endstdio                200581f0 f   LIBCMTD:_file.obj
 0001:00057220       __lock_file                20058220 f   LIBCMTD:_file.obj
 0001:00057280       __lock_file2               20058280 f   LIBCMTD:_file.obj
 0001:000572c0       __unlock_file              200582c0 f   LIBCMTD:_file.obj
 0001:00057320       __unlock_file2             20058320 f   LIBCMTD:_file.obj
 0001:00057360       __except_handler4          20058360 f   LIBCMTD:chandler4.obj
 0001:00057580       __write                    20058580 f   LIBCMTD:write.obj
 0001:000577b0       __write_nolock             200587b0 f   LIBCMTD:write.obj
 0001:000582f0       __fileno                   200592f0 f   LIBCMTD:fileno.obj
 0001:00058370       _fflush                    20059370 f   LIBCMTD:fflush.obj
 0001:00058410       __fflush_nolock            20059410 f   LIBCMTD:fflush.obj
 0001:00058470       __flush                    20059470 f   LIBCMTD:fflush.obj
 0001:00058530       __flushall                 20059530 f   LIBCMTD:fflush.obj
 0001:00058700       __filbuf                   20059700 f   LIBCMTD:_filbuf.obj
 0001:00058950       __read                     20059950 f   LIBCMTD:read.obj
 0001:00058be0       __read_nolock              20059be0 f   LIBCMTD:read.obj
 0001:00059b30       _memcpy_s                  2005ab30 f   LIBCMTD:memcpy_s.obj
 0001:00059cc0       __close                    2005acc0 f   LIBCMTD:close.obj
 0001:00059ed0       __close_nolock             2005aed0 f   LIBCMTD:close.obj
 0001:00059fa0       __freebuf                  2005afa0 f   LIBCMTD:_freebuf.obj
 0001:0005a030       __VEC_memzero              2005b030 f   LIBCMTD:p4_memset.obj
 0001:0005a0f0       __openfile                 2005b0f0 f   LIBCMTD:_open.obj
 0001:0005a8b0       __getstream                2005b8b0 f   LIBCMTD:stream.obj
 0001:0005ab10       __local_unwind4            2005bb10 f   LIBCMTD:exsup4.obj
 0001:0005abe6       __seh_longjmp_unwind4@4    2005bbe6 f   LIBCMTD:exsup4.obj
 0001:0005ac02       @_EH4_CallFilterFunc@8     2005bc02 f   LIBCMTD:exsup4.obj
 0001:0005ac19       @_EH4_TransferToHandler@8  2005bc19 f   LIBCMTD:exsup4.obj
 0001:0005ac32       @_EH4_GlobalUnwind2@8      2005bc32 f   LIBCMTD:exsup4.obj
 0001:0005ac4b       @_EH4_LocalUnwind@16       2005bc4b f   LIBCMTD:exsup4.obj
 0001:0005ac70       __fltin2                   2005bc70 f   LIBCMTD:_cfin_.obj
 0001:0005ad50       __chvalidator              2005bd50 f   LIBCMTD:isctype.obj
 0001:0005ada0       __chvalidator_l            2005bda0 f   LIBCMTD:isctype.obj
 0001:0005ae50       __isctype_l                2005be50 f   LIBCMTD:isctype.obj
 0001:0005af70       __isctype                  2005bf70 f   LIBCMTD:isctype.obj
 0001:0005afb0       ___updatetmbcinfo          2005bfb0 f   LIBCMTD:mbctype.obj
 0001:0005b0c0       __setmbcp                  2005c0c0 f   LIBCMTD:mbctype.obj
 0001:0005b470       __setmbcp_nolock           2005c470 f   LIBCMTD:mbctype.obj
 0001:0005bc60       __getmbcp                  2005cc60 f   LIBCMTD:mbctype.obj
 0001:0005bcd0       ___initmbctable            2005ccd0 f   LIBCMTD:mbctype.obj
 0001:0005bd00       ___addlocaleref            2005cd00 f   LIBCMTD:localref.obj
 0001:0005be20       ___removelocaleref         2005ce20 f   LIBCMTD:localref.obj
 0001:0005bf50       ___freetlocinfo            2005cf50 f   LIBCMTD:localref.obj
 0001:0005c230       __updatetlocinfoEx_nolock  2005d230 f   LIBCMTD:localref.obj
 0001:0005c2b0       ___updatetlocinfo          2005d2b0 f   LIBCMTD:localref.obj
 0001:0005c380       ___strgtold12_l            2005d380 f   LIBCMTD:_strgtold_.obj
 0001:0005ce30       ___multtenpow12            2005de30 f i LIBCMTD:_strgtold_.obj
 0001:0005cf10       ___ld12mul                 2005df10 f i LIBCMTD:_strgtold_.obj
 0001:0005d310       ___addl                    2005e310 f i LIBCMTD:_strgtold_.obj
 0001:0005d350       ___shl_12                  2005e350 f i LIBCMTD:_strgtold_.obj
 0001:0005d3c0       ___shr_12                  2005e3c0 f i LIBCMTD:_strgtold_.obj
 0001:0005d430       ___STRINGTOLD_L            2005e430 f   LIBCMTD:_strgtold_.obj
 0001:0005d4a0       __input_l                  2005e4a0 f   LIBCMTD:input.obj
 0001:0005ed20       __INTRN_LOCALE_CONV        2005fd20 f i LIBCMTD:input.obj
 0001:0005ee50       __input_s_l                2005fe50 f   LIBCMTD:inputs.obj
 0001:00060b90       __stbuf                    20061b90 f   LIBCMTD:_sftbuf.obj
 0001:00060cf0       __ftbuf                    20061cf0 f   LIBCMTD:_sftbuf.obj
 0001:00060d80       __ioinit                   20061d80 f   LIBCMTD:ioinit.obj
 0001:00061190       __ioterm                   20062190 f   LIBCMTD:ioinit.obj
 0001:00061230       _vfprintf_helper           20062230 f   LIBCMTD:vfprintf.obj
 0001:000614d0       __vfprintf_l               200624d0 f   LIBCMTD:vfprintf.obj
 0001:00061500       __vfprintf_s_l             20062500 f   LIBCMTD:vfprintf.obj
 0001:00061530       __vfprintf_p_l             20062530 f   LIBCMTD:vfprintf.obj
 0001:00061560       _vfprintf                  20062560 f   LIBCMTD:vfprintf.obj
 0001:00061590       _vfprintf_s                20062590 f   LIBCMTD:vfprintf.obj
 0001:000615c0       __vfprintf_p               200625c0 f   LIBCMTD:vfprintf.obj
 0001:000615f0       __CItan_pentium4           200625f0 f   LIBCMTD:_tan_pentium4_.obj
 0001:00061608       __tan_pentium4             20062608     LIBCMTD:_tan_pentium4_.obj
 0001:00061850       __CIsin_pentium4           20062850 f   LIBCMTD:_sin_pentium4_.obj
 0001:00061868       __sin_pentium4             20062868     LIBCMTD:_sin_pentium4_.obj
 0001:00061a20       __CIcos_pentium4           20062a20 f   LIBCMTD:_cos_pentium4_.obj
 0001:00061a38       __cos_pentium4             20062a38     LIBCMTD:_cos_pentium4_.obj
 0001:00061bec       __fFATN2                   20062bec     LIBCMTD:_87triga_.obj
 0001:00061c3c       __rtpiby2                  20062c3c     LIBCMTD:_87triga_.obj
 0001:00061c80       __cintrindisp2             20062c80 f   LIBCMTD:_87cdisp_.obj
 0001:00061cbe       __cintrindisp1             20062cbe f   LIBCMTD:_87cdisp_.obj
 0001:00061cfb       __ctrandisp2               20062cfb f   LIBCMTD:_87cdisp_.obj
 0001:00061e8a       __ctrandisp1               20062e8a f   LIBCMTD:_87cdisp_.obj
 0001:00061ebd       __fload                    20062ebd f   LIBCMTD:_87cdisp_.obj
 0001:00061f00       __tolower                  20062f00 f   LIBCMTD:tolower.obj
 0001:00061f10       __tolower_l                20062f10 f   LIBCMTD:tolower.obj
 0001:000620f0       _tolower                   200630f0 f   LIBCMTD:tolower.obj
 0001:00062140       ____setlc_active_func      20063140 f   LIBCMTD:setlocal.obj
 0001:00062150       ____unguarded_readlc_active_add_func 20063150 f   LIBCMTD:setlocal.obj
 0001:00062160       __configthreadlocale       20063160 f   LIBCMTD:setlocal.obj
 0001:00062270       __locterm                  20063270 f   LIBCMTD:setlocal.obj
 0001:00062310       __free_locale              20063310 f   LIBCMTD:setlocal.obj
 0001:00062450       ___free_locale             20063450 f   LIBCMTD:setlocal.obj
 0001:00062470       __create_locale            20063470 f   LIBCMTD:setlocal.obj
 0001:000626a0       ___create_locale           200636a0 f   LIBCMTD:setlocal.obj
 0001:000626c0       __get_current_locale       200636c0 f   LIBCMTD:setlocal.obj
 0001:000627e0       ___get_current_locale      200637e0 f   LIBCMTD:setlocal.obj
 0001:000627f0       _setlocale                 200637f0 f   LIBCMTD:setlocal.obj
 0001:000636a0       __expandlocale             200646a0 f   LIBCMTD:setlocal.obj
 0001:00063950       ___init_dummy              20064950 f   LIBCMTD:setlocal.obj
 0001:00063960       __strcats                  20064960 f   LIBCMTD:setlocal.obj
 0001:000639e0       ___lc_strtolc              200649e0 f   LIBCMTD:setlocal.obj
 0001:00063be0       ___lc_lctostr              20064be0 f   LIBCMTD:setlocal.obj
 0001:00063c80       __cinit                    20064c80 f   LIBCMTD:crt0dat.obj
 0001:00063d20       _exit                      20064d20 f   LIBCMTD:crt0dat.obj
 0001:00063d40       __exit                     20064d40 f   LIBCMTD:crt0dat.obj
 0001:00063d60       __cexit                    20064d60 f   LIBCMTD:crt0dat.obj
 0001:00063d80       __c_exit                   20064d80 f   LIBCMTD:crt0dat.obj
 0001:00063da0       __amsg_exit                20064da0 f   LIBCMTD:crt0dat.obj
 0001:00063dd0       ___freeCrtMemory           20064dd0 f   LIBCMTD:crt0dat.obj
 0001:00064110       ___crtCorExitProcess       20065110 f   LIBCMTD:crt0dat.obj
 0001:00064150       ___crtExitProcess          20065150 f   LIBCMTD:crt0dat.obj
 0001:00064170       __lockexit                 20065170 f   LIBCMTD:crt0dat.obj
 0001:00064190       __unlockexit               20065190 f   LIBCMTD:crt0dat.obj
 0001:000641b0       __init_pointers            200651b0 f   LIBCMTD:crt0dat.obj
 0001:00064240       __initterm_e               20065240 f   LIBCMTD:crt0dat.obj
 0001:00064280       __get_wpgmptr              20065280 f   LIBCMTD:crt0dat.obj
 0001:00064370       __get_pgmptr               20065370 f   LIBCMTD:crt0dat.obj
 0001:00064460       __setenvp                  20065460 f   LIBCMTD:stdenvp.obj
 0001:00064600       __setargv                  20065600 f   LIBCMTD:stdargv.obj
 0001:00064720       __set_pgmptr               20065720 f i LIBCMTD:stdargv.obj
 0001:00064a90       ___crtGetEnvironmentStringsA 20065a90 f   LIBCMTD:a_env.obj
 0001:00064b90       __RTC_Initialize           20065b90 f   LIBCMTD:_initsect_.obj
 0001:00064bc0       __RTC_Terminate            20065bc0 f   LIBCMTD:_initsect_.obj
 0001:00064bf0       __heap_init                20065bf0 f   LIBCMTD:heapinit.obj
 0001:00064c30       __heap_term                20065c30 f   LIBCMTD:heapinit.obj
 0001:00064c50       __get_heap_handle          20065c50 f   LIBCMTD:heapinit.obj
 0001:00064c90       ___security_init_cookie    20065c90 f   LIBCMTD:gs_support.obj
 0001:00064d70       ___CppXcptFilter           20065d70 f   LIBCMTD:winxfltr.obj
 0001:00064da0       __XcptFilter               20065da0 f   LIBCMTD:winxfltr.obj
 0001:00065000       _DllMain@12                20066000 f   LIBCMTD:dllmain.obj
 0001:00065010       __controlfp_s              20066010 f   LIBCMTD:_contrlfp_.obj
 0001:000650f0       __isalpha_l                200660f0 f i LIBCMTD:_ctype.obj
 0001:00065180       _isalpha                   20066180 f i LIBCMTD:_ctype.obj
 0001:000651c0       __isupper_l                200661c0 f i LIBCMTD:_ctype.obj
 0001:00065240       _isupper                   20066240 f i LIBCMTD:_ctype.obj
 0001:00065270       __islower_l                20066270 f i LIBCMTD:_ctype.obj
 0001:000652f0       _islower                   200662f0 f i LIBCMTD:_ctype.obj
 0001:00065320       __isdigit_l                20066320 f i LIBCMTD:_ctype.obj
 0001:000653a0       _isdigit                   200663a0 f i LIBCMTD:_ctype.obj
 0001:000653d0       __isxdigit_l               200663d0 f i LIBCMTD:_ctype.obj
 0001:00065460       _isxdigit                  20066460 f i LIBCMTD:_ctype.obj
 0001:000654a0       __isspace_l                200664a0 f i LIBCMTD:_ctype.obj
 0001:00065520       _isspace                   20066520 f i LIBCMTD:_ctype.obj
 0001:00065550       __ispunct_l                20066550 f i LIBCMTD:_ctype.obj
 0001:000655d0       _ispunct                   200665d0 f i LIBCMTD:_ctype.obj
 0001:00065600       __isalnum_l                20066600 f i LIBCMTD:_ctype.obj
 0001:00065690       _isalnum                   20066690 f i LIBCMTD:_ctype.obj
 0001:000656d0       __isprint_l                200666d0 f i LIBCMTD:_ctype.obj
 0001:00065760       _isprint                   20066760 f i LIBCMTD:_ctype.obj
 0001:000657a0       __isgraph_l                200667a0 f i LIBCMTD:_ctype.obj
 0001:00065830       _isgraph                   20066830 f i LIBCMTD:_ctype.obj
 0001:00065870       __iscntrl_l                20066870 f i LIBCMTD:_ctype.obj
 0001:000658f0       _iscntrl                   200668f0 f i LIBCMTD:_ctype.obj
 0001:00065920       ___isascii                 20066920 f i LIBCMTD:_ctype.obj
 0001:00065940       ___toascii                 20066940 f i LIBCMTD:_ctype.obj
 0001:00065950       __iscsymf_l                20066950 f i LIBCMTD:_ctype.obj
 0001:00065990       ___iscsymf                 20066990 f i LIBCMTD:_ctype.obj
 0001:000659d0       __iscsym_l                 200669d0 f i LIBCMTD:_ctype.obj
 0001:00065a10       ___iscsym                  20066a10 f i LIBCMTD:_ctype.obj
 0001:00065a50       __atodbl_l                 20066a50 f   LIBCMTD:atodbl.obj
 0001:00065b60       __atodbl                   20066b60 f   LIBCMTD:atodbl.obj
 0001:00065b80       __atoldbl_l                20066b80 f   LIBCMTD:atodbl.obj
 0001:00065c90       __atoldbl                  20066c90 f   LIBCMTD:atodbl.obj
 0001:00065cb0       __atoflt_l                 20066cb0 f   LIBCMTD:atodbl.obj
 0001:00065dc0       __atoflt                   20066dc0 f   LIBCMTD:atodbl.obj
 0001:00065de0       __fptostr                  20066de0 f   LIBCMTD:_fptostr.obj
 0001:00066090       __fltout2                  20067090 f   LIBCMTD:_cfout_.obj
 0001:00066140       ___dtold                   20067140 f   LIBCMTD:_cfout_.obj
 0001:000662a0       _memmove                   200672a0 f   LIBCMTD:memmove.obj
 0001:00066610       __set_output_format        20067610 f   LIBCMTD:outputformat.obj
 0001:00066690       __get_output_format        20067690 f   LIBCMTD:outputformat.obj
 0001:000666a0       _strcpy_s                  200676a0 f   LIBCMTD:strcpy_s.obj
 0001:00066980       __allshl                   20067980 f   LIBCMTD:llshl.obj
 0001:000669a0       __aullshr                  200679a0 f   LIBCMTD:ullshr.obj
 0001:000669c0       _strrchr                   200679c0 f   LIBCMTD:strrchr.obj
 0001:000669f0       __fptrap                   200679f0 f   LIBCMTD:crt0fp.obj
 0001:00066a10       __mtinitlocks              20067a10 f   LIBCMTD:mlock.obj
 0001:00066aa0       __mtdeletelocks            20067aa0 f   LIBCMTD:mlock.obj
 0001:00066b60       __mtinitlocknum            20067b60 f   LIBCMTD:mlock.obj
 0001:00066cb0       __lock                     20067cb0 f   LIBCMTD:mlock.obj
 0001:00066cf0       __unlock                   20067cf0 f   LIBCMTD:mlock.obj
 0001:00066d10       __lockerr_exit             20067d10 f   LIBCMTD:mlock.obj
 0001:00066d30       __CrtDefaultAllocHook      20067d30 f   LIBCMTD:dbghook.obj
 0001:00066d40       __crt_debugger_hook        20067d40 f   LIBCMTD:dbghook.obj
 0001:00066d60       ?_JumpToContinuation@@YGXPAXPAUEHRegistrationNode@@@Z 20067d60 f   LIBCMTD:_trnsctrl_.obj
 0001:00066da0       ?_CallMemberFunction0@@YGXPAX0@Z 20067da0 f   LIBCMTD:_trnsctrl_.obj
 0001:00066db0       ?_CallMemberFunction1@@YGXPAX00@Z 20067db0 f   LIBCMTD:_trnsctrl_.obj
 0001:00066dc0       ?_CallMemberFunction2@@YGXPAX00H@Z 20067dc0 f   LIBCMTD:_trnsctrl_.obj
 0001:00066dd0       ?_UnwindNestedFrames@@YGXPAUEHRegistrationNode@@PAUEHExceptionRecord@@@Z 20067dd0 f   LIBCMTD:_trnsctrl_.obj
 0001:00066e30       ___CxxFrameHandler         20067e30 f   LIBCMTD:_trnsctrl_.obj
 0001:00066e70       ___CxxFrameHandler3        20067e70 f   LIBCMTD:_trnsctrl_.obj
 0001:00066eb0       ___CxxFrameHandler2        20067eb0 f   LIBCMTD:_trnsctrl_.obj
 0001:00066ef0       ___CxxLongjmpUnwind@4      20067ef0 f   LIBCMTD:_trnsctrl_.obj
 0001:00066f20       ?_CallCatchBlock2@@YAPAXPAUEHRegistrationNode@@PBU_s_FuncInfo@@PAXHK@Z 20067f20 f   LIBCMTD:_trnsctrl_.obj
 0001:00066fe0       ?_CallSETranslator@@YAHPAUEHExceptionRecord@@PAUEHRegistrationNode@@PAX2PBU_s_FuncInfo@@H1@Z 20067fe0 f   LIBCMTD:_trnsctrl_.obj
 0001:00067180       ?_GetRangeOfTrysToCheck@@YAPBU_s_TryBlockMapEntry@@PBU_s_FuncInfo@@HHPAI1@Z 20068180 f   LIBCMTD:_trnsctrl_.obj
 0001:00067200       __CreateFrameInfo          20068200 f   LIBCMTD:_trnsctrl_.obj
 0001:00067230       __IsExceptionObjectToBeDestroyed 20068230 f   LIBCMTD:_trnsctrl_.obj
 0001:00067260       __FindAndUnlinkFrame       20068260 f   LIBCMTD:_trnsctrl_.obj
 0001:000672c0       __allmul                   200682c0 f   LIBCMTD:llmul.obj
 0001:00067300       __aullrem                  20068300 f   LIBCMTD:ullrem.obj
 0001:00067380       __CrtDbgBreak              20068380 f   LIBCMTD:dbgrptt.obj
 0001:00067390       __CrtSetReportMode         20068390 f   LIBCMTD:dbgrptt.obj
 0001:000674d0       __CrtSetReportFile         200684d0 f   LIBCMTD:dbgrptt.obj
 0001:000675d0       __CrtSetReportHook         200685d0 f   LIBCMTD:dbgrptt.obj
 0001:000675f0       __CrtGetReportHook         200685f0 f   LIBCMTD:dbgrptt.obj
 0001:00067600       __VCrtDbgReportA           20068600 f   LIBCMTD:dbgrptt.obj
 0001:00067e30       __VCrtDbgReportW           20068e30 f   LIBCMTD:dbgrptt.obj
 0001:00068760       __initp_misc_winsig        20069760 f   LIBCMTD:winsig.obj
 0001:00068790       _signal                    20069790 f   LIBCMTD:winsig.obj
 0001:00068c30       _raise                     20069c30 f   LIBCMTD:winsig.obj
 0001:00068fa0       ___get_sigabrt             20069fa0 f   LIBCMTD:winsig.obj
 0001:00068fc0       ___fpecode                 20069fc0 f   LIBCMTD:winsig.obj
 0001:00068fd0       ___pxcptinfoptrs           20069fd0 f   LIBCMTD:winsig.obj
 0001:00068fe0       ___crtMessageBoxW          20069fe0 f   LIBCMTD:crtmboxw.obj
 0001:00069200       __swprintf                 2006a200 f   LIBCMTD:swprintf.obj
 0001:00069400       ___swprintf_l              2006a400 f   LIBCMTD:swprintf.obj
 0001:00069430       _swprintf_s                2006a430 f   LIBCMTD:swprintf.obj
 0001:00069460       __snwprintf_s              2006a460 f   LIBCMTD:swprintf.obj
 0001:00069490       __swprintf_p               2006a490 f   LIBCMTD:swprintf.obj
 0001:000694c0       __swprintf_s_l             2006a4c0 f   LIBCMTD:swprintf.obj
 0001:000694f0       __snwprintf_s_l            2006a4f0 f   LIBCMTD:swprintf.obj
 0001:00069520       __swprintf_p_l             2006a520 f   LIBCMTD:swprintf.obj
 0001:00069550       __scwprintf                2006a550 f   LIBCMTD:swprintf.obj
 0001:00069570       __scwprintf_p              2006a570 f   LIBCMTD:swprintf.obj
 0001:00069590       __scwprintf_l              2006a590 f   LIBCMTD:swprintf.obj
 0001:000695c0       __scwprintf_p_l            2006a5c0 f   LIBCMTD:swprintf.obj
 0001:000695f0       _wcslen                    2006a5f0 f   LIBCMTD:wcslen.obj
 0001:00069620       _wcscpy_s                  2006a620 f   LIBCMTD:wcscpy_s.obj
 0001:00069900       __lseeki64                 2006a900 f   LIBCMTD:lseeki64.obj
 0001:00069b50       __lseeki64_nolock          2006ab50 f   LIBCMTD:lseeki64.obj
 0001:00069c40       __getbuf                   2006ac40 f   LIBCMTD:_getbuf.obj
 0001:00069d10       __isatty                   2006ad10 f   LIBCMTD:isatty.obj
 0001:00069dd0       _printf                    2006add0 f   LIBCMTD:printf.obj
 0001:00069f10       __printf_l                 2006af10 f   LIBCMTD:printf.obj
 0001:00069f40       __printf_s_l               2006af40 f   LIBCMTD:printf.obj
 0001:00069f70       _printf_s                  2006af70 f   LIBCMTD:printf.obj
 0001:00069fa0       __printf_p_l               2006afa0 f   LIBCMTD:printf.obj
 0001:00069fd0       __printf_p                 2006afd0 f   LIBCMTD:printf.obj
 0001:0006a000       __set_printf_count_output  2006b000 f   LIBCMTD:printf.obj
 0001:0006a050       __get_printf_count_output  2006b050 f   LIBCMTD:printf.obj
 0001:0006a070       __wctomb_s_l               2006b070 f   LIBCMTD:wctomb.obj
 0001:0006a370       _wctomb_s                  2006b370 f   LIBCMTD:wctomb.obj
 0001:0006a3a0       __wctomb_l                 2006b3a0 f   LIBCMTD:wctomb.obj
 0001:0006a420       _wctomb                    2006b420 f   LIBCMTD:wctomb.obj
 0001:0006a470       __isleadbyte_l             2006b470 f i LIBCMTD:_wctype.obj
 0001:0006a4c0       _isleadbyte                2006b4c0 f i LIBCMTD:_wctype.obj
 0001:0006a4e0       __iswalpha_l               2006b4e0 f i LIBCMTD:_wctype.obj
 0001:0006a500       _iswalpha                  2006b500 f i LIBCMTD:_wctype.obj
 0001:0006a520       __iswupper_l               2006b520 f i LIBCMTD:_wctype.obj
 0001:0006a540       _iswupper                  2006b540 f i LIBCMTD:_wctype.obj
 0001:0006a560       __iswlower_l               2006b560 f i LIBCMTD:_wctype.obj
 0001:0006a580       _iswlower                  2006b580 f i LIBCMTD:_wctype.obj
 0001:0006a5a0       __iswdigit_l               2006b5a0 f i LIBCMTD:_wctype.obj
 0001:0006a5c0       _iswdigit                  2006b5c0 f i LIBCMTD:_wctype.obj
 0001:0006a5e0       __iswxdigit_l              2006b5e0 f i LIBCMTD:_wctype.obj
 0001:0006a600       _iswxdigit                 2006b600 f i LIBCMTD:_wctype.obj
 0001:0006a620       __iswspace_l               2006b620 f i LIBCMTD:_wctype.obj
 0001:0006a640       _iswspace                  2006b640 f i LIBCMTD:_wctype.obj
 0001:0006a660       __iswpunct_l               2006b660 f i LIBCMTD:_wctype.obj
 0001:0006a680       _iswpunct                  2006b680 f i LIBCMTD:_wctype.obj
 0001:0006a6a0       __iswalnum_l               2006b6a0 f i LIBCMTD:_wctype.obj
 0001:0006a6c0       _iswalnum                  2006b6c0 f i LIBCMTD:_wctype.obj
 0001:0006a6e0       __iswprint_l               2006b6e0 f i LIBCMTD:_wctype.obj
 0001:0006a700       _iswprint                  2006b700 f i LIBCMTD:_wctype.obj
 0001:0006a720       __iswgraph_l               2006b720 f i LIBCMTD:_wctype.obj
 0001:0006a740       _iswgraph                  2006b740 f i LIBCMTD:_wctype.obj
 0001:0006a760       __iswcntrl_l               2006b760 f i LIBCMTD:_wctype.obj
 0001:0006a780       _iswcntrl                  2006b780 f i LIBCMTD:_wctype.obj
 0001:0006a7a0       _iswascii                  2006b7a0 f i LIBCMTD:_wctype.obj
 0001:0006a7c0       __iswcsym_l                2006b7c0 f i LIBCMTD:_wctype.obj
 0001:0006a800       ___iswcsym                 2006b800 f i LIBCMTD:_wctype.obj
 0001:0006a840       __iswcsymf_l               2006b840 f i LIBCMTD:_wctype.obj
 0001:0006a880       ___iswcsymf                2006b880 f i LIBCMTD:_wctype.obj
 0001:0006a8c0       __output_s_l               2006b8c0 f   LIBCMTD:outputs.obj
 0001:0006be90       __matherr                  2006ce90 f   LIBCMTD:_matherr_.obj
 0001:0006bea0       __frnd                     2006cea0 f   LIBCMTD:_frnd_.obj
 0001:0006bec0       __87except                 2006cec0 f   LIBCMTD:_87except_.obj
 0001:0006c070       __initp_heap_handler       2006d070 f   LIBCMTD:handler.obj
 0001:0006c080       ?_set_new_handler@@YAP6AHI@ZP6AHI@Z@Z 2006d080 f   LIBCMTD:handler.obj
 0001:0006c0c0       ?_set_new_handler@@YAP6AHI@ZH@Z 2006d0c0 f   LIBCMTD:handler.obj
 0001:0006c100       ?_query_new_handler@@YAP6AHI@ZXZ 2006d100 f   LIBCMTD:handler.obj
 0001:0006c120       __callnewh                 2006d120 f   LIBCMTD:handler.obj
 0001:0006c160       __malloc_base              2006d160 f   LIBCMTD:malloc.obj
 0001:0006c1f0       __heap_alloc_base          2006d1f0 f i LIBCMTD:malloc.obj
 0001:0006c250       __CrtSetReportHook2        2006d250 f   LIBCMTD:dbgrpt.obj
 0001:0006c580       __CrtDbgReport             2006d580 f   LIBCMTD:dbgrpt.obj
 0001:0006c5c0       __CrtDbgReportV            2006d5c0 f i LIBCMTD:dbgrpt.obj
 0001:0006c5f0       ___crtMessageWindowA       2006d5f0 f   LIBCMTD:dbgrpt.obj
 0001:0006c9f0       __expand_base              2006d9f0 f   LIBCMTD:expand.obj
 0001:0006cb50       __realloc_base             2006db50 f   LIBCMTD:realloc.obj
 0001:0006cc50       __free_base                2006dc50 f   LIBCMTD:free.obj
 0001:0006cca0       __heapchk                  2006dca0 f   LIBCMTD:heapchk.obj
 0001:0006ccd0       __heapset                  2006dcd0 f   LIBCMTD:heapchk.obj
 0001:0006cce0       _strncpy_s                 2006dce0 f   LIBCMTD:strncpy_s.obj
 0001:0006d0d0       _getenv                    2006e0d0 f   LIBCMTD:getenv.obj
 0001:0006d220       __getenv_helper_nolock     2006e220 f   LIBCMTD:getenv.obj
 0001:0006d340       _getenv_s                  2006e340 f   LIBCMTD:getenv.obj
 0001:0006d570       __dupenv_s                 2006e570 f   LIBCMTD:getenv.obj
 0001:0006d5a0       __dupenv_s_dbg             2006e5a0 f   LIBCMTD:getenv.obj
 0001:0006d7f0       ___init_ctype              2006e7f0 f   LIBCMTD:initctyp.obj
 0001:0006dda0       ____mb_cur_max_func        2006eda0 f   LIBCMTD:initctyp.obj
 0001:0006ddf0       ____mb_cur_max_l_func      2006edf0 f   LIBCMTD:initctyp.obj
 0001:0006de20       ____lc_codepage_func       2006ee20 f   LIBCMTD:initctyp.obj
 0001:0006de70       ____lc_collate_cp_func     2006ee70 f   LIBCMTD:initctyp.obj
 0001:0006dec0       ____lc_handle_func         2006eec0 f   LIBCMTD:initctyp.obj
 0001:0006df10       __fcloseall                2006ef10 f   LIBCMTD:closeall.obj
 0001:0006e040       __ValidateImageBase        2006f040 f   LIBCMTD:pesect.obj
 0001:0006e0a0       __FindPESection            2006f0a0 f   LIBCMTD:pesect.obj
 0001:0006e120       __IsNonwritableInCurrentImage 2006f120 f   LIBCMTD:pesect.obj
 0001:0006e240       __alloc_osfhnd             2006f240 f   LIBCMTD:osfinfo.obj
 0001:0006e4f0       __set_osfhnd               2006f4f0 f   LIBCMTD:osfinfo.obj
 0001:0006e5c0       __free_osfhnd              2006f5c0 f   LIBCMTD:osfinfo.obj
 0001:0006e6b0       __get_osfhandle            2006f6b0 f   LIBCMTD:osfinfo.obj
 0001:0006e820       __open_osfhandle           2006f820 f   LIBCMTD:osfinfo.obj
 0001:0006ea50       ___lock_fhandle            2006fa50 f   LIBCMTD:osfinfo.obj
 0001:0006eb50       __unlock_fhandle           2006fb50 f   LIBCMTD:osfinfo.obj
 0001:0006eb80       __putwch                   2006fb80 f   LIBCMTD:putwch.obj
 0001:0006ec10       __putwch_nolock            2006fc10 f   LIBCMTD:putwch.obj
 0001:0006ec60       __mbtowc_l                 2006fc60 f   LIBCMTD:mbtowc.obj
 0001:0006ee80       _mbtowc                    2006fe80 f   LIBCMTD:mbtowc.obj
 0001:0006eea0       __commit                   2006fea0 f   LIBCMTD:commit.obj
 0001:0006f0c0       __open                     200700c0 f   LIBCMTD:open.obj
 0001:0006f240       __sopen_helper             20070240 f   LIBCMTD:open.obj
 0001:000704a0       __sopen                    200714a0 f   LIBCMTD:open.obj
 0001:00070520       __sopen_s                  20071520 f   LIBCMTD:open.obj
 0001:00070550       __mbsnbicmp_l              20071550 f   LIBCMTD:mbsnbicm.obj
 0001:000709f0       __mbsnbicmp                200719f0 f   LIBCMTD:mbsnbicm.obj
 0001:00070a10       __mbsnbcmp_l               20071a10 f   LIBCMTD:mbsnbcmp.obj
 0001:00070cf0       __mbsnbcmp                 20071cf0 f   LIBCMTD:mbsnbcmp.obj
 0001:00070d10       __global_unwind2           20071d10 f   LIBCMTD:exsup.obj
 0001:00070d75       __local_unwind2            20071d75 f   LIBCMTD:exsup.obj
 0001:00070df9       __abnormal_termination     20071df9 f   LIBCMTD:exsup.obj
 0001:00070e1c       __NLG_Notify1              20071e1c f   LIBCMTD:exsup.obj
 0001:00070e25       __NLG_Notify               20071e25 f   LIBCMTD:exsup.obj
 0001:00070e3c       __NLG_Dispatch             20071e3c     LIBCMTD:exsup.obj
 0001:00070e3c       __NLG_Dispatch2            20071e3c     LIBCMTD:exsup.obj
 0001:00070e44       __NLG_Call                 20071e44 f   LIBCMTD:exsup.obj
 0001:00070e46       __NLG_Return2              20071e46     LIBCMTD:exsup.obj
 0001:00070e50       __ld12tod                  20071e50 f   LIBCMTD:_intrncvt_.obj
 0001:00070e70       __ld12cvt                  20071e70 f i LIBCMTD:_intrncvt_.obj
 0001:000710d0       __RoundMan                 200720d0 f i LIBCMTD:_intrncvt_.obj
 0001:000711b0       __ZeroTail                 200721b0 f i LIBCMTD:_intrncvt_.obj
 0001:00071240       __IncMan                   20072240 f i LIBCMTD:_intrncvt_.obj
 0001:000712f0       __CopyMan                  200722f0 f i LIBCMTD:_intrncvt_.obj
 0001:00071340       __FillZeroMan              20072340 f i LIBCMTD:_intrncvt_.obj
 0001:00071380       __IsZeroMan                20072380 f i LIBCMTD:_intrncvt_.obj
 0001:000713c0       __ShrMan                   200723c0 f i LIBCMTD:_intrncvt_.obj
 0001:000714b0       __ld12tof                  200724b0 f   LIBCMTD:_intrncvt_.obj
 0001:000714d0       __ld12told                 200724d0 f   LIBCMTD:_intrncvt_.obj
 0001:000715a0       ___crtGetStringTypeA       200725a0 f   LIBCMTD:a_str.obj
 0001:00071710       __MarkAllocaS              20072710 f i LIBCMTD:a_str.obj
 0001:00071740       __freea                    20072740 f i LIBCMTD:a_str.obj
 0001:000717b0       ___crtLCMapStringA         200727b0 f   LIBCMTD:a_map.obj
 0001:00071af0       ___init_time               20072af0 f   LIBCMTD:inittime.obj
 0001:00072820       ___free_lc_time            20073820 f   LIBCMTD:inittime.obj
 0001:00072e90       ___init_numeric            20073e90 f   LIBCMTD:initnum.obj
 0001:00073240       ___free_lconv_num          20074240 f   LIBCMTD:initnum.obj
 0001:000732f0       ___init_monetary           200742f0 f   LIBCMTD:initmon.obj
 0001:000738e0       ___free_lconv_mon          200748e0 f   LIBCMTD:initmon.obj
 0001:00073a90       _localeconv                20074a90 f   LIBCMTD:lconv.obj
 0001:00073ae0       ___pwctype_func            20074ae0 f   LIBCMTD:ctype.obj
 0001:00073af0       ___pctype_func             20074af0 f   LIBCMTD:ctype.obj
 0001:00073b40       ___mtold12                 20074b40 f   LIBCMTD:_mantold_.obj
 0001:00073ca0       ___add_12                  20074ca0 f i LIBCMTD:_mantold_.obj
 0001:00073d50       _ungetc                    20074d50 f   LIBCMTD:ungetc.obj
 0001:00073e40       __ungetc_nolock            20074e40 f   LIBCMTD:ungetc.obj
 0001:00074060       ___init_collate            20075060 f   LIBCMTD:initcoll.obj
 0001:00074070       _strcspn                   20075070 f   LIBCMTD:strcspn.obj
 0001:000740c0       _strpbrk                   200750c0 f   LIBCMTD:strpbrk.obj
 0001:00074100       _strcat_s                  20075100 f   LIBCMTD:strcat_s.obj
 0001:000744e0       ___get_qualified_locale    200754e0 f   LIBCMTD:getqloc.obj
 0001:00075340       __onexit                   20076340 f   LIBCMTD:onexit.obj
 0001:00075510       _atexit                    20076510 f   LIBCMTD:onexit.obj
 0001:00075530       ___onexitinit              20076530 f   LIBCMTD:onexit.obj
 0001:00075590       __FF_MSGBANNER             20076590 f   LIBCMTD:crt0msg.obj
 0001:000755e0       __GET_RTERRMSG             200765e0 f   LIBCMTD:crt0msg.obj
 0001:00075630       __NMSG_WRITE               20076630 f   LIBCMTD:crt0msg.obj
 0001:00075970       __initp_eh_hooks           20076970 f   LIBCMTD:hooks.obj
 0001:00075990       ?terminate@@YAXXZ          20076990 f   LIBCMTD:hooks.obj
 0001:00075a10       ?unexpected@@YAXXZ         20076a10 f   LIBCMTD:hooks.obj
 0001:00075a40       ?_inconsistency@@YAXXZ     20076a40 f   LIBCMTD:hooks.obj
 0001:00075ad0       __initp_misc_rand_s        20076ad0 f   LIBCMTD:rand_s.obj
 0001:00075ae0       _rand_s                    20076ae0 f   LIBCMTD:rand_s.obj
 0001:00075d00       ___getlocaleinfo           20076d00 f   LIBCMTD:inithelp.obj
 0001:00075fe0       __initp_misc_purevirt      20076fe0 f   LIBCMTD:inithelp.obj
 0001:00075ff0       __ismbbkalnum_l            20076ff0 f   LIBCMTD:ismbbyte.obj
 0001:00076010       __ismbbkalnum              20077010 f   LIBCMTD:ismbbyte.obj
 0001:00076030       __ismbbkprint_l            20077030 f   LIBCMTD:ismbbyte.obj
 0001:00076050       __ismbbkprint              20077050 f   LIBCMTD:ismbbyte.obj
 0001:00076070       __ismbbkpunct_l            20077070 f   LIBCMTD:ismbbyte.obj
 0001:00076090       __ismbbkpunct              20077090 f   LIBCMTD:ismbbyte.obj
 0001:000760b0       __ismbbalnum_l             200770b0 f   LIBCMTD:ismbbyte.obj
 0001:000760d0       __ismbbalnum               200770d0 f   LIBCMTD:ismbbyte.obj
 0001:000760f0       __ismbbalpha_l             200770f0 f   LIBCMTD:ismbbyte.obj
 0001:00076110       __ismbbalpha               20077110 f   LIBCMTD:ismbbyte.obj
 0001:00076130       __ismbbgraph_l             20077130 f   LIBCMTD:ismbbyte.obj
 0001:00076150       __ismbbgraph               20077150 f   LIBCMTD:ismbbyte.obj
 0001:00076170       __ismbbprint_l             20077170 f   LIBCMTD:ismbbyte.obj
 0001:00076190       __ismbbprint               20077190 f   LIBCMTD:ismbbyte.obj
 0001:000761b0       __ismbbpunct_l             200771b0 f   LIBCMTD:ismbbyte.obj
 0001:000761d0       __ismbbpunct               200771d0 f   LIBCMTD:ismbbyte.obj
 0001:000761f0       __ismbblead_l              200771f0 f   LIBCMTD:ismbbyte.obj
 0001:00076210       __ismbblead                20077210 f   LIBCMTD:ismbbyte.obj
 0001:00076230       __ismbbtrail_l             20077230 f   LIBCMTD:ismbbyte.obj
 0001:00076250       __ismbbtrail               20077250 f   LIBCMTD:ismbbyte.obj
 0001:00076270       __ismbbkana_l              20077270 f   LIBCMTD:ismbbyte.obj
 0001:000762e0       __ismbbkana                200772e0 f   LIBCMTD:ismbbyte.obj
 0001:000763d0       __statusfp2                200773d0 f   LIBCMTD:_ieee87_.obj
 0001:00076410       __statusfp                 20077410 f   LIBCMTD:_ieee87_.obj
 0001:00076460       __clearfp                  20077460 f   LIBCMTD:_ieee87_.obj
 0001:000764b0       ___control87_2             200774b0 f   LIBCMTD:_ieee87_.obj
 0001:00076560       __controlfp                20077560 f   LIBCMTD:_ieee87_.obj
 0001:00076580       __control87                20077580 f i LIBCMTD:_ieee87_.obj
 0001:00076630       __set_controlfp            20077630 f   LIBCMTD:_ieee87_.obj
 0001:000766c0       __fpreset                  200776c0 f   LIBCMTD:_ieee87_.obj
 0001:00076e80       _$I10_OUTPUT               20077e80 f   LIBCMTD:_x10fout_.obj
 0001:00077430       ___InternalCxxFrameHandler 20078430 f   LIBCMTD:frame.obj
 0001:00077a30       ??0bad_exception@std@@QAE@PBD@Z 20078a30 f i LIBCMTD:frame.obj
 0001:00077a60       ??1bad_exception@std@@UAE@XZ 20078a60 f i LIBCMTD:frame.obj
 0001:00077a80       ??_Ebad_exception@std@@UAEPAXI@Z 20078a80 f i LIBCMTD:frame.obj
 0001:00077a80       ??_Gbad_exception@std@@UAEPAXI@Z 20078a80 f i LIBCMTD:frame.obj
 0001:00077ab0       ??0bad_exception@std@@QAE@ABV01@@Z 20078ab0 f i LIBCMTD:frame.obj
 0001:00077c70       ___TypeMatch               20078c70 f   LIBCMTD:frame.obj
 0001:00077d20       ___FrameUnwindFilter       20078d20 f   LIBCMTD:frame.obj
 0001:00077da0       ___FrameUnwindToState      20078da0 f   LIBCMTD:frame.obj
 0001:000782e0       ___BuildCatchObjectHelper  200792e0 f   LIBCMTD:frame.obj
 0001:00078550       ___BuildCatchObject        20079550 f   LIBCMTD:frame.obj
 0001:00078660       ___DestructExceptionObject 20079660 f   LIBCMTD:frame.obj
 0001:00078710       ___AdjustPointer           20079710 f   LIBCMTD:frame.obj
 0001:00078760       ?__uncaught_exception@@YA_NXZ 20079760 f   LIBCMTD:frame.obj
 0001:00078780       ___CxxExceptionFilter      20079780 f   LIBCMTD:frame.obj
 0001:00078980       ___CxxRegisterExceptionObject 20079980 f   LIBCMTD:frame.obj
 0001:00078ab0       ___CxxDetectRethrow        20079ab0 f   LIBCMTD:frame.obj
 0001:00078b40       ___CxxUnregisterExceptionObject 20079b40 f   LIBCMTD:frame.obj
 0001:00078cc0       ___CxxQueryExceptionSize   20079cc0 f   LIBCMTD:frame.obj
 0001:00078cd0       ___CxxCallUnwindDtor       20079cd0 f   LIBCMTD:frame.obj
 0001:00078d50       ___CxxCallUnwindDelDtor    20079d50 f   LIBCMTD:frame.obj
 0001:00078dd0       ___CxxCallUnwindStdDelDtor 20079dd0 f   LIBCMTD:frame.obj
 0001:00078e50       ___CxxCallUnwindVecDtor    20079e50 f   LIBCMTD:frame.obj
 0001:00079080       ?_is_exception_typeof@@YAHABVtype_info@@PAU_EXCEPTION_POINTERS@@@Z 2007a080 f   LIBCMTD:frame.obj
 0001:00079160       __CallSettingFrame@12      2007a160 f   LIBCMTD:lowhelpr.obj
 0001:00079187       __NLG_Return               2007a187     LIBCMTD:lowhelpr.obj
 0001:000791b0       __mbstowcs_l_helper        2007a1b0 f   LIBCMTD:mbstowcs.obj
 0001:00079500       __mbstowcs_l               2007a500 f   LIBCMTD:mbstowcs.obj
 0001:00079520       _mbstowcs                  2007a520 f   LIBCMTD:mbstowcs.obj
 0001:00079570       __mbstowcs_s_l             2007a570 f   LIBCMTD:mbstowcs.obj
 0001:000798f0       _mbstowcs_s                2007a8f0 f   LIBCMTD:mbstowcs.obj
 0001:00079920       __itoa_s                   2007a920 f   LIBCMTD:xtoas.obj
 0001:00079cf0       __ltoa_s                   2007acf0 f   LIBCMTD:xtoas.obj
 0001:00079d30       __ultoa_s                  2007ad30 f   LIBCMTD:xtoas.obj
 0001:00079d50       __i64toa_s                 2007ad50 f   LIBCMTD:xtoas.obj
 0001:0007a150       __ui64toa_s                2007b150 f   LIBCMTD:xtoas.obj
 0001:0007a170       __wcstombs_l_helper        2007b170 f   LIBCMTD:wcstombs.obj
 0001:0007a6b0       __wcstombs_l               2007b6b0 f   LIBCMTD:wcstombs.obj
 0001:0007a6d0       _wcstombs                  2007b6d0 f   LIBCMTD:wcstombs.obj
 0001:0007a6f0       __wcstombs_s_l             2007b6f0 f   LIBCMTD:wcstombs.obj
 0001:0007aa20       _wcstombs_s                2007ba20 f   LIBCMTD:wcstombs.obj
 0001:0007aa50       _wcscat_s                  2007ba50 f   LIBCMTD:wcscat_s.obj
 0001:0007ae40       __vswprintf_helper         2007be40 f   LIBCMTD:vswprnc.obj
 0001:0007b0a0       __vswprintf_c              2007c0a0 f   LIBCMTD:vswprnc.obj
 0001:0007b0f0       __vswprintf_c_l            2007c0f0 f   LIBCMTD:vswprnc.obj
 0001:0007b140       __vswprintf_s_l            2007c140 f   LIBCMTD:vswprnc.obj
 0001:0007b3b0       _vswprintf_s               2007c3b0 f   LIBCMTD:vswprnc.obj
 0001:0007b3e0       __vsnwprintf_s_l           2007c3e0 f   LIBCMTD:vswprnc.obj
 0001:0007b790       __vsnwprintf_s             2007c790 f   LIBCMTD:vswprnc.obj
 0001:0007b7c0       __vswprintf_p              2007c7c0 f   LIBCMTD:vswprnc.obj
 0001:0007b810       __vswprintf_p_l            2007c810 f   LIBCMTD:vswprnc.obj
 0001:0007b860       __itow_s                   2007c860 f   LIBCMTD:xtows.obj
 0001:0007bc40       __ltow_s                   2007cc40 f   LIBCMTD:xtows.obj
 0001:0007bc80       __ultow_s                  2007cc80 f   LIBCMTD:xtows.obj
 0001:0007bca0       __i64tow_s                 2007cca0 f   LIBCMTD:xtows.obj
 0001:0007c0c0       __ui64tow_s                2007d0c0 f   LIBCMTD:xtows.obj
 0001:0007c0e0       __woutput_l                2007d0e0 f   LIBCMTD:woutput.obj
 0001:0007d2e0       __vswprintf_l              2007e2e0 f   LIBCMTD:vswprint.obj
 0001:0007d4d0       __vswprintf                2007e4d0 f   LIBCMTD:vswprint.obj
 0001:0007d4f0       ___vswprintf_l             2007e4f0 f   LIBCMTD:vswprint.obj
 0001:0007d510       __vscwprintf_helper        2007e510 f   LIBCMTD:vswprint.obj
 0001:0007d5f0       __vscwprintf               2007e5f0 f   LIBCMTD:vswprint.obj
 0001:0007d610       __vscwprintf_l             2007e610 f   LIBCMTD:vswprint.obj
 0001:0007d630       __vscwprintf_p             2007e630 f   LIBCMTD:vswprint.obj
 0001:0007d650       __vscwprintf_p_l           2007e650 f   LIBCMTD:vswprint.obj
 0001:0007d670       _vprintf_helper            2007e670 f   LIBCMTD:vprintf.obj
 0001:0007d790       __vprintf_l                2007e790 f   LIBCMTD:vprintf.obj
 0001:0007d7b0       __vprintf_s_l              2007e7b0 f   LIBCMTD:vprintf.obj
 0001:0007d7d0       __vprintf_p_l              2007e7d0 f   LIBCMTD:vprintf.obj
 0001:0007d7f0       _vprintf                   2007e7f0 f   LIBCMTD:vprintf.obj
 0001:0007d810       _vprintf_s                 2007e810 f   LIBCMTD:vprintf.obj
 0001:0007d830       __vprintf_p                2007e830 f   LIBCMTD:vprintf.obj
 0001:0007d850       __iswctype_l               2007e850 f   LIBCMTD:iswctype.obj
 0001:0007d870       _iswctype                  2007e870 f   LIBCMTD:iswctype.obj
 0001:0007d8d0       _is_wctype                 2007e8d0 f   LIBCMTD:iswctype.obj
 0001:0007d8f0       ___crtMessageBoxA          2007e8f0 f   LIBCMTD:crtmbox.obj
 0001:0007db10       _strnlen                   2007eb10 f   LIBCMTD:strlen_s.obj
 0001:0007db50       __mbsnbicoll_l             2007eb50 f   LIBCMTD:mbsnbico.obj
 0001:0007dd90       __mbsnbicoll               2007ed90 f   LIBCMTD:mbsnbico.obj
 0001:0007ddb0       ___wtomb_environ           2007edb0 f   LIBCMTD:wtombenv.obj
 0001:0007dea0       ___initconout              2007eea0 f   LIBCMTD:initcon.obj
 0001:0007ded0       ___termconout              2007eed0 f   LIBCMTD:initcon.obj
 0001:0007df00       __chsize_s                 2007ef00 f   LIBCMTD:chsize.obj
 0001:0007e1a0       __chsize_nolock            2007f1a0 f   LIBCMTD:chsize.obj
 0001:0007e440       __chsize                   2007f440 f   LIBCMTD:chsize.obj
 0001:0007e470       __lseek                    2007f470 f   LIBCMTD:lseek.obj
 0001:0007e6a0       __lseek_nolock             2007f6a0 f   LIBCMTD:lseek.obj
 0001:0007e780       __setmode                  2007f780 f   LIBCMTD:setmode.obj
 0001:0007ea10       __setmode_nolock           2007fa10 f   LIBCMTD:setmode.obj
 0001:0007ec80       __set_fmode                2007fc80 f   LIBCMTD:setmode.obj
 0001:0007ed30       __get_fmode                2007fd30 f   LIBCMTD:setmode.obj
 0001:0007edb0       __strnicmp_l               2007fdb0 f   LIBCMTD:strnicmp.obj
 0001:0007eff0       __strnicmp                 2007fff0 f   LIBCMTD:strnicmp.obj
 0001:0007f180       _malloc                    20080180 f   LIBCMTD:dbgmalloc.obj
 0001:0007f1b0       __set_error_mode           200801b0 f   LIBCMTD:errmode.obj
 0001:0007f270       ___set_app_type            20080270 f   LIBCMTD:errmode.obj
 0001:0007f280       _wcsncpy_s                 20080280 f   LIBCMTD:wcsncpy_s.obj
 0001:0007f690       _abort                     20080690 f   LIBCMTD:abort.obj
 0001:0007f6f0       __set_abort_behavior       200806f0 f   LIBCMTD:abort.obj
 0001:0007f720       ___crtGetLocaleInfoA       20080720 f   LIBCMTD:a_loc.obj
 0001:0007f880       ?_ValidateRead@@YAHPBXI@Z  20080880 f   LIBCMTD:validate.obj
 0001:0007f8b0       ?_ValidateWrite@@YAHPAXI@Z 200808b0 f   LIBCMTD:validate.obj
 0001:0007f8e0       ?_ValidateExecute@@YAHP6GHXZ@Z 200808e0 f   LIBCMTD:validate.obj
 0001:0007f910       __CxxThrowException@8      20080910 f   LIBCMTD:throw.obj
 0001:0007f970       ?name@type_info@@QBEPBDPAU__type_info_node@@@Z 20080970 f   LIBCMTD:typinfo.obj
 0001:0007f990       ??1type_info@@UAE@XZ       20080990 f   LIBCMTD:typinfo.obj
 0001:0007f9c0       ??_Gtype_info@@UAEPAXI@Z   200809c0 f i LIBCMTD:typinfo.obj
 0001:0007f9c0       ??_Etype_info@@UAEPAXI@Z   200809c0 f i LIBCMTD:typinfo.obj
 0001:0007f9f0       ?_name_internal_method@type_info@@QBEPBDPAU__type_info_node@@@Z 200809f0 f   LIBCMTD:typinfo.obj
 0001:0007fa10       ?_type_info_dtor_internal_method@type_info@@QAEXXZ 20080a10 f   LIBCMTD:typinfo.obj
 0001:0007fa30       ??8type_info@@QBE_NABV0@@Z 20080a30 f   LIBCMTD:typinfo.obj
 0001:0007fa60       ??9type_info@@QBE_NABV0@@Z 20080a60 f   LIBCMTD:typinfo.obj
 0001:0007fa90       ?before@type_info@@QBEHABV1@@Z 20080a90 f   LIBCMTD:typinfo.obj
 0001:0007fac0       ?raw_name@type_info@@QBEPBDXZ 20080ac0 f   LIBCMTD:typinfo.obj
 0001:0007fae0       ??0type_info@@AAE@ABV0@@Z  20080ae0 f   LIBCMTD:typinfo.obj
 0001:0007fb00       ??4type_info@@AAEAAV0@ABV0@@Z 20080b00 f   LIBCMTD:typinfo.obj
 0001:0007fb20       ??0exception@std@@QAE@XZ   20080b20 f   LIBCMTD:stdexcpt.obj
 0001:0007fb50       ??_Eexception@std@@UAEPAXI@Z 20080b50 f i LIBCMTD:stdexcpt.obj
 0001:0007fb50       ??_Gexception@std@@UAEPAXI@Z 20080b50 f i LIBCMTD:stdexcpt.obj
 0001:0007fb80       ??0exception@std@@QAE@ABQBD@Z 20080b80 f   LIBCMTD:stdexcpt.obj
 0001:0007fbc0       ??0exception@std@@QAE@ABQBDH@Z 20080bc0 f   LIBCMTD:stdexcpt.obj
 0001:0007fbf0       ??0exception@std@@QAE@ABV01@@Z 20080bf0 f   LIBCMTD:stdexcpt.obj
 0001:0007fc30       ??4exception@std@@QAEAAV01@ABV01@@Z 20080c30 f   LIBCMTD:stdexcpt.obj
 0001:0007fc80       ??1exception@std@@UAE@XZ   20080c80 f   LIBCMTD:stdexcpt.obj
 0001:0007fca0       ?what@exception@std@@UBEPBDXZ 20080ca0 f   LIBCMTD:stdexcpt.obj
 0001:0007fcd0       ?_Copy_str@exception@std@@AAEXPBD@Z 20080cd0 f   LIBCMTD:stdexcpt.obj
 0001:0007fd40       ?_Tidy@exception@std@@AAEXXZ 20080d40 f   LIBCMTD:stdexcpt.obj
 0001:0007fd80       ??0bad_cast@std@@QAE@PBD@Z 20080d80 f   LIBCMTD:stdexcpt.obj
 0001:0007fdb0       ??_Gbad_cast@std@@UAEPAXI@Z 20080db0 f i LIBCMTD:stdexcpt.obj
 0001:0007fdb0       ??_Ebad_cast@std@@UAEPAXI@Z 20080db0 f i LIBCMTD:stdexcpt.obj
 0001:0007fde0       ??0bad_cast@std@@QAE@ABV01@@Z 20080de0 f   LIBCMTD:stdexcpt.obj
 0001:0007fe10       ??1bad_cast@std@@UAE@XZ    20080e10 f   LIBCMTD:stdexcpt.obj
 0001:0007fe30       ??0bad_typeid@std@@QAE@PBD@Z 20080e30 f   LIBCMTD:stdexcpt.obj
 0001:0007fe60       ??_Ebad_typeid@std@@UAEPAXI@Z 20080e60 f i LIBCMTD:stdexcpt.obj
 0001:0007fe60       ??_Gbad_typeid@std@@UAEPAXI@Z 20080e60 f i LIBCMTD:stdexcpt.obj
 0001:0007fe90       ??0bad_typeid@std@@QAE@ABV01@@Z 20080e90 f   LIBCMTD:stdexcpt.obj
 0001:0007fec0       ??1bad_typeid@std@@UAE@XZ  20080ec0 f   LIBCMTD:stdexcpt.obj
 0001:0007fee0       ??0__non_rtti_object@std@@QAE@PBD@Z 20080ee0 f   LIBCMTD:stdexcpt.obj
 0001:0007ff10       ??_E__non_rtti_object@std@@UAEPAXI@Z 20080f10 f i LIBCMTD:stdexcpt.obj
 0001:0007ff10       ??_G__non_rtti_object@std@@UAEPAXI@Z 20080f10 f i LIBCMTD:stdexcpt.obj
 0001:0007ff40       ??0__non_rtti_object@std@@QAE@ABV01@@Z 20080f40 f   LIBCMTD:stdexcpt.obj
 0001:0007ff70       ??1__non_rtti_object@std@@UAE@XZ 20080f70 f   LIBCMTD:stdexcpt.obj
 0001:0007ff90       ??3@YAXPAX@Z               20080f90 f   LIBCMTD:dbgdel.obj
 0001:00080080       __woutput_s_l              20081080 f   LIBCMTD:woutputs.obj
 0001:000813d0       __validate_param_reuseW    200823d0 f   LIBCMTD:woutputp.obj
 0001:00081640       __woutput_p_l              20082640 f   LIBCMTD:woutputp.obj
 0001:00084dd0       _fputwc                    20085dd0 f   LIBCMTD:fputwc.obj
 0001:00084ed0       __fputwc_nolock            20085ed0 f   LIBCMTD:fputwc.obj
 0001:000851c0       _putwc                     200861c0 f   LIBCMTD:fputwc.obj
 0001:000851e0       ___crtCompareStringA       200861e0 f   LIBCMTD:a_cmp.obj
 0001:00085620       __strnicoll_l              20086620 f   LIBCMTD:strnicol.obj
 0001:00085870       __strnicoll                20086870 f   LIBCMTD:strnicol.obj
 0001:000858b0       ___crtsetenv               200868b0 f   LIBCMTD:setenv.obj
 0001:00085f30       ___ascii_strnicmp          20086f30 f   LIBCMTD:_strnicm.obj
 0001:00085fa0       ?_Type_info_dtor@type_info@@CAXPAV1@@Z 20086fa0 f   LIBCMTD:typname.obj
 0001:000860b0       ?_Name_base@type_info@@CAPBDPBV1@PAU__type_info_node@@@Z 200870b0 f   LIBCMTD:typname.obj
 0001:00086260       ?_Type_info_dtor_internal@type_info@@CAXPAV1@@Z 20087260 f   LIBCMTD:typname.obj
 0001:00086370       ___unDNameHelper           20087370 f   LIBCMTD:typname.obj
 0001:000863b0       ?_Name_base_internal@type_info@@CAPBDPBV1@PAU__type_info_node@@@Z 200873b0 f   LIBCMTD:typname.obj
 0001:00086570       ___clean_type_info_names_internal 20087570 f   LIBCMTD:typname.obj
 0001:00086630       _wcstol                    20087630 f   LIBCMTD:wcstol.obj
 0001:00086a00       __wcstol_l                 20087a00 f   LIBCMTD:wcstol.obj
 0001:00086a20       _wcstoul                   20087a20 f   LIBCMTD:wcstol.obj
 0001:00086a40       __wcstoul_l                20087a40 f   LIBCMTD:wcstol.obj
 0001:00086a60       __flswbuf                  20087a60 f   LIBCMTD:_flswbuf.obj
 0001:00086d40       __mbschr_l                 20087d40 f   LIBCMTD:mbschr.obj
 0001:00086ed0       __mbschr                   20087ed0 f   LIBCMTD:mbschr.obj
 0001:00086ef0       ___unDName                 20087ef0 f   LIBCMTD:undname.obj
 0001:00086fd0       ?Constructor@_HeapManager@@QAEXP6APAXI@ZP6AXPAX@Z@Z 20087fd0 f i LIBCMTD:undname.obj
 0001:00087010       ?Destructor@_HeapManager@@QAEXXZ 20088010 f i LIBCMTD:undname.obj
 0001:00087060       ___unDNameEx               20088060 f   LIBCMTD:undname.obj
 0001:00087140       ??0UnDecorator@@QAE@PADPBDHP6APADJ@ZK@Z 20088140 f i LIBCMTD:undname.obj
 0001:000871e0       ??BUnDecorator@@QAEPADXZ   200881e0 f i LIBCMTD:undname.obj
 0001:00087410       ?dbGetString@DName@@QBEPADXZ 20088410 f   LIBCMTD:undname.obj
 0001:00087440       ?getDecoratedName@UnDecorator@@CA?AVDName@@XZ 20088440 f   LIBCMTD:undname.obj
 0001:00087750       ?getSymbolName@UnDecorator@@CA?AVDName@@XZ 20088750 f i LIBCMTD:undname.obj
 0001:000877d0       ?getZName@UnDecorator@@CA?AVDName@@_N0@Z 200887d0 f   LIBCMTD:undname.obj
 0001:00087a70       ?getOperatorName@UnDecorator@@CA?AVDName@@_NPA_N@Z 20088a70 f i LIBCMTD:undname.obj
 0001:000883e0       ?getStringEncoding@UnDecorator@@CA?AVDName@@PADH@Z 200893e0 f   LIBCMTD:undname.obj
 0001:000884e0       ?getScope@UnDecorator@@CA?AVDName@@XZ 200894e0 f   LIBCMTD:undname.obj
 0001:000888c0       ?getSignedDimension@UnDecorator@@CA?AVDName@@XZ 200898c0 f   LIBCMTD:undname.obj
 0001:00088940       ?getDimension@UnDecorator@@CA?AVDName@@_N@Z 20089940 f   LIBCMTD:undname.obj
 0001:00088bf0       ?getNumberOfDimensions@UnDecorator@@CAHXZ 20089bf0 f   LIBCMTD:undname.obj
 0001:00088cf0       ?getTemplateName@UnDecorator@@CA?AVDName@@_N@Z 20089cf0 f   LIBCMTD:undname.obj
 0001:00088eb0       ?getTemplateArgumentList@UnDecorator@@CA?AVDName@@XZ 20089eb0 f   LIBCMTD:undname.obj
 0001:00089130       ?getTemplateConstant@UnDecorator@@CA?AVDName@@XZ 2008a130 f   LIBCMTD:undname.obj
 0001:000895c0       ?composeDeclaration@UnDecorator@@CA?AVDName@@ABV2@@Z 2008a5c0 f i LIBCMTD:undname.obj
 0001:0008abc0       ?getTypeEncoding@UnDecorator@@CAHXZ 2008bbc0 f i LIBCMTD:undname.obj
 0001:0008b600       ?getBasedType@UnDecorator@@CA?AVDName@@XZ 2008c600 f   LIBCMTD:undname.obj
 0001:0008b6c0       ?getScopedName@UnDecorator@@CA?AVDName@@XZ 2008c6c0 f   LIBCMTD:undname.obj
 0001:0008b7e0       ?getCallingConvention@UnDecorator@@CA?AVDName@@XZ 2008c7e0 f   LIBCMTD:undname.obj
 0001:0008b960       ?getReturnType@UnDecorator@@CA?AVDName@@PAV2@@Z 2008c960 f   LIBCMTD:undname.obj
 0001:0008b9b0       ?getDataType@UnDecorator@@CA?AVDName@@PAV2@@Z 2008c9b0 f   LIBCMTD:undname.obj
 0001:0008bad0       ?getPrimaryDataType@UnDecorator@@CA?AVDName@@ABV2@@Z 2008cad0 f   LIBCMTD:undname.obj
 0001:0008be70       ?getArgumentTypes@UnDecorator@@CA?AVDName@@XZ 2008ce70 f   LIBCMTD:undname.obj
 0001:0008bfd0       ?getArgumentList@UnDecorator@@CA?AVDName@@XZ 2008cfd0 f   LIBCMTD:undname.obj
 0001:0008c120       ?getThrowTypes@UnDecorator@@CA?AVDName@@XZ 2008d120 f   LIBCMTD:undname.obj
 0001:0008c1d0       ?getBasicDataType@UnDecorator@@CA?AVDName@@ABV2@@Z 2008d1d0 f   LIBCMTD:undname.obj
 0001:0008c790       ?getECSUDataType@UnDecorator@@CA?AVDName@@XZ 2008d790 f   LIBCMTD:undname.obj
 0001:0008c960       ?getECSUName@UnDecorator@@CA?AVDName@@XZ 2008d960 f i LIBCMTD:undname.obj
 0001:0008c980       ?getEnumType@UnDecorator@@CA?AVDName@@XZ 2008d980 f i LIBCMTD:undname.obj
 0001:0008cad0       ?getFunctionIndirectType@UnDecorator@@CA?AVDName@@ABV2@@Z 2008dad0 f   LIBCMTD:undname.obj
 0001:0008cf10       ?getPtrRefType@UnDecorator@@CA?AVDName@@ABV2@0PBD@Z 2008df10 f   LIBCMTD:undname.obj
 0001:0008d070       ?getExtendedDataIndirectType@UnDecorator@@CA?AVDName@@AAPBDAA_NH@Z 2008e070 f   LIBCMTD:undname.obj
 0001:0008d290       ?getDataIndirectType@UnDecorator@@CA?AVDName@@ABV2@PBD0H@Z 2008e290 f   LIBCMTD:undname.obj
 0001:0008d990       ?getPtrRefDataType@UnDecorator@@CA?AVDName@@ABV2@H@Z 2008e990 f i LIBCMTD:undname.obj
 0001:0008dad0       ?getArrayType@UnDecorator@@CA?AVDName@@ABV2@@Z 2008ead0 f i LIBCMTD:undname.obj
 0001:0008dd00       ?getLexicalFrame@UnDecorator@@CA?AVDName@@XZ 2008ed00 f i LIBCMTD:undname.obj
 0001:0008dd40       ?getThisType@UnDecorator@@CA?AVDName@@XZ 2008ed40 f i LIBCMTD:undname.obj
 0001:0008dd80       ?getPointerType@UnDecorator@@CA?AVDName@@ABV2@0@Z 2008ed80 f i LIBCMTD:undname.obj
 0001:0008ddb0       ?getPointerTypeArray@UnDecorator@@CA?AVDName@@ABV2@0@Z 2008edb0 f i LIBCMTD:undname.obj
 0001:0008dde0       ?getReferenceType@UnDecorator@@CA?AVDName@@ABV2@0PBD@Z 2008ede0 f i LIBCMTD:undname.obj
 0001:0008de10       ?getDisplacement@UnDecorator@@CA?AVDName@@XZ 2008ee10 f i LIBCMTD:undname.obj
 0001:0008de30       ?getCallIndex@UnDecorator@@CA?AVDName@@XZ 2008ee30 f i LIBCMTD:undname.obj
 0001:0008de50       ?getGuardNumber@UnDecorator@@CA?AVDName@@XZ 2008ee50 f i LIBCMTD:undname.obj
 0001:0008de70       ?getVbTableType@UnDecorator@@CA?AVDName@@ABV2@@Z 2008ee70 f i LIBCMTD:undname.obj
 0001:0008de90       ?getVCallThunkType@UnDecorator@@CA?AVDName@@XZ 2008ee90 f i LIBCMTD:undname.obj
 0001:0008def0       ?getVfTableType@UnDecorator@@CA?AVDName@@ABV2@@Z 2008eef0 f i LIBCMTD:undname.obj
 0001:0008e0b0       ?getStorageConvention@UnDecorator@@CA?AVDName@@XZ 2008f0b0 f i LIBCMTD:undname.obj
 0001:0008e0d0       ?getDataIndirectType@UnDecorator@@CA?AVDName@@XZ 2008f0d0 f i LIBCMTD:undname.obj
 0001:0008e110       ?getVdispMapType@UnDecorator@@CA?AVDName@@ABV2@@Z 2008f110 f i LIBCMTD:undname.obj
 0001:0008e180       ?getExternalDataType@UnDecorator@@CA?AVDName@@ABV2@@Z 2008f180 f i LIBCMTD:undname.obj
 0001:0008e210       ?doMSKeywords@UnDecorator@@SAHXZ 2008f210 f i LIBCMTD:undname.obj
 0001:0008e230       ?doPtr64@UnDecorator@@SAHXZ 2008f230 f i LIBCMTD:undname.obj
 0001:0008e250       ?doFunctionReturns@UnDecorator@@SAHXZ 2008f250 f i LIBCMTD:undname.obj
 0001:0008e270       ?doAllocationModel@UnDecorator@@SAHXZ 2008f270 f i LIBCMTD:undname.obj
 0001:0008e290       ?doAllocationLanguage@UnDecorator@@SAHXZ 2008f290 f i LIBCMTD:undname.obj
 0001:0008e2b0       ?doThisTypes@UnDecorator@@SAHXZ 2008f2b0 f i LIBCMTD:undname.obj
 0001:0008e2d0       ?doAccessSpecifiers@UnDecorator@@SAHXZ 2008f2d0 f i LIBCMTD:undname.obj
 0001:0008e2f0       ?doThrowTypes@UnDecorator@@SAHXZ 2008f2f0 f i LIBCMTD:undname.obj
 0001:0008e310       ?doMemberTypes@UnDecorator@@SAHXZ 2008f310 f i LIBCMTD:undname.obj
 0001:0008e330       ?doNameOnly@UnDecorator@@SAHXZ 2008f330 f i LIBCMTD:undname.obj
 0001:0008e350       ?doTypeOnly@UnDecorator@@SAHXZ 2008f350 f i LIBCMTD:undname.obj
 0001:0008e370       ?haveTemplateParameters@UnDecorator@@SAHXZ 2008f370 f i LIBCMTD:undname.obj
 0001:0008e390       ?doEcsu@UnDecorator@@SAHXZ 2008f390 f i LIBCMTD:undname.obj
 0001:0008e3b0       ?doEllipsis@UnDecorator@@SAHXZ 2008f3b0 f i LIBCMTD:undname.obj
 0001:0008e3d0       ?UScore@UnDecorator@@SAPBDW4Tokens@@@Z 2008f3d0 f   LIBCMTD:undname.obj
 0001:0008e400       ?doUnderScore@UnDecorator@@SAHXZ 2008f400 f i LIBCMTD:undname.obj
 0001:0008e420       ??2@YAPAXIAAV_HeapManager@@H@Z 2008f420 f i LIBCMTD:undname.obj
 0001:0008e440       ?getMemory@_HeapManager@@QAEPAXIH@Z 2008f440 f   LIBCMTD:undname.obj
 0001:0008e550       ??0Block@_HeapManager@@QAE@XZ 2008f550 f i LIBCMTD:undname.obj
 0001:0008e570       ??H@YA?AVDName@@DABV0@@Z   2008f570 f i LIBCMTD:undname.obj
 0001:0008e5a0       ??H@YA?AVDName@@W4DNameStatus@@ABV0@@Z 2008f5a0 f i LIBCMTD:undname.obj
 0001:0008e5d0       ??H@YA?AVDName@@PBDABV0@@Z 2008f5d0 f i LIBCMTD:undname.obj
 0001:0008e600       ??0DName@@QAE@XZ           2008f600 f i LIBCMTD:undname.obj
 0001:0008e6c0       ??0DName@@QAE@D@Z          2008f6c0 f   LIBCMTD:undname.obj
 0001:0008e7a0       ??0DName@@QAE@ABV0@@Z      2008f7a0 f i LIBCMTD:undname.obj
 0001:0008e7d0       ??0DName@@QAE@PAV0@@Z      2008f7d0 f   LIBCMTD:undname.obj
 0001:0008e900       ??0DName@@QAE@PBD@Z        2008f900 f   LIBCMTD:undname.obj
 0001:0008e9f0       ??0DName@@QAE@AAPBDD@Z     2008f9f0 f   LIBCMTD:undname.obj
 0001:0008ecb0       ?doNoIdentCharCheck@UnDecorator@@SAHXZ 2008fcb0 f i LIBCMTD:undname.obj
 0001:0008ecd0       ??0DName@@QAE@_K@Z         2008fcd0 f   LIBCMTD:undname.obj
 0001:0008ee10       ??0DName@@QAE@_J@Z         2008fe10 f   LIBCMTD:undname.obj
 0001:0008ef90       ??0DName@@QAE@W4DNameStatus@@@Z 2008ff90 f   LIBCMTD:undname.obj
 0001:0008f0b0       ?isValid@DName@@QBEHXZ     200900b0 f i LIBCMTD:undname.obj
 0001:0008f0e0       ?isEmpty@DName@@QBEHXZ     200900e0 f i LIBCMTD:undname.obj
 0001:0008f100       ?status@DName@@QBE?AW4DNameStatus@@XZ 20090100 f i LIBCMTD:undname.obj
 0001:0008f120       ?setPtrRef@DName@@QAEAAV1@XZ 20090120 f i LIBCMTD:undname.obj
 0001:0008f150       ?isPtrRef@DName@@QBEHXZ    20090150 f i LIBCMTD:undname.obj
 0001:0008f170       ?isUDC@DName@@QBEHXZ       20090170 f i LIBCMTD:undname.obj
 0001:0008f1b0       ?setIsUDC@DName@@QAEXXZ    200901b0 f i LIBCMTD:undname.obj
 0001:0008f1e0       ?isUDTThunk@DName@@QBEHXZ  200901e0 f i LIBCMTD:undname.obj
 0001:0008f220       ?setIsArray@DName@@QAEXXZ  20090220 f i LIBCMTD:undname.obj
 0001:0008f240       ?isArray@DName@@QBEHXZ     20090240 f i LIBCMTD:undname.obj
 0001:0008f260       ?isNoTE@DName@@QBEHXZ      20090260 f i LIBCMTD:undname.obj
 0001:0008f280       ?setIsNoTE@DName@@QAEXXZ   20090280 f i LIBCMTD:undname.obj
 0001:0008f2a0       ?isPinPtr@DName@@QBEHXZ    200902a0 f i LIBCMTD:undname.obj
 0001:0008f2c0       ?setIsPinPtr@DName@@QAEXXZ 200902c0 f i LIBCMTD:undname.obj
 0001:0008f2e0       ?isComArray@DName@@QBEHXZ  200902e0 f i LIBCMTD:undname.obj
 0001:0008f300       ?setIsComArray@DName@@QAEXXZ 20090300 f i LIBCMTD:undname.obj
 0001:0008f320       ?isVCallThunk@DName@@QBEHXZ 20090320 f i LIBCMTD:undname.obj
 0001:0008f340       ?setIsVCallThunk@DName@@QAEXXZ 20090340 f i LIBCMTD:undname.obj
 0001:0008f360       ?length@DName@@QBEHXZ      20090360 f i LIBCMTD:undname.obj
 0001:0008f390       ?getLastChar@DName@@QBEDXZ 20090390 f i LIBCMTD:undname.obj
 0001:0008f3c0       ?getString@DName@@QBEPADPADH@Z 200903c0 f i LIBCMTD:undname.obj
 0001:0008f450       ?getString@DName@@QBEPADPAD0@Z 20090450 f i LIBCMTD:undname.obj
 0001:0008f490       ??HDName@@QBE?AV0@D@Z      20090490 f   LIBCMTD:undname.obj
 0001:0008f4d0       ??HDName@@QBE?AV0@PBD@Z    200904d0 f   LIBCMTD:undname.obj
 0001:0008f510       ??HDName@@QBE?AV0@ABV0@@Z  20090510 f   LIBCMTD:undname.obj
 0001:0008f550       ??HDName@@QBE?AV0@PAV0@@Z  20090550 f   LIBCMTD:undname.obj
 0001:0008f590       ??HDName@@QBE?AV0@W4DNameStatus@@@Z 20090590 f   LIBCMTD:undname.obj
 0001:0008f5d0       ?append@DName@@AAEXPAVDNameNode@@@Z 200905d0 f   LIBCMTD:undname.obj
 0001:0008f660       ??YDName@@QAEAAV0@D@Z      20090660 f   LIBCMTD:undname.obj
 0001:0008f6f0       ??YDName@@QAEAAV0@PBD@Z    200906f0 f   LIBCMTD:undname.obj
 0001:0008f790       ??YDName@@QAEAAV0@ABV0@@Z  20090790 f   LIBCMTD:undname.obj
 0001:0008f800       ??YDName@@QAEAAV0@PAV0@@Z  20090800 f   LIBCMTD:undname.obj
 0001:0008f8c0       ??YDName@@QAEAAV0@W4DNameStatus@@@Z 200908c0 f   LIBCMTD:undname.obj
 0001:0008f930       ??_5DName@@QAEAAV0@ABV0@@Z 20090930 f   LIBCMTD:undname.obj
 0001:0008f990       ??4DName@@QAEAAV0@D@Z      20090990 f i LIBCMTD:undname.obj
 0001:0008fa70       ??4DName@@QAEAAV0@PBD@Z    20090a70 f   LIBCMTD:undname.obj
 0001:0008fb50       ??4DName@@QAEAAV0@ABV0@@Z  20090b50 f   LIBCMTD:undname.obj
 0001:0008fb80       ??4DName@@QAEAAV0@PAV0@@Z  20090b80 f   LIBCMTD:undname.obj
 0001:0008fcc0       ??4DName@@QAEAAV0@W4DNameStatus@@@Z 20090cc0 f   LIBCMTD:undname.obj
 0001:0008fdc0       ?doPchar@DName@@AAEXPBDH@Z 20090dc0 f   LIBCMTD:undname.obj
 0001:0008ff00       ?isFull@Replicator@@QBEHXZ 20090f00 f i LIBCMTD:undname.obj
 0001:0008ff20       ??0Replicator@@QAE@XZ      20090f20 f i LIBCMTD:undname.obj
 0001:0008ff40       ??YReplicator@@QAEAAV0@ABVDName@@@Z 20090f40 f   LIBCMTD:undname.obj
 0001:0008ffd0       ??AReplicator@@QBE?AVDName@@H@Z 20090fd0 f   LIBCMTD:undname.obj
 0001:00090040       ??0DNameNode@@IAE@XZ       20091040 f   LIBCMTD:undname.obj
 0001:00090060       ??0charNode@@QAE@D@Z       20091060 f   LIBCMTD:undname.obj
 0001:00090090       ?length@charNode@@UBEHXZ   20091090 f i LIBCMTD:undname.obj
 0001:000900b0       ?getLastChar@charNode@@UBEDXZ 200910b0 f i LIBCMTD:undname.obj
 0001:000900d0       ?getString@charNode@@UBEPADPAD0@Z 200910d0 f i LIBCMTD:undname.obj
 0001:00090100       ??0pcharNode@@QAE@PBDH@Z   20091100 f   LIBCMTD:undname.obj
 0001:00090190       ?length@pcharNode@@UBEHXZ  20091190 f i LIBCMTD:undname.obj
 0001:000901b0       ?getLastChar@pcharNode@@UBEDXZ 200911b0 f i LIBCMTD:undname.obj
 0001:000901f0       ?getString@pcharNode@@UBEPADPAD0@Z 200911f0 f i LIBCMTD:undname.obj
 0001:00090220       ?getStringHelper@@YAPADPAD00H@Z 20091220 f i LIBCMTD:undname.obj
 0001:00090260       ??0pDNameNode@@QAE@PAVDName@@@Z 20091260 f   LIBCMTD:undname.obj
 0001:000902c0       ?length@pDNameNode@@UBEHXZ 200912c0 f i LIBCMTD:undname.obj
 0001:00090300       ?getLastChar@pDNameNode@@UBEDXZ 20091300 f i LIBCMTD:undname.obj
 0001:00090330       ?getString@pDNameNode@@UBEPADPAD0@Z 20091330 f i LIBCMTD:undname.obj
 0001:00090370       ??0DNameStatusNode@@AAE@W4DNameStatus@@@Z 20091370 f   LIBCMTD:undname.obj
 0001:000903c0       ?length@DNameStatusNode@@UBEHXZ 200913c0 f i LIBCMTD:undname.obj
 0001:000903e0       ?getLastChar@DNameStatusNode@@UBEDXZ 200913e0 f i LIBCMTD:undname.obj
 0001:00090400       ?getString@DNameStatusNode@@UBEPADPAD0@Z 20091400 f i LIBCMTD:undname.obj
 0001:00090440       ?make@DNameStatusNode@@SAPAV1@W4DNameStatus@@@Z 20091440 f i LIBCMTD:undname.obj
 0001:000904f0       ??0pairNode@@QAE@PAVDNameNode@@0@Z 200914f0 f   LIBCMTD:undname.obj
 0001:00090530       ?length@pairNode@@UBEHXZ   20091530 f i LIBCMTD:undname.obj
 0001:00090580       ?getLastChar@pairNode@@UBEDXZ 20091580 f i LIBCMTD:undname.obj
 0001:000905d0       ?getString@pairNode@@UBEPADPAD0@Z 200915d0 f i LIBCMTD:undname.obj
 0001:00090710       __wchartodigit             20091710 f   LIBCMTD:wchtodig.obj
 0001:00090a40       __purecall                 20091a40 f   LIBCMTD:purevirt.obj
 0001:00090a80       __set_purecall_handler     20091a80 f   LIBCMTD:purevirt.obj
 0001:00090ac0       __get_purecall_handler     20091ac0 f   LIBCMTD:purevirt.obj
 0001:00090ad4       _GetSystemTimeAsFileTime@4 20091ad4 f   kernel32:KERNEL32.dll
 0001:00090ada       _GetCurrentThreadId@0      20091ada f   kernel32:KERNEL32.dll
 0001:00090ae0       _DecodePointer@4           20091ae0 f   kernel32:KERNEL32.dll
 0001:00090ae6       _GetCommandLineA@0         20091ae6 f   kernel32:KERNEL32.dll
 0001:00090aec       _EncodePointer@4           20091aec f   kernel32:KERNEL32.dll
 0001:00090af2       _TlsAlloc@0                20091af2 f   kernel32:KERNEL32.dll
 0001:00090af8       _TlsGetValue@4             20091af8 f   kernel32:KERNEL32.dll
 0001:00090afe       _TlsSetValue@8             20091afe f   kernel32:KERNEL32.dll
 0001:00090b04       _TlsFree@4                 20091b04 f   kernel32:KERNEL32.dll
 0001:00090b0a       _GetProcAddress@8          20091b0a f   kernel32:KERNEL32.dll
 0001:00090b10       _GetModuleHandleW@4        20091b10 f   kernel32:KERNEL32.dll
 0001:00090b16       _InterlockedIncrement@4    20091b16 f   kernel32:KERNEL32.dll
 0001:00090b1c       _SetLastError@4            20091b1c f   kernel32:KERNEL32.dll
 0001:00090b22       _GetLastError@0            20091b22 f   kernel32:KERNEL32.dll
 0001:00090b28       _InterlockedDecrement@4    20091b28 f   kernel32:KERNEL32.dll
 0001:00090b2e       _GetCurrentThread@0        20091b2e f   kernel32:KERNEL32.dll
 0001:00090b34       _TerminateProcess@8        20091b34 f   kernel32:KERNEL32.dll
 0001:00090b3a       _GetCurrentProcess@0       20091b3a f   kernel32:KERNEL32.dll
 0001:00090b40       _UnhandledExceptionFilter@4 20091b40 f   kernel32:KERNEL32.dll
 0001:00090b46       _SetUnhandledExceptionFilter@4 20091b46 f   kernel32:KERNEL32.dll
 0001:00090b4c       _IsDebuggerPresent@0       20091b4c f   kernel32:KERNEL32.dll
 0001:00090b52       _IsProcessorFeaturePresent@4 20091b52 f   kernel32:KERNEL32.dll
 0001:00090b58       _GetModuleFileNameW@12     20091b58 f   kernel32:KERNEL32.dll
 0001:00090b5e       _RaiseException@16         20091b5e f   kernel32:KERNEL32.dll
 0001:00090b64       _HeapValidate@12           20091b64 f   kernel32:KERNEL32.dll
 0001:00090b6a       _IsBadReadPtr@8            20091b6a f   kernel32:KERNEL32.dll
 0001:00090b70       _WideCharToMultiByte@32    20091b70 f   kernel32:KERNEL32.dll
 0001:00090b76       _GetTimeZoneInformation@4  20091b76 f   kernel32:KERNEL32.dll
 0001:00090b7c       _EnterCriticalSection@4    20091b7c f   kernel32:KERNEL32.dll
 0001:00090b82       _LeaveCriticalSection@4    20091b82 f   kernel32:KERNEL32.dll
 0001:00090b88       _WriteFile@20              20091b88 f   kernel32:KERNEL32.dll
 0001:00090b8e       _GetConsoleCP@0            20091b8e f   kernel32:KERNEL32.dll
 0001:00090b94       _GetConsoleMode@8          20091b94 f   kernel32:KERNEL32.dll
 0001:00090b9a       _MultiByteToWideChar@24    20091b9a f   kernel32:KERNEL32.dll
 0001:00090ba0       _ReadFile@20               20091ba0 f   kernel32:KERNEL32.dll
 0001:00090ba6       _CloseHandle@4             20091ba6 f   kernel32:KERNEL32.dll
 0001:00090bac       _InitializeCriticalSectionAndSpinCount@8 20091bac f   kernel32:KERNEL32.dll
 0001:00090bb2       _RtlUnwind@16              20091bb2 f   kernel32:KERNEL32.dll
 0001:00090bb8       _GetACP@0                  20091bb8 f   kernel32:KERNEL32.dll
 0001:00090bbe       _GetOEMCP@0                20091bbe f   kernel32:KERNEL32.dll
 0001:00090bc4       _GetCPInfo@8               20091bc4 f   kernel32:KERNEL32.dll
 0001:00090bca       _IsValidCodePage@4         20091bca f   kernel32:KERNEL32.dll
 0001:00090bd0       _SetHandleCount@4          20091bd0 f   kernel32:KERNEL32.dll
 0001:00090bd6       _GetStdHandle@4            20091bd6 f   kernel32:KERNEL32.dll
 0001:00090bdc       _GetFileType@4             20091bdc f   kernel32:KERNEL32.dll
 0001:00090be2       _GetStartupInfoW@4         20091be2 f   kernel32:KERNEL32.dll
 0001:00090be8       _DeleteCriticalSection@4   20091be8 f   kernel32:KERNEL32.dll
 0001:00090bee       _ExitProcess@4             20091bee f   kernel32:KERNEL32.dll
 0001:00090bf4       _GetModuleFileNameA@12     20091bf4 f   kernel32:KERNEL32.dll
 0001:00090bfa       _FreeEnvironmentStringsW@4 20091bfa f   kernel32:KERNEL32.dll
 0001:00090c00       _GetEnvironmentStringsW@0  20091c00 f   kernel32:KERNEL32.dll
 0001:00090c06       _HeapCreate@12             20091c06 f   kernel32:KERNEL32.dll
 0001:00090c0c       _HeapDestroy@4             20091c0c f   kernel32:KERNEL32.dll
 0001:00090c12       _QueryPerformanceCounter@4 20091c12 f   kernel32:KERNEL32.dll
 0001:00090c18       _GetTickCount@0            20091c18 f   kernel32:KERNEL32.dll
 0001:00090c1e       _GetCurrentProcessId@0     20091c1e f   kernel32:KERNEL32.dll
 0001:00090c24       _FatalAppExitA@8           20091c24 f   kernel32:KERNEL32.dll
 0001:00090c2a       _OutputDebugStringA@4      20091c2a f   kernel32:KERNEL32.dll
 0001:00090c30       _WriteConsoleW@20          20091c30 f   kernel32:KERNEL32.dll
 0001:00090c36       _OutputDebugStringW@4      20091c36 f   kernel32:KERNEL32.dll
 0001:00090c3c       _SetConsoleCtrlHandler@8   20091c3c f   kernel32:KERNEL32.dll
 0001:00090c42       _LoadLibraryW@4            20091c42 f   kernel32:KERNEL32.dll
 0001:00090c48       _SetFilePointer@16         20091c48 f   kernel32:KERNEL32.dll
 0001:00090c4e       _HeapAlloc@12              20091c4e f   kernel32:KERNEL32.dll
 0001:00090c54       _HeapReAlloc@16            20091c54 f   kernel32:KERNEL32.dll
 0001:00090c5a       _HeapSize@12               20091c5a f   kernel32:KERNEL32.dll
 0001:00090c60       _HeapQueryInformation@20   20091c60 f   kernel32:KERNEL32.dll
 0001:00090c66       _HeapFree@12               20091c66 f   kernel32:KERNEL32.dll
 0001:00090c6c       _SetStdHandle@8            20091c6c f   kernel32:KERNEL32.dll
 0001:00090c72       _FlushFileBuffers@4        20091c72 f   kernel32:KERNEL32.dll
 0001:00090c78       _CreateFileA@28            20091c78 f   kernel32:KERNEL32.dll
 0001:00090c7e       _GetStringTypeW@16         20091c7e f   kernel32:KERNEL32.dll
 0001:00090c84       _LCMapStringW@24           20091c84 f   kernel32:KERNEL32.dll
 0001:00090c8a       _GetLocaleInfoA@16         20091c8a f   kernel32:KERNEL32.dll
 0001:00090c90       _IsValidLocale@8           20091c90 f   kernel32:KERNEL32.dll
 0001:00090c96       _EnumSystemLocalesA@8      20091c96 f   kernel32:KERNEL32.dll
 0001:00090c9c       _GetUserDefaultLCID@0      20091c9c f   kernel32:KERNEL32.dll
 0001:00090ca2       _GetLocaleInfoW@16         20091ca2 f   kernel32:KERNEL32.dll
 0001:00090ca8       _FreeLibrary@4             20091ca8 f   kernel32:KERNEL32.dll
 0001:00090cae       _InterlockedExchange@8     20091cae f   kernel32:KERNEL32.dll
 0001:00090cb4       _CreateFileW@28            20091cb4 f   kernel32:KERNEL32.dll
 0001:00090cba       _SetEndOfFile@4            20091cba f   kernel32:KERNEL32.dll
 0001:00090cc0       _GetProcessHeap@0          20091cc0 f   kernel32:KERNEL32.dll
 0001:00090cc6       _CompareStringW@24         20091cc6 f   kernel32:KERNEL32.dll
 0001:00090ccc       _SetEnvironmentVariableA@8 20091ccc f   kernel32:KERNEL32.dll
 0001:00090ce0       _strdup                    20091ce0 f   LIBCMTD:strdup.obj
 0001:00090ce0       __strdup                   20091ce0 f   LIBCMTD:strdup.obj
 0001:00090d00       __strdup_dbg               20091d00 f   LIBCMTD:strdup.obj
 0002:00000000       __imp__GetSystemTimeAsFileTime@4 20092000     kernel32:KERNEL32.dll
 0002:00000004       __imp__GetCurrentThreadId@0 20092004     kernel32:KERNEL32.dll
 0002:00000008       __imp__DecodePointer@4     20092008     kernel32:KERNEL32.dll
 0002:0000000c       __imp__GetCommandLineA@0   2009200c     kernel32:KERNEL32.dll
 0002:00000010       __imp__EncodePointer@4     20092010     kernel32:KERNEL32.dll
 0002:00000014       __imp__TlsAlloc@0          20092014     kernel32:KERNEL32.dll
 0002:00000018       __imp__TlsGetValue@4       20092018     kernel32:KERNEL32.dll
 0002:0000001c       __imp__TlsSetValue@8       2009201c     kernel32:KERNEL32.dll
 0002:00000020       __imp__TlsFree@4           20092020     kernel32:KERNEL32.dll
 0002:00000024       __imp__GetProcAddress@8    20092024     kernel32:KERNEL32.dll
 0002:00000028       __imp__GetModuleHandleW@4  20092028     kernel32:KERNEL32.dll
 0002:0000002c       __imp__InterlockedIncrement@4 2009202c     kernel32:KERNEL32.dll
 0002:00000030       __imp__SetLastError@4      20092030     kernel32:KERNEL32.dll
 0002:00000034       __imp__GetLastError@0      20092034     kernel32:KERNEL32.dll
 0002:00000038       __imp__InterlockedDecrement@4 20092038     kernel32:KERNEL32.dll
 0002:0000003c       __imp__GetCurrentThread@0  2009203c     kernel32:KERNEL32.dll
 0002:00000040       __imp__TerminateProcess@8  20092040     kernel32:KERNEL32.dll
 0002:00000044       __imp__GetCurrentProcess@0 20092044     kernel32:KERNEL32.dll
 0002:00000048       __imp__UnhandledExceptionFilter@4 20092048     kernel32:KERNEL32.dll
 0002:0000004c       __imp__SetUnhandledExceptionFilter@4 2009204c     kernel32:KERNEL32.dll
 0002:00000050       __imp__IsDebuggerPresent@0 20092050     kernel32:KERNEL32.dll
 0002:00000054       __imp__IsProcessorFeaturePresent@4 20092054     kernel32:KERNEL32.dll
 0002:00000058       __imp__GetModuleFileNameW@12 20092058     kernel32:KERNEL32.dll
 0002:0000005c       __imp__RaiseException@16   2009205c     kernel32:KERNEL32.dll
 0002:00000060       __imp__HeapValidate@12     20092060     kernel32:KERNEL32.dll
 0002:00000064       __imp__IsBadReadPtr@8      20092064     kernel32:KERNEL32.dll
 0002:00000068       __imp__WideCharToMultiByte@32 20092068     kernel32:KERNEL32.dll
 0002:0000006c       __imp__GetTimeZoneInformation@4 2009206c     kernel32:KERNEL32.dll
 0002:00000070       __imp__EnterCriticalSection@4 20092070     kernel32:KERNEL32.dll
 0002:00000074       __imp__LeaveCriticalSection@4 20092074     kernel32:KERNEL32.dll
 0002:00000078       __imp__WriteFile@20        20092078     kernel32:KERNEL32.dll
 0002:0000007c       __imp__GetConsoleCP@0      2009207c     kernel32:KERNEL32.dll
 0002:00000080       __imp__GetConsoleMode@8    20092080     kernel32:KERNEL32.dll
 0002:00000084       __imp__MultiByteToWideChar@24 20092084     kernel32:KERNEL32.dll
 0002:00000088       __imp__ReadFile@20         20092088     kernel32:KERNEL32.dll
 0002:0000008c       __imp__CloseHandle@4       2009208c     kernel32:KERNEL32.dll
 0002:00000090       __imp__InitializeCriticalSectionAndSpinCount@8 20092090     kernel32:KERNEL32.dll
 0002:00000094       __imp__RtlUnwind@16        20092094     kernel32:KERNEL32.dll
 0002:00000098       __imp__GetACP@0            20092098     kernel32:KERNEL32.dll
 0002:0000009c       __imp__GetOEMCP@0          2009209c     kernel32:KERNEL32.dll
 0002:000000a0       __imp__GetCPInfo@8         200920a0     kernel32:KERNEL32.dll
 0002:000000a4       __imp__IsValidCodePage@4   200920a4     kernel32:KERNEL32.dll
 0002:000000a8       __imp__SetHandleCount@4    200920a8     kernel32:KERNEL32.dll
 0002:000000ac       __imp__GetStdHandle@4      200920ac     kernel32:KERNEL32.dll
 0002:000000b0       __imp__GetFileType@4       200920b0     kernel32:KERNEL32.dll
 0002:000000b4       __imp__GetStartupInfoW@4   200920b4     kernel32:KERNEL32.dll
 0002:000000b8       __imp__DeleteCriticalSection@4 200920b8     kernel32:KERNEL32.dll
 0002:000000bc       __imp__ExitProcess@4       200920bc     kernel32:KERNEL32.dll
 0002:000000c0       __imp__GetModuleFileNameA@12 200920c0     kernel32:KERNEL32.dll
 0002:000000c4       __imp__FreeEnvironmentStringsW@4 200920c4     kernel32:KERNEL32.dll
 0002:000000c8       __imp__GetEnvironmentStringsW@0 200920c8     kernel32:KERNEL32.dll
 0002:000000cc       __imp__HeapCreate@12       200920cc     kernel32:KERNEL32.dll
 0002:000000d0       __imp__HeapDestroy@4       200920d0     kernel32:KERNEL32.dll
 0002:000000d4       __imp__QueryPerformanceCounter@4 200920d4     kernel32:KERNEL32.dll
 0002:000000d8       __imp__GetTickCount@0      200920d8     kernel32:KERNEL32.dll
 0002:000000dc       __imp__GetCurrentProcessId@0 200920dc     kernel32:KERNEL32.dll
 0002:000000e0       __imp__FatalAppExitA@8     200920e0     kernel32:KERNEL32.dll
 0002:000000e4       __imp__OutputDebugStringA@4 200920e4     kernel32:KERNEL32.dll
 0002:000000e8       __imp__WriteConsoleW@20    200920e8     kernel32:KERNEL32.dll
 0002:000000ec       __imp__OutputDebugStringW@4 200920ec     kernel32:KERNEL32.dll
 0002:000000f0       __imp__SetConsoleCtrlHandler@8 200920f0     kernel32:KERNEL32.dll
 0002:000000f4       __imp__LoadLibraryW@4      200920f4     kernel32:KERNEL32.dll
 0002:000000f8       __imp__SetFilePointer@16   200920f8     kernel32:KERNEL32.dll
 0002:000000fc       __imp__HeapAlloc@12        200920fc     kernel32:KERNEL32.dll
 0002:00000100       __imp__HeapReAlloc@16      20092100     kernel32:KERNEL32.dll
 0002:00000104       __imp__HeapSize@12         20092104     kernel32:KERNEL32.dll
 0002:00000108       __imp__HeapQueryInformation@20 20092108     kernel32:KERNEL32.dll
 0002:0000010c       __imp__HeapFree@12         2009210c     kernel32:KERNEL32.dll
 0002:00000110       __imp__SetStdHandle@8      20092110     kernel32:KERNEL32.dll
 0002:00000114       __imp__FlushFileBuffers@4  20092114     kernel32:KERNEL32.dll
 0002:00000118       __imp__CreateFileA@28      20092118     kernel32:KERNEL32.dll
 0002:0000011c       __imp__GetStringTypeW@16   2009211c     kernel32:KERNEL32.dll
 0002:00000120       __imp__LCMapStringW@24     20092120     kernel32:KERNEL32.dll
 0002:00000124       __imp__GetLocaleInfoA@16   20092124     kernel32:KERNEL32.dll
 0002:00000128       __imp__IsValidLocale@8     20092128     kernel32:KERNEL32.dll
 0002:0000012c       __imp__EnumSystemLocalesA@8 2009212c     kernel32:KERNEL32.dll
 0002:00000130       __imp__GetUserDefaultLCID@0 20092130     kernel32:KERNEL32.dll
 0002:00000134       __imp__GetLocaleInfoW@16   20092134     kernel32:KERNEL32.dll
 0002:00000138       __imp__FreeLibrary@4       20092138     kernel32:KERNEL32.dll
 0002:0000013c       __imp__InterlockedExchange@8 2009213c     kernel32:KERNEL32.dll
 0002:00000140       __imp__CreateFileW@28      20092140     kernel32:KERNEL32.dll
 0002:00000144       __imp__SetEndOfFile@4      20092144     kernel32:KERNEL32.dll
 0002:00000148       __imp__GetProcessHeap@0    20092148     kernel32:KERNEL32.dll
 0002:0000014c       __imp__CompareStringW@24   2009214c     kernel32:KERNEL32.dll
 0002:00000150       __imp__SetEnvironmentVariableA@8 20092150     kernel32:KERNEL32.dll
 0002:00000154       \177KERNEL32_NULL_THUNK_DATA 20092154     kernel32:KERNEL32.dll
 0002:00000158       ___xc_a                    20092158     LIBCMTD:crt0init.obj
 0002:0000015c       ___xc_z                    2009215c     LIBCMTD:crt0init.obj
 0002:00000160       ___xi_a                    20092160     LIBCMTD:crt0init.obj
 0002:00000178       ___xi_z                    20092178     LIBCMTD:crt0init.obj
 0002:0000017c       ___xp_a                    2009217c     LIBCMTD:crt0init.obj
 0002:0000018c       ___xp_z                    2009218c     LIBCMTD:crt0init.obj
 0002:00000190       ___xt_a                    20092190     LIBCMTD:crt0init.obj
 0002:00000194       ___xt_z                    20092194     LIBCMTD:crt0init.obj
 0002:000001c0       __real@40dfffc000000000    200921c0     g_ai.obj
 0002:000001c8       __real@402e000000000000    200921c8     g_ai.obj
 0002:000001d0       __real@00000000            200921d0     g_ai.obj
 0002:000001d8       __real@0000000000000000    200921d8     g_ai.obj
 0002:000001e0       __real@408f400000000000    200921e0     g_ai.obj
 0002:000001e8       __real@407f400000000000    200921e8     g_ai.obj
 0002:000001f0       __real@4054000000000000    200921f0     g_ai.obj
 0002:000001f8       __real@3ff0000000000000    200921f8     g_ai.obj
 0002:00000200       __real@3fd3333333333333    20092200     g_ai.obj
 0002:00000208       __real@3f800000            20092208     g_ai.obj
 0002:0000020c       ??_C@_0CF@HHCKLLCG@?$CFs?5at?5?$CFs?0?5combattarget?5?$CFs?5not?5fo@ 2009220c     g_ai.obj
 0002:00000234       ??_C@_0N@PALCLHFG@player_noise?$AA@ 20092234     g_ai.obj
 0002:00000244       ??_C@_0N@OANCMICM@target_actor?$AA@ 20092244     g_ai.obj
 0002:00000258       __real@4073b00000000000    20092258     g_ai.obj
 0002:00000260       __real@4046800000000000    20092260     g_ai.obj
 0002:00000268       __real@4000000000000000    20092268     g_ai.obj
 0002:00000270       __real@3fe0000000000000    20092270     g_ai.obj
 0002:00000278       __real@3ca3d70a            20092278     g_ai.obj
 0002:0000027c       __real@3dcccccd            2009227c     g_ai.obj
 0002:00000280       __real@3e4ccccd            20092280     g_ai.obj
 0002:00000284       __real@3ecccccd            20092284     g_ai.obj
 0002:00000288       __real@c2b40000            20092288     g_ai.obj
 0002:0000028c       __real@42b40000            2009228c     g_ai.obj
 0002:00000290       __real@4197d78400000000    20092290     g_ai.obj
 0002:00000298       __real@4014000000000000    20092298     g_ai.obj
 0002:000002a0       __real@41800000            200922a0     g_ai.obj
 0002:000002a4       __real@c1800000            200922a4     g_ai.obj
 0002:000002a8       __real@4034000000000000    200922a8     g_ai.obj
 0002:000002b0       __real@4050000000000000    200922b0     g_ai.obj
 0002:000002b8       __real@c1700000            200922b8     g_chase.obj
 0002:000002bc       __real@42200000            200922bc     g_chase.obj
 0002:000002c0       __real@4076800000000000    200922c0     g_chase.obj
 0002:000002c8       __real@40f0000000000000    200922c8     g_chase.obj
 0002:000002d0       __real@4018000000000000    200922d0     g_chase.obj
 0002:000002d8       __real@40000000            200922d8     g_chase.obj
 0002:000002e0       __real@4030000000000000    200922e0     g_chase.obj
 0002:000002e8       __real@c1f00000            200922e8     g_chase.obj
 0002:000002ec       __real@42600000            200922ec     g_chase.obj
 0002:000002f0       __real@404c000000000000    200922f0     g_chase.obj
 0002:000002f8       ??_C@_0BL@MIAAFBGF@No?5other?5players?5to?5chase?4?$AA@ 200922f8     g_chase.obj
 0002:00000314       ??_C@_04NHPAFEHJ@skin?$AA@ 20092314     g_cmds.obj
 0002:0000031c       ??_C@_0BB@MFPPLKBC@non?9pickup?5item?6?$AA@ 2009231c     g_cmds.obj
 0002:00000330       ??_C@_0O@MELMCNGH@unknown?5item?6?$AA@ 20092330     g_cmds.obj
 0002:00000340       ??_C@_0N@EKCPIMMD@Power?5Shield?$AA@ 20092340     g_cmds.obj
 0002:00000350       ??_C@_0L@JHEFAAJO@Body?5Armor?$AA@ 20092350     g_cmds.obj
 0002:0000035c       ??_C@_0N@JIDPFJND@Combat?5Armor?$AA@ 2009235c     g_cmds.obj
 0002:0000036c       ??_C@_0N@FBENBOF@Jacket?5Armor?$AA@ 2009236c     g_cmds.obj
 0002:0000037c       ??_C@_05JJEJIJLL@armor?$AA@ 2009237c     g_cmds.obj
 0002:00000384       ??_C@_04PGKJFGNK@ammo?$AA@ 20092384     g_cmds.obj
 0002:0000038c       ??_C@_07PKKCMMCH@weapons?$AA@ 2009238c     g_cmds.obj
 0002:00000394       ??_C@_06KJINILIP@health?$AA@ 20092394     g_cmds.obj
 0002:0000039c       ??_C@_03NFKEKGGK@all?$AA@  2009239c     g_cmds.obj
 0002:000003a0       ??_C@_0EG@GDMPDOEH@You?5must?5run?5the?5server?5with?5?8?$CLs@ 200923a0     g_cmds.obj
 0002:000003e8       ??_C@_0M@MCLKHHDH@godmode?5ON?6?$AA@ 200923e8     g_cmds.obj
 0002:000003f4       ??_C@_0N@POKEKLLJ@godmode?5OFF?6?$AA@ 200923f4     g_cmds.obj
 0002:00000404       ??_C@_0N@OBJNJDJO@notarget?5ON?6?$AA@ 20092404     g_cmds.obj
 0002:00000414       ??_C@_0O@FBINJHBB@notarget?5OFF?6?$AA@ 20092414     g_cmds.obj
 0002:00000424       ??_C@_0L@MDMNIPJN@noclip?5ON?6?$AA@ 20092424     g_cmds.obj
 0002:00000430       ??_C@_0M@MIKGJGLH@noclip?5OFF?6?$AA@ 20092430     g_cmds.obj
 0002:0000043c       ??_C@_0BB@IMJMOMPG@Out?5of?5item?3?5?$CFs?6?$AA@ 2009243c     g_cmds.obj
 0002:00000450       ??_C@_0BF@OHMCMEFN@Item?5is?5not?5usable?4?6?$AA@ 20092450     g_cmds.obj
 0002:00000468       ??_C@_0BC@LMBCLEDC@unknown?5item?3?5?$CFs?6?$AA@ 20092468     g_cmds.obj
 0002:0000047c       ??_C@_0BH@BAGCGBOH@Item?5is?5not?5dropable?4?6?$AA@ 2009247c     g_cmds.obj
 0002:00000494       ??_C@_0BB@GDFGHJOB@No?5item?5to?5use?4?6?$AA@ 20092494     g_cmds.obj
 0002:000004a8       ??_C@_0BC@HJFCKGMO@No?5item?5to?5drop?4?6?$AA@ 200924a8     g_cmds.obj
 0002:000004bc       ??_C@_0P@JBNOEIOA@?$CFs?6?$CFi?5players?6?$AA@ 200924bc     g_cmds.obj
 0002:000004cc       ??_C@_04MPPNMCOK@?4?4?4?6?$AA@ 200924cc     g_cmds.obj
 0002:000004d4       ??_C@_07GHEOODHC@?$CF3i?5?$CFs?6?$AA@ 200924d4     g_cmds.obj
 0002:000004dc       ??_C@_06JBJFPACP@point?6?$AA@ 200924dc     g_cmds.obj
 0002:000004e4       ??_C@_05GOPCDNJ@wave?6?$AA@ 200924e4     g_cmds.obj
 0002:000004ec       ??_C@_06PKMAMPMP@taunt?6?$AA@ 200924ec     g_cmds.obj
 0002:000004f4       ??_C@_07ILGJIHKA@salute?6?$AA@ 200924f4     g_cmds.obj
 0002:000004fc       ??_C@_08BHFNLFCH@flipoff?6?$AA@ 200924fc     g_cmds.obj
 0002:00000508       ??_C@_02DKCKIIND@?$CFs?$AA@ 20092508     g_cmds.obj
 0002:0000050c       ??_C@_0DD@NDLICADG@Flood?5protection?3?5?5You?5can?8t?5tal@ 2009250c     g_cmds.obj
 0002:00000540       ??_C@_0CE@GPOLBCJB@You?5can?8t?5talk?5for?5?$CFd?5more?5secon@ 20092540     g_cmds.obj
 0002:00000564       ??_C@_01EEMJAFIK@?6?$AA@   20092564     g_cmds.obj
 0002:00000568       ??_C@_01CLKCMJKC@?5?$AA@   20092568     g_cmds.obj
 0002:0000056c       ??_C@_04PFAOODAA@?$CFs?3?5?$AA@ 2009256c     g_cmds.obj
 0002:00000574       ??_C@_06BGJAPNLA@?$CI?$CFs?$CJ?3?5?$AA@ 20092574     g_cmds.obj
 0002:0000057c       ??_C@_0N@IPKKOJCI@And?5more?4?4?4?6?$AA@ 2009257c     g_cmds.obj
 0002:0000058c       ??_C@_0BI@KNLHMCDG@?$CF02d?3?$CF02d?5?$CF4d?5?$CF3d?5?$CFs?$CFs?6?$AA@ 2009258c     g_cmds.obj
 0002:000005a4       ??_C@_00CNPNBAHC@?$AA@     200925a4     g_cmds.obj
 0002:000005a8       ??_C@_0N@CDHKCHBP@?5?$CIspectator?$CJ?$AA@ 200925a8     g_cmds.obj
 0002:000005b8       ??_C@_0L@MBOKGAPE@playerlist?$AA@ 200925b8     g_cmds.obj
 0002:000005c4       ??_C@_04LJEDCPFL@wave?$AA@ 200925c4     g_cmds.obj
 0002:000005cc       ??_C@_07PNDMKECN@putaway?$AA@ 200925cc     g_cmds.obj
 0002:000005d4       ??_C@_04BJJEOANI@kill?$AA@ 200925d4     g_cmds.obj
 0002:000005dc       ??_C@_08PBGAMBND@weaplast?$AA@ 200925dc     g_cmds.obj
 0002:000005e8       ??_C@_08IJHOKAF@weapnext?$AA@ 200925e8     g_cmds.obj
 0002:000005f4       ??_C@_08DMEBPOGB@weapprev?$AA@ 200925f4     g_cmds.obj
 0002:00000600       ??_C@_07JCLLAOBD@invdrop?$AA@ 20092600     g_cmds.obj
 0002:00000608       ??_C@_06CKANELLH@invuse?$AA@ 20092608     g_cmds.obj
 0002:00000610       ??_C@_08FIGEFPHN@invprevp?$AA@ 20092610     g_cmds.obj
 0002:0000061c       ??_C@_08BCIPCMCI@invnextp?$AA@ 2009261c     g_cmds.obj
 0002:00000628       ??_C@_08BHCFMJLK@invprevw?$AA@ 20092628     g_cmds.obj
 0002:00000634       ??_C@_08FNMOLKOP@invnextw?$AA@ 20092634     g_cmds.obj
 0002:00000640       ??_C@_07FMBGBNAB@invprev?$AA@ 20092640     g_cmds.obj
 0002:00000648       ??_C@_07GIMAAJGF@invnext?$AA@ 20092648     g_cmds.obj
 0002:00000650       ??_C@_05LMPCHJEA@inven?$AA@ 20092650     g_cmds.obj
 0002:00000658       ??_C@_06IHODGGMJ@noclip?$AA@ 20092658     g_cmds.obj
 0002:00000660       ??_C@_08HPLPOCJL@notarget?$AA@ 20092660     g_cmds.obj
 0002:0000066c       ??_C@_03DKFAMNOH@god?$AA@  2009266c     g_cmds.obj
 0002:00000670       ??_C@_04BMBHJADG@give?$AA@ 20092670     g_cmds.obj
 0002:00000678       ??_C@_04PIONEEJD@drop?$AA@ 20092678     g_cmds.obj
 0002:00000680       ??_C@_03MMGHDJKG@use?$AA@  20092680     g_cmds.obj
 0002:00000684       ??_C@_04PCJFHION@help?$AA@ 20092684     g_cmds.obj
 0002:0000068c       ??_C@_05DBKDOICH@score?$AA@ 2009268c     g_cmds.obj
 0002:00000694       ??_C@_08NBFNGOHN@say_team?$AA@ 20092694     g_cmds.obj
 0002:000006a0       ??_C@_03BANJEMDJ@say?$AA@  200926a0     g_cmds.obj
 0002:000006a4       ??_C@_07BCGOFIOM@players?$AA@ 200926a4     g_cmds.obj
 0002:000006ac       __real@3f000000            200926ac     g_combat.obj
 0002:000006b0       ??_C@_0O@BANHFPFJ@monster_medic?$AA@ 200926b0     g_combat.obj
 0002:000006c0       ??_C@_0N@ICCLPNEA@monster_jorg?$AA@ 200926c0     g_combat.obj
 0002:000006d0       ??_C@_0P@HOBKIEBL@monster_makron?$AA@ 200926d0     g_combat.obj
 0002:000006e0       ??_C@_0BC@CLNPJPIH@monster_supertank?$AA@ 200926e0     g_combat.obj
 0002:000006f4       ??_C@_0N@EKNLGII@monster_tank?$AA@ 200926f4     g_combat.obj
 0002:00000708       __real@4008000000000000    20092708     g_combat.obj
 0002:00000710       ??_C@_0BD@FAFHPKHM@items?1protect4?4wav?$AA@ 20092710     g_combat.obj
 0002:00000728       __real@4099000000000000    20092728     g_combat.obj
 0002:00000730       __real@42480000            20092730     g_combat.obj
 0002:00000738       __real@3fc999999999999a    20092738     g_combat.obj
 0002:00000740       ??_C@_05KCAMIOGJ@Cells?$AA@ 20092740     g_combat.obj
 0002:00000748       __real@3fb999999999999a    20092748     g_func.obj
 0002:00000750       __real@41200000            20092750     g_func.obj
 0002:00000758       __real@c000000000000000    20092758     g_func.obj
 0002:00000760       __real@4010000000000000    20092760     g_func.obj
 0002:00000768       __real@4024000000000000    20092768     g_func.obj
 0002:00000770       __real@40400000            20092770     g_func.obj
 0002:00000778       __real@4020000000000000    20092778     g_func.obj
 0002:00000780       __real@4039000000000000    20092780     g_func.obj
 0002:00000788       ??_C@_0BC@IGJNFFAK@plats?1pt1_end?4wav?$AA@ 20092788     g_func.obj
 0002:0000079c       ??_C@_0BC@JANPHADB@plats?1pt1_mid?4wav?$AA@ 2009279c     g_func.obj
 0002:000007b0       ??_C@_0BD@FLJECOEK@plats?1pt1_strt?4wav?$AA@ 200927b0     g_func.obj
 0002:000007c4       __real@40a00000            200927c4     g_func.obj
 0002:000007c8       __real@41a00000            200927c8     g_func.obj
 0002:000007cc       __real@42c80000            200927cc     g_func.obj
 0002:000007d0       ??_C@_0BD@BLOIHGDH@switches?1butn2?4wav?$AA@ 200927d0     g_func.obj
 0002:000007e4       ??_C@_0BA@GNFEIJEF@func_areaportal?$AA@ 200927e4     g_func.obj
 0002:000007f4       ??_C@_0BD@CAJBLNMK@func_door_rotating?$AA@ 200927f4     g_func.obj
 0002:00000808       ??_C@_09KJCKJKEG@func_door?$AA@ 20092808     g_func.obj
 0002:00000818       __real@404e000000000000    20092818     g_func.obj
 0002:00000820       ??_C@_0P@DEABNBPM@misc?1talk1?4wav?$AA@ 20092820     g_func.obj
 0002:00000830       ??_C@_0O@JPPDMPEP@misc?1talk?4wav?$AA@ 20092830     g_func.obj
 0002:00000840       ??_C@_0BC@BFNPLLAJ@doors?1dr1_end?4wav?$AA@ 20092840     g_func.obj
 0002:00000854       ??_C@_0BC@DJNJODC@doors?1dr1_mid?4wav?$AA@ 20092854     g_func.obj
 0002:00000868       ??_C@_0BD@MCAODNBO@doors?1dr1_strt?4wav?$AA@ 20092868     g_func.obj
 0002:0000087c       ??_C@_0BP@IMJJGBDF@?$CFs?5at?5?$CFs?5with?5no?5distance?5set?6?$AA@ 2009287c     g_func.obj
 0002:000008a0       __real@bff0000000000000    200928a0     g_func.obj
 0002:000008a8       __real@bf800000            200928a8     g_func.obj
 0002:000008ac       __real@41c80000            200928ac     g_func.obj
 0002:000008b0       ??_C@_0BD@IDICJJJL@world?1stp_watr?4wav?$AA@ 200928b0     g_func.obj
 0002:000008c4       ??_C@_0BD@FIFMLAEA@world?1mov_watr?4wav?$AA@ 200928c4     g_func.obj
 0002:000008d8       ??_C@_0CP@PCFHEGNI@connected?5teleport?5path_corners?0@ 200928d8     g_func.obj
 0002:00000908       ??_C@_0BL@LBOCDBCB@train_next?3?5bad?5target?5?$CFs?6?$AA@ 20092908     g_func.obj
 0002:00000924       ??_C@_0CB@JPLGIHFI@train_find?3?5target?5?$CFs?5not?5found?6@ 20092924     g_func.obj
 0002:00000948       ??_C@_0BH@LKHANHBM@train_find?3?5no?5target?6?$AA@ 20092948     g_func.obj
 0002:00000960       ??_C@_0CD@BNKPEMCB@func_train?5without?5a?5target?5at?5?$CF@ 20092960     g_func.obj
 0002:00000984       ??_C@_0CH@KPDIIPGA@elevator?5used?5with?5bad?5pathtarge@ 20092984     g_func.obj
 0002:000009ac       ??_C@_0CC@LKIIFFGM@elevator?5used?5with?5no?5pathtarget@ 200929ac     g_func.obj
 0002:000009d0       ??_C@_0CL@PFPHCNHB@trigger_elevator?5target?5?$CFs?5is?5no@ 200929d0     g_func.obj
 0002:000009fc       ??_C@_0L@PGCOCBM@func_train?$AA@ 200929fc     g_func.obj
 0002:00000a08       ??_C@_0CL@KCHDLKCC@trigger_elevator?5unable?5to?5find?5@ 20092a08     g_func.obj
 0002:00000a34       ??_C@_0CA@EJEALFPH@trigger_elevator?5has?5no?5target?6?$AA@ 20092a34     g_func.obj
 0002:00000a54       ??_C@_0CF@GJKCPHON@func_timer?5at?5?$CFs?5has?5random?5?$DO?$DN?5w@ 20092a54     g_func.obj
 0002:00000a80       ??_C@_0EM@MMOODBIH@items?1s_health?4wav?5items?1n_healt@ 20092a80     g_items.obj
 0002:00000acc       ??_C@_06GGDALCBD@Health?$AA@ 20092acc     g_items.obj
 0002:00000ad4       ??_C@_08KOCOJGMK@i_health?$AA@ 20092ad4     g_items.obj
 0002:00000ae0       ??_C@_0BB@LFGKDPKF@Airstrike?5Marker?$AA@ 20092ae0     g_items.obj
 0002:00000af4       ??_C@_0M@COAALNND@i_airstrike?$AA@ 20092af4     g_items.obj
 0002:00000b00       ??_C@_0CC@EDMAHNAA@models?1items?1keys?1target?1tris?4md@ 20092b00     g_items.obj
 0002:00000b24       ??_C@_0BF@LKLCDFKP@key_airstrike_target?$AA@ 20092b24     g_items.obj
 0002:00000b3c       ??_C@_0BB@BEIANAMA@Commander?8s?5Head?$AA@ 20092b3c     g_items.obj
 0002:00000b50       ??_C@_09OCFHFFHA@k_comhead?$AA@ 20092b50     g_items.obj
 0002:00000b5c       ??_C@_0CH@LOJAMHI@models?1monsters?1commandr?1head?1tr@ 20092b5c     g_items.obj
 0002:00000b84       ??_C@_0BD@HOMFPECB@key_commander_head?$AA@ 20092b84     g_items.obj
 0002:00000b98       ??_C@_07PKAAMBGP@Red?5Key?$AA@ 20092b98     g_items.obj
 0002:00000ba0       ??_C@_08FIHMCAFC@k_redkey?$AA@ 20092ba0     g_items.obj
 0002:00000bac       ??_C@_0CD@PHJKAKAI@models?1items?1keys?1red_key?1tris?4m@ 20092bac     g_items.obj
 0002:00000bd0       ??_C@_0M@BJMFLAJG@key_red_key?$AA@ 20092bd0     g_items.obj
 0002:00000bdc       ??_C@_08LFIKCPAN@Blue?5Key?$AA@ 20092bdc     g_items.obj
 0002:00000be8       ??_C@_09BALKLIMH@k_bluekey?$AA@ 20092be8     g_items.obj
 0002:00000bf4       ??_C@_0BP@BCIKHEC@models?1items?1keys?1key?1tris?4md2?$AA@ 20092bf4     g_items.obj
 0002:00000c14       ??_C@_0N@JBANOIPE@key_blue_key?$AA@ 20092c14     g_items.obj
 0002:00000c24       ??_C@_0O@LFNIPBF@Security?5Pass?$AA@ 20092c24     g_items.obj
 0002:00000c34       ??_C@_0L@HHDPBAHK@k_security?$AA@ 20092c34     g_items.obj
 0002:00000c40       ??_C@_0CA@GOOIFIAP@models?1items?1keys?1pass?1tris?4md2?$AA@ 20092c40     g_items.obj
 0002:00000c60       ??_C@_08PDAOPJLI@key_pass?$AA@ 20092c60     g_items.obj
 0002:00000c6c       ??_C@_0N@HKLDIPIE@Data?5Spinner?$AA@ 20092c6c     g_items.obj
 0002:00000c7c       ??_C@_0L@OGFGOF@k_dataspin?$AA@ 20092c7c     g_items.obj
 0002:00000c88       ??_C@_0CD@BIJLMBFK@models?1items?1keys?1spinner?1tris?4m@ 20092c88     g_items.obj
 0002:00000cac       ??_C@_0BB@FNPMLMDB@key_data_spinner?$AA@ 20092cac     g_items.obj
 0002:00000cc0       ??_C@_0M@HPAKAFPE@Pyramid?5Key?$AA@ 20092cc0     g_items.obj
 0002:00000ccc       ??_C@_09CAFKGBCE@k_pyramid?$AA@ 20092ccc     g_items.obj
 0002:00000cd8       ??_C@_0CD@KEPLDGIA@models?1items?1keys?1pyramid?1tris?4m@ 20092cd8     g_items.obj
 0002:00000cfc       ??_C@_0M@ODBNGMJE@key_pyramid?$AA@ 20092cfc     g_items.obj
 0002:00000d08       ??_C@_0L@KMNDPKKG@Power?5Cube?$AA@ 20092d08     g_items.obj
 0002:00000d14       ??_C@_0M@KLGEJJAH@k_powercube?$AA@ 20092d14     g_items.obj
 0002:00000d20       ??_C@_0CB@EMGHIIGB@models?1items?1keys?1power?1tris?4md2@ 20092d20     g_items.obj
 0002:00000d44       ??_C@_0P@EKJEOGCC@key_power_cube?$AA@ 20092d44     g_items.obj
 0002:00000d54       ??_C@_07GINBKMFM@Data?5CD?$AA@ 20092d54     g_items.obj
 0002:00000d5c       ??_C@_08DDFPKMPI@k_datacd?$AA@ 20092d5c     g_items.obj
 0002:00000d68       ??_C@_0CD@PKHOENBE@models?1items?1keys?1data_cd?1tris?4m@ 20092d68     g_items.obj
 0002:00000d8c       ??_C@_0M@MODBNHAN@key_data_cd?$AA@ 20092d8c     g_items.obj
 0002:00000d98       ??_C@_09IGIMIJAM@Ammo?5Pack?$AA@ 20092d98     g_items.obj
 0002:00000da4       ??_C@_06DHLFCECJ@i_pack?$AA@ 20092da4     g_items.obj
 0002:00000dac       ??_C@_0BL@FOPILGJA@models?1items?1pack?1tris?4md2?$AA@ 20092dac     g_items.obj
 0002:00000dc8       ??_C@_09KFKKKEIO@item_pack?$AA@ 20092dc8     g_items.obj
 0002:00000dd4       ??_C@_09MHOBICHJ@Bandolier?$AA@ 20092dd4     g_items.obj
 0002:00000de0       ??_C@_0M@NPOPIHKG@p_bandolier?$AA@ 20092de0     g_items.obj
 0002:00000dec       ??_C@_0BL@NEHDLLHJ@models?1items?1band?1tris?4md2?$AA@ 20092dec     g_items.obj
 0002:00000e08       ??_C@_0P@DFANKJKD@item_bandolier?$AA@ 20092e08     g_items.obj
 0002:00000e18       ??_C@_0L@EFOCNJPA@Adrenaline?$AA@ 20092e18     g_items.obj
 0002:00000e24       ??_C@_0N@FDJGBILA@p_adrenaline?$AA@ 20092e24     g_items.obj
 0002:00000e34       ??_C@_0BO@PJEEOAPJ@models?1items?1adrenal?1tris?4md2?$AA@ 20092e34     g_items.obj
 0002:00000e54       ??_C@_0BA@CDBGAOBB@item_adrenaline?$AA@ 20092e54     g_items.obj
 0002:00000e64       ??_C@_0N@FFNGANKH@Ancient?5Head?$AA@ 20092e64     g_items.obj
 0002:00000e74       ??_C@_07DMGFLEMB@i_fixme?$AA@ 20092e74     g_items.obj
 0002:00000e7c       ??_C@_0BN@DJDOIOCG@models?1items?1c_head?1tris?4md2?$AA@ 20092e7c     g_items.obj
 0002:00000e9c       ??_C@_0BC@DBLBHOJJ@item_ancient_head?$AA@ 20092e9c     g_items.obj
 0002:00000eb0       ??_C@_0BB@MFNKKEON@Environment?5Suit?$AA@ 20092eb0     g_items.obj
 0002:00000ec4       ??_C@_0N@MKLDPFJD@p_envirosuit?$AA@ 20092ec4     g_items.obj
 0002:00000ed4       ??_C@_0BN@HAMHPFKE@models?1items?1enviro?1tris?4md2?$AA@ 20092ed4     g_items.obj
 0002:00000ef4       ??_C@_0M@HBCGNAN@item_enviro?$AA@ 20092ef4     g_items.obj
 0002:00000f00       ??_C@_0BB@PFKNILKM@items?1airout?4wav?$AA@ 20092f00     g_items.obj
 0002:00000f14       ??_C@_0L@KEHHOOOM@Rebreather?$AA@ 20092f14     g_items.obj
 0002:00000f20       ??_C@_0N@LCADCPKM@p_rebreather?$AA@ 20092f20     g_items.obj
 0002:00000f30       ??_C@_0BP@JFNBICOL@models?1items?1breather?1tris?4md2?$AA@ 20092f30     g_items.obj
 0002:00000f50       ??_C@_0O@DCDPPGIP@item_breather?$AA@ 20092f50     g_items.obj
 0002:00000f60       ??_C@_08NFCGBGHE@Silencer?$AA@ 20092f60     g_items.obj
 0002:00000f6c       ??_C@_0L@GMGELOKD@p_silencer?$AA@ 20092f6c     g_items.obj
 0002:00000f78       ??_C@_0BP@PCLANHJM@models?1items?1silencer?1tris?4md2?$AA@ 20092f78     g_items.obj
 0002:00000f98       ??_C@_0O@FLANICCH@item_silencer?$AA@ 20092f98     g_items.obj
 0002:00000fa8       ??_C@_0DI@BDJPBKFC@items?1protect?4wav?5items?1protect2@ 20092fa8     g_items.obj
 0002:00000fe0       ??_C@_0BA@KEGBBNCB@Invulnerability?$AA@ 20092fe0     g_items.obj
 0002:00000ff0       ??_C@_0BC@HNADLJFA@p_invulnerability?$AA@ 20092ff0     g_items.obj
 0002:00001004       ??_C@_0BP@BOLAINGO@models?1items?1invulner?1tris?4md2?$AA@ 20093004     g_items.obj
 0002:00001024       ??_C@_0BF@ILDMGFED@item_invulnerability?$AA@ 20093024     g_items.obj
 0002:0000103c       ??_C@_0DF@JKONNDED@items?1damage?4wav?5items?1damage2?4w@ 2009303c     g_items.obj
 0002:00001074       ??_C@_0M@KOJLOALK@Quad?5Damage?$AA@ 20093074     g_items.obj
 0002:00001080       ??_C@_06KDPENMON@p_quad?$AA@ 20093080     g_items.obj
 0002:00001088       ??_C@_0BP@EGOPGPGG@models?1items?1quaddama?1tris?4md2?$AA@ 20093088     g_items.obj
 0002:000010a8       ??_C@_0P@ODCNABJM@items?1pkup?4wav?$AA@ 200930a8     g_items.obj
 0002:000010b8       ??_C@_09MDKNIFFH@item_quad?$AA@ 200930b8     g_items.obj
 0002:000010c4       ??_C@_07JHBOFLPA@a_slugs?$AA@ 200930c4     g_items.obj
 0002:000010cc       ??_C@_0CI@CIJNAIBG@models?1items?1ammo?1slugs?1medium?1t@ 200930cc     g_items.obj
 0002:000010f4       ??_C@_0L@JEFOIHIM@ammo_slugs?$AA@ 200930f4     g_items.obj
 0002:00001100       ??_C@_09CHKAAKKB@a_rockets?$AA@ 20093100     g_items.obj
 0002:0000110c       ??_C@_0CK@CHHDGKPE@models?1items?1ammo?1rockets?1medium@ 2009310c     g_items.obj
 0002:00001138       ??_C@_0N@CLEPKBOE@ammo_rockets?$AA@ 20093138     g_items.obj
 0002:00001148       ??_C@_07LIJMMMOO@a_cells?$AA@ 20093148     g_items.obj
 0002:00001150       ??_C@_0CI@IJMPBFEC@models?1items?1ammo?1cells?1medium?1t@ 20093150     g_items.obj
 0002:00001178       ??_C@_0L@LLNMBAJC@ammo_cells?$AA@ 20093178     g_items.obj
 0002:00001184       ??_C@_09NLMDJGMP@a_bullets?$AA@ 20093184     g_items.obj
 0002:00001190       ??_C@_0CK@BDIJNFC@models?1items?1ammo?1bullets?1medium@ 20093190     g_items.obj
 0002:000011bc       ??_C@_0N@NHCMDNIK@ammo_bullets?$AA@ 200931bc     g_items.obj
 0002:000011cc       ??_C@_08ICDCHAKK@a_shells?$AA@ 200931cc     g_items.obj
 0002:000011d8       ??_C@_0CJ@NALPLFDI@models?1items?1ammo?1shells?1medium?1@ 200931d8     g_items.obj
 0002:00001204       ??_C@_0M@NLICANGB@ammo_shells?$AA@ 20093204     g_items.obj
 0002:00001210       ??_C@_0IM@FEFINFNK@sprites?1s_bfg1?4sp2?5sprites?1s_bfg@ 20093210     g_items.obj
 0002:0000129c       ??_C@_06PNKEMFGD@BFG10K?$AA@ 2009329c     g_items.obj
 0002:000012a4       ??_C@_05BFJAEOEF@w_bfg?$AA@ 200932a4     g_items.obj
 0002:000012ac       ??_C@_0BO@MAPGMFDG@models?1weapons?1v_bfg?1tris?4md2?$AA@ 200932ac     g_items.obj
 0002:000012cc       ??_C@_0BO@DNGPIBJB@models?1weapons?1g_bfg?1tris?4md2?$AA@ 200932cc     g_items.obj
 0002:000012ec       ??_C@_0L@JBGNLNGG@weapon_bfg?$AA@ 200932ec     g_items.obj
 0002:000012f8       ??_C@_0BD@IKLLMGKH@weapons?1rg_hum?4wav?$AA@ 200932f8     g_items.obj
 0002:0000130c       ??_C@_05INIOBJHH@Slugs?$AA@ 2009330c     g_items.obj
 0002:00001314       ??_C@_07NMJDHEIK@Railgun?$AA@ 20093314     g_items.obj
 0002:0000131c       ??_C@_09BKDDLBIF@w_railgun?$AA@ 2009331c     g_items.obj
 0002:00001328       ??_C@_0BP@PFLLGPBJ@models?1weapons?1v_rail?1tris?4md2?$AA@ 20093328     g_items.obj
 0002:00001348       ??_C@_0BP@LNPEMABG@models?1weapons?1g_rail?1tris?4md2?$AA@ 20093348     g_items.obj
 0002:00001368       ??_C@_0P@FEPBKEBF@weapon_railgun?$AA@ 20093368     g_items.obj
 0002:00001378       ??_C@_0GE@JFMMPKJO@weapons?1hyprbu1a?4wav?5weapons?1hyp@ 20093378     g_items.obj
 0002:000013dc       ??_C@_0N@FEGDLGNP@HyperBlaster?$AA@ 200933dc     g_items.obj
 0002:000013ec       ??_C@_0P@CKAOHAME@w_hyperblaster?$AA@ 200933ec     g_items.obj
 0002:000013fc       ??_C@_0CB@DCKIIDHD@models?1weapons?1v_hyperb?1tris?4md2@ 200933fc     g_items.obj
 0002:00001420       ??_C@_0CB@PDFJGJIK@models?1weapons?1g_hyperb?1tris?4md2@ 20093420     g_items.obj
 0002:00001444       ??_C@_0BE@GABONANM@weapon_hyperblaster?$AA@ 20093444     g_items.obj
 0002:00001458       ??_C@_0HN@DOACMBND@models?1objects?1rocket?1tris?4md2?5w@ 20093458     g_items.obj
 0002:000014d8       ??_C@_07MLLADOAB@Rockets?$AA@ 200934d8     g_items.obj
 0002:000014e0       ??_C@_0BA@DJIGCIDL@Rocket?5Launcher?$AA@ 200934e0     g_items.obj
 0002:000014f0       ??_C@_0M@JEKPKOFB@w_rlauncher?$AA@ 200934f0     g_items.obj
 0002:000014fc       ??_C@_0CB@JIFCFDIA@models?1weapons?1v_rocket?1tris?4md2@ 200934fc     g_items.obj
 0002:00001520       ??_C@_0CB@FJKDLJHJ@models?1weapons?1g_rocket?1tris?4md2@ 20093520     g_items.obj
 0002:00001544       ??_C@_0BG@HJKONAJE@weapon_rocketlauncher?$AA@ 20093544     g_items.obj
 0002:00001560       ??_C@_0FP@FKCEKMLP@models?1objects?1grenade?1tris?4md2?5@ 20093560     g_items.obj
 0002:000015c0       ??_C@_0BB@GIEOMMBO@Grenade?5Launcher?$AA@ 200935c0     g_items.obj
 0002:000015d4       ??_C@_0M@FFCIOEPN@w_glauncher?$AA@ 200935d4     g_items.obj
 0002:000015e0       ??_C@_0CB@HLAKLEOF@models?1weapons?1v_launch?1tris?4md2@ 200935e0     g_items.obj
 0002:00001604       ??_C@_0CB@LKPLFOBM@models?1weapons?1g_launch?1tris?4md2@ 20093604     g_items.obj
 0002:00001628       ??_C@_0BH@DGCCJPLM@weapon_grenadelauncher?$AA@ 20093628     g_items.obj
 0002:00001640       ??_C@_0GK@BEEBJLID@weapons?1hgrent1a?4wav?5weapons?1hgr@ 20093640     g_items.obj
 0002:000016ac       ??_C@_08HOOJIBOO@grenades?$AA@ 200936ac     g_items.obj
 0002:000016b8       ??_C@_08PMBIADEN@Grenades?$AA@ 200936b8     g_items.obj
 0002:000016c4       ??_C@_0L@CKCCLAJB@a_grenades?$AA@ 200936c4     g_items.obj
 0002:000016d0       ??_C@_0CB@PDLBDOPF@models?1weapons?1v_handgr?1tris?4md2@ 200936d0     g_items.obj
 0002:000016f4       ??_C@_0CL@HCNIDAAD@models?1items?1ammo?1grenades?1mediu@ 200936f4     g_items.obj
 0002:00001720       ??_C@_0BB@NAHDCACP@misc?1am_pkup?4wav?$AA@ 20093720     g_items.obj
 0002:00001734       ??_C@_0O@CMJIOKCF@ammo_grenades?$AA@ 20093734     g_items.obj
 0002:00001748       ??_C@_0FF@ONCHJCOP@weapons?1chngnu1a?4wav?5weapons?1chn@ 20093748     g_items.obj
 0002:000017a0       ??_C@_08NGGKJMFK@Chaingun?$AA@ 200937a0     g_items.obj
 0002:000017ac       ??_C@_0L@EGBDCBAO@w_chaingun?$AA@ 200937ac     g_items.obj
 0002:000017b8       ??_C@_0CA@GFKMFAJL@models?1weapons?1v_chain?1tris?4md2?$AA@ 200937b8     g_items.obj
 0002:000017d8       ??_C@_0CA@PFFLACKF@models?1weapons?1g_chain?1tris?4md2?$AA@ 200937d8     g_items.obj
 0002:000017f8       ??_C@_0BA@LGFCHAFP@weapon_chaingun?$AA@ 200937f8     g_items.obj
 0002:00001808       ??_C@_0GJ@BGECOMIF@weapons?1machgf1b?4wav?5weapons?1mac@ 20093808     g_items.obj
 0002:00001874       ??_C@_07DHNDKCGP@Bullets?$AA@ 20093874     g_items.obj
 0002:0000187c       ??_C@_0L@KDNGMPND@Machinegun?$AA@ 2009387c     g_items.obj
 0002:00001888       ??_C@_0N@MINBAIML@w_machinegun?$AA@ 20093888     g_items.obj
 0002:00001898       ??_C@_0CA@NNHAEOIK@models?1weapons?1v_machn?1tris?4md2?$AA@ 20093898     g_items.obj
 0002:000018b8       ??_C@_0CA@ENIHBMLE@models?1weapons?1g_machn?1tris?4md2?$AA@ 200938b8     g_items.obj
 0002:000018d8       ??_C@_0BC@HHBNPFPN@weapon_machinegun?$AA@ 200938d8     g_items.obj
 0002:000018ec       ??_C@_0BF@HILHCNHA@weapons?1sshotf1b?4wav?$AA@ 200938ec     g_items.obj
 0002:00001904       ??_C@_0O@DOMEOFGO@Super?5Shotgun?$AA@ 20093904     g_items.obj
 0002:00001914       ??_C@_0L@KCJDGHOP@w_sshotgun?$AA@ 20093914     g_items.obj
 0002:00001920       ??_C@_0CB@MGHPGCPK@models?1weapons?1v_shotg2?1tris?4md2@ 20093920     g_items.obj
 0002:00001944       ??_C@_0CB@HIOIIAD@models?1weapons?1g_shotg2?1tris?4md2@ 20093944     g_items.obj
 0002:00001968       ??_C@_0BE@ECFDCKLO@weapon_supershotgun?$AA@ 20093968     g_items.obj
 0002:0000197c       ??_C@_0CK@PPKICAPE@weapons?1shotgf1b?4wav?5weapons?1sho@ 2009397c     g_items.obj
 0002:000019a8       ??_C@_06PBPEPGGL@Shells?$AA@ 200939a8     g_items.obj
 0002:000019b0       ??_C@_07DGIAOJJ@Shotgun?$AA@ 200939b0     g_items.obj
 0002:000019b8       ??_C@_09MFMIMLJG@w_shotgun?$AA@ 200939b8     g_items.obj
 0002:000019c4       ??_C@_0CA@DCNCBBPD@models?1weapons?1v_shotg?1tris?4md2?$AA@ 200939c4     g_items.obj
 0002:000019e4       ??_C@_0CA@KCCFEDMN@models?1weapons?1g_shotg?1tris?4md2?$AA@ 200939e4     g_items.obj
 0002:00001a04       ??_C@_0P@ILAKNOAG@weapon_shotgun?$AA@ 20093a04     g_items.obj
 0002:00001a14       ??_C@_0CF@LHPILFCC@weapons?1blastf1a?4wav?5misc?1lasfly@ 20093a14     g_items.obj
 0002:00001a3c       ??_C@_07HHOBKAAD@Blaster?$AA@ 20093a3c     g_items.obj
 0002:00001a44       ??_C@_09LBEBGFAM@w_blaster?$AA@ 20093a44     g_items.obj
 0002:00001a50       ??_C@_0CA@GPINJNLK@models?1weapons?1v_blast?1tris?4md2?$AA@ 20093a50     g_items.obj
 0002:00001a70       ??_C@_0BA@LHKOCMJI@misc?1w_pkup?4wav?$AA@ 20093a70     g_items.obj
 0002:00001a80       ??_C@_0P@PPIDHAJM@weapon_blaster?$AA@ 20093a80     g_items.obj
 0002:00001a90       ??_C@_0CA@CJEJDPKK@misc?1power2?4wav?5misc?1power1?4wav?$AA@ 20093a90     g_items.obj
 0002:00001ab0       ??_C@_0O@MIOGPCJD@i_powershield?$AA@ 20093ab0     g_items.obj
 0002:00001ac0       ??_C@_0CD@IBHMOIFE@models?1items?1armor?1shield?1tris?4m@ 20093ac0     g_items.obj
 0002:00001ae4       ??_C@_0BC@KPDANFEN@item_power_shield?$AA@ 20093ae4     g_items.obj
 0002:00001af8       ??_C@_0N@MCOGAJJG@Power?5Screen?$AA@ 20093af8     g_items.obj
 0002:00001b08       ??_C@_0O@EACPHHMG@i_powerscreen?$AA@ 20093b08     g_items.obj
 0002:00001b18       ??_C@_0CD@JAECLDO@models?1items?1armor?1screen?1tris?4m@ 20093b18     g_items.obj
 0002:00001b3c       ??_C@_0BC@DCHABHLP@misc?1ar3_pkup?4wav?$AA@ 20093b3c     g_items.obj
 0002:00001b50       ??_C@_0BC@CHPJFABI@item_power_screen?$AA@ 20093b50     g_items.obj
 0002:00001b64       ??_C@_0M@PJIPIDNH@Armor?5Shard?$AA@ 20093b64     g_items.obj
 0002:00001b70       ??_C@_0CC@KPNNAAEJ@models?1items?1armor?1shard?1tris?4md@ 20093b70     g_items.obj
 0002:00001b94       ??_C@_0BC@PDPOMIHP@misc?1ar2_pkup?4wav?$AA@ 20093b94     g_items.obj
 0002:00001ba8       ??_C@_0BB@DDGIAABK@item_armor_shard?$AA@ 20093ba8     g_items.obj
 0002:00001bbc       ??_C@_0O@MCLEPEIO@i_jacketarmor?$AA@ 20093bbc     g_items.obj
 0002:00001bcc       ??_C@_0CD@NHNMOHAK@models?1items?1armor?1jacket?1tris?4m@ 20093bcc     g_items.obj
 0002:00001bf0       ??_C@_0BC@DFFIIEBP@item_armor_jacket?$AA@ 20093bf0     g_items.obj
 0002:00001c04       ??_C@_0O@DLELGNAL@i_combatarmor?$AA@ 20093c04     g_items.obj
 0002:00001c14       ??_C@_0CD@KINMJFLG@models?1items?1armor?1combat?1tris?4m@ 20093c14     g_items.obj
 0002:00001c38       ??_C@_0BC@FPPLPJIL@item_armor_combat?$AA@ 20093c38     g_items.obj
 0002:00001c4c       ??_C@_0M@HGHKDAIN@i_bodyarmor?$AA@ 20093c4c     g_items.obj
 0002:00001c58       ??_C@_0CB@BPDEIBHJ@models?1items?1armor?1body?1tris?4md2@ 20093c58     g_items.obj
 0002:00001c7c       ??_C@_0BC@GKBMKOHO@misc?1ar1_pkup?4wav?$AA@ 20093c7c     g_items.obj
 0002:00001c90       ??_C@_0BA@EKKMHIH@item_armor_body?$AA@ 20093c90     g_items.obj
 0002:00001ca0       ??_C@_0BB@MJBFKEFB@items?1damage?4wav?$AA@ 20093ca0     g_items.obj
 0002:00001cb8       __real@4072c00000000000    20093cb8     g_items.obj
 0002:00001cc0       ??_C@_0BC@GKJAAACG@items?1protect?4wav?$AA@ 20093cc0     g_items.obj
 0002:00001cd4       __real@41f00000            20093cd4     g_items.obj
 0002:00001cd8       ??_C@_07IOJHMCFF@blaster?$AA@ 20093cd8     g_items.obj
 0002:00001ce0       ??_C@_0BL@ELFODOGI@Can?8t?5drop?5current?5weapon?6?$AA@ 20093ce0     g_items.obj
 0002:00001cfc       ??_C@_0BA@IGCOCDJP@misc?1power1?4wav?$AA@ 20093cfc     g_items.obj
 0002:00001d0c       ??_C@_0BL@GJELEHEF@No?5cells?5for?5power?5armor?4?6?$AA@ 20093d0c     g_items.obj
 0002:00001d28       ??_C@_05KFKAILFP@cells?$AA@ 20093d28     g_items.obj
 0002:00001d30       ??_C@_0BA@LKFBDB@misc?1power2?4wav?$AA@ 20093d30     g_items.obj
 0002:00001d40       ??_C@_0BD@DLDFJCLH@items?1m_health?4wav?$AA@ 20093d40     g_items.obj
 0002:00001d54       ??_C@_0BD@OGKDELDC@items?1l_health?4wav?$AA@ 20093d54     g_items.obj
 0002:00001d68       ??_C@_0BD@IGPPPOHJ@items?1n_health?4wav?$AA@ 20093d68     g_items.obj
 0002:00001d7c       ??_C@_0BD@HFNEDINN@items?1s_health?4wav?$AA@ 20093d7c     g_items.obj
 0002:00001d90       __real@3e800000            20093d90     g_items.obj
 0002:00001d94       __real@43960000            20093d94     g_items.obj
 0002:00001d98       __real@41c00000            20093d98     g_items.obj
 0002:00001d9c       __real@41700000            20093d9c     g_items.obj
 0002:00001da0       __real@403d000000000000    20093da0     g_items.obj
 0002:00001da8       ??_C@_0CC@GJHMCBKA@droptofloor?3?5?$CFs?5startsolid?5at?5?$CFs@ 20093da8     g_items.obj
 0002:00001dcc       __real@c3000000            20093dcc     g_items.obj
 0002:00001dd0       ??_C@_03BIPDAGPI@pcx?$AA@  20093dd0     g_items.obj
 0002:00001dd4       ??_C@_03BICDMHKB@wav?$AA@  20093dd4     g_items.obj
 0002:00001dd8       ??_C@_03BOLABDLA@sp2?$AA@  20093dd8     g_items.obj
 0002:00001ddc       ??_C@_03LFFJDILA@md2?$AA@  20093ddc     g_items.obj
 0002:00001de0       ??_C@_0CJ@CMOPAMCG@PrecacheItem?3?5?$CFs?5has?5bad?5precach@ 20093de0     g_items.obj
 0002:00001e0c       ??_C@_0CF@FOELHBEA@?$CFs?5at?5?$CFs?5has?5invalid?5spawnflags?5@ 20093e0c     g_items.obj
 0002:00001e34       ??_C@_0CF@DPBHFPFD@models?1items?1healing?1medium?1tris@ 20093e34     g_items.obj
 0002:00001e5c       ??_C@_0CH@BOEPLDFH@models?1items?1healing?1stimpack?1tr@ 20093e5c     g_items.obj
 0002:00001e84       ??_C@_0CE@FIFNDAIL@models?1items?1healing?1large?1tris?4@ 20093e84     g_items.obj
 0002:00001ea8       ??_C@_0BN@NDDLANPH@models?1items?1mega_h?1tris?4md2?$AA@ 20093ea8     g_items.obj
 0002:00001ec8       ??_C@_04KKMBMMPL@?5?0?6?$AN?$AA@ 20093ec8     g_main.obj
 0002:00001ed0       ??_C@_0BI@EOKPGBAF@?$DN?$DN?$DN?$DN?5ShutdownGame?5?$DN?$DN?$DN?$DN?6?$AA@ 20093ed0     g_main.obj
 0002:00001ee8       ??_C@_0BD@JPGDDJOA@target_changelevel?$AA@ 20093ee8     g_main.obj
 0002:00001efc       ??_C@_08HHFKLNCD@needpass?$AA@ 20093efc     g_main.obj
 0002:00001f08       ??_C@_02DPKJAMEF@?$CFd?$AA@ 20093f08     g_main.obj
 0002:00001f0c       ??_C@_04CGFJFPFD@none?$AA@ 20093f0c     g_main.obj
 0002:00001f14       ??_C@_0BA@MLHIEJIN@Fraglimit?5hit?4?6?$AA@ 20093f14     g_main.obj
 0002:00001f24       ??_C@_0BA@HKMAEPKH@Timelimit?5hit?4?6?$AA@ 20093f24     g_main.obj
 0002:00001f34       ??_C@_0O@HEEKDEIC@gamemap?5?$CC?$CFs?$CC?6?$AA@ 20093f34     g_main.obj
 0002:00001f44       __real@3f99999a            20093f44     g_misc.obj
 0002:00001f48       __real@3f333333            20093f48     g_misc.obj
 0002:00001f50       __real@4069000000000000    20093f50     g_misc.obj
 0002:00001f58       __real@4059000000000000    20093f58     g_misc.obj
 0002:00001f60       __real@43fa0000            20093f60     g_misc.obj
 0002:00001f64       __real@43480000            20093f64     g_misc.obj
 0002:00001f68       __real@c3960000            20093f68     g_misc.obj
 0002:00001f70       __real@c072c00000000000    20093f70     g_misc.obj
 0002:00001f78       ??_C@_0P@CPEHHFDK@misc?1fhit3?4wav?$AA@ 20093f78     g_misc.obj
 0002:00001f88       __real@4082c00000000000    20093f88     g_misc.obj
 0002:00001f90       __real@4040000000000000    20093f90     g_misc.obj
 0002:00001f98       ??_C@_0CD@HLNCNPLC@models?1objects?1gibs?1skull?1tris?4m@ 20093f98     g_misc.obj
 0002:00001fbc       ??_C@_0CD@HCKFPPBD@models?1objects?1gibs?1head2?1tris?4m@ 20093fbc     g_misc.obj
 0002:00001fe0       ??_C@_06CEIDEADO@debris?$AA@ 20093fe0     g_misc.obj
 0002:00001fe8       __real@41000000            20093fe8     g_misc.obj
 0002:00001fec       __real@c1000000            20093fec     g_misc.obj
 0002:00001ff0       ??_C@_0CG@DHHNMBFP@path_corner?5with?5no?5targetname?5a@ 20093ff0     g_misc.obj
 0002:00002018       ??_C@_0CD@PLMLCEEH@?$CFs?5at?5?$CFs?5target?5?$CFs?5does?5not?5exis@ 20094018     g_misc.obj
 0002:0000203c       ??_C@_0BP@FEIGKGKN@models?1objects?1banner?1tris?4md2?$AA@ 2009403c     g_misc.obj
 0002:0000205c       __real@42000000            2009405c     g_misc.obj
 0002:00002060       __real@c1c00000            20094060     g_misc.obj
 0002:00002064       ??_C@_0BD@PGLJCMDO@viewthing?5spawned?6?$AA@ 20094064     g_misc.obj
 0002:00002078       ??_C@_01GOHFPIOK@m?$AA@    20094078     g_misc.obj
 0002:0000207c       ??_C@_01MCMALHOG@a?$AA@    2009407c     g_misc.obj
 0002:00002080       ??_C@_0CD@KELHNDDM@func_wall?5START_ON?5without?5TOGGL@ 20094080     g_misc.obj
 0002:000020a4       ??_C@_0CA@DBGCEAAA@models?1objects?1debris2?1tris?4md2?$AA@ 200940a4     g_misc.obj
 0002:000020c4       ??_C@_0CA@KIIACGAB@models?1objects?1debris1?1tris?4md2?$AA@ 200940c4     g_misc.obj
 0002:000020e4       __real@43160000            200940e4     g_misc.obj
 0002:000020e8       ??_C@_0CA@PAOMJPMA@models?1objects?1debris3?1tris?4md2?$AA@ 200940e8     g_misc.obj
 0002:00002108       __real@3ffc000000000000    20094108     g_misc.obj
 0002:00002110       __real@3ff8000000000000    20094110     g_misc.obj
 0002:00002118       ??_C@_0CA@PFPFCJJJ@models?1objects?1barrels?1tris?4md2?$AA@ 20094118     g_misc.obj
 0002:00002138       ??_C@_0BO@NLHBFFBJ@models?1objects?1black?1tris?4md2?$AA@ 20094138     g_misc.obj
 0002:00002158       __real@42800000            20094158     g_misc.obj
 0002:0000215c       __real@c2800000            2009415c     g_misc.obj
 0002:00002160       ??_C@_0BO@DPNAMFOJ@models?1monsters?1tank?1tris?4md2?$AA@ 20094160     g_misc.obj
 0002:00002180       __real@c2000000            20094180     g_misc.obj
 0002:00002184       ??_C@_0BP@HMJEPPHN@models?1monsters?1bitch?1tris?4md2?$AA@ 20094184     g_misc.obj
 0002:000021a4       ??_C@_0O@DJDPKCLK@tank?1thud?4wav?$AA@ 200941a4     g_misc.obj
 0002:000021b4       ??_C@_0O@HKHJDNEB@tank?1pain?4wav?$AA@ 200941b4     g_misc.obj
 0002:000021c4       __real@42400000            200941c4     g_misc.obj
 0002:000021c8       ??_C@_0CC@LFFBKKFJ@models?1monsters?1commandr?1tris?4md@ 200941c8     g_misc.obj
 0002:000021ec       ??_C@_0CF@PJDADFHM@models?1objects?1gibs?1sm_meat?1tris@ 200941ec     g_misc.obj
 0002:00002214       ??_C@_0BA@EBLEHMCC@misc?1udeath?4wav?$AA@ 20094214     g_misc.obj
 0002:00002224       ??_C@_0BO@PIKNOJKH@models?1deadbods?1dude?1tris?4md2?$AA@ 20094224     g_misc.obj
 0002:00002244       ??_C@_0BM@LBFMLNCD@models?1ships?1viper?1tris?4md2?$AA@ 20094244     g_misc.obj
 0002:00002260       ??_C@_0CD@NFOIMECA@misc_viper?5without?5a?5target?5at?5?$CF@ 20094260     g_misc.obj
 0002:00002284       ??_C@_0BP@CDJIEBPA@models?1ships?1bigviper?1tris?4md2?$AA@ 20094284     g_misc.obj
 0002:000022a4       __real@42900000            200942a4     g_misc.obj
 0002:000022a8       __real@42f00000            200942a8     g_misc.obj
 0002:000022ac       __real@43300000            200942ac     g_misc.obj
 0002:000022b0       __real@c2f00000            200942b0     g_misc.obj
 0002:000022b4       __real@c3300000            200942b4     g_misc.obj
 0002:000022b8       ??_C@_0L@BBGODCED@misc_viper?$AA@ 200942b8     g_misc.obj
 0002:000022c4       ??_C@_0BN@LHLKMFOO@models?1objects?1bomb?1tris?4md2?$AA@ 200942c4     g_misc.obj
 0002:000022e4       ??_C@_0BO@BEGPHLOK@models?1ships?1strogg1?1tris?4md2?$AA@ 200942e4     g_misc.obj
 0002:00002304       ??_C@_0BL@FNNNHIIG@?$CFs?5without?5a?5target?5at?5?$CFs?6?$AA@ 20094304     g_misc.obj
 0002:00002320       ??_C@_0CC@GPMEMCM@models?1objects?1satellite?1tris?4md@ 20094320     g_misc.obj
 0002:00002344       __real@43000000            20094344     g_misc.obj
 0002:00002348       ??_C@_0CI@PFONCJLH@models?1objects?1minelite?1light1?1t@ 20094348     g_misc.obj
 0002:00002370       ??_C@_0CI@GMAPEPLG@models?1objects?1minelite?1light2?1t@ 20094370     g_misc.obj
 0002:00002398       __real@403e000000000000    20094398     g_misc.obj
 0002:000023a0       ??_C@_0CB@JCKICOBC@models?1objects?1gibs?1arm?1tris?4md2@ 200943a0     g_misc.obj
 0002:000023c4       ??_C@_0CB@EPKLBCJL@models?1objects?1gibs?1leg?1tris?4md2@ 200943c4     g_misc.obj
 0002:000023e8       ??_C@_0CC@ODPBMPAP@models?1objects?1gibs?1head?1tris?4md@ 200943e8     g_misc.obj
 0002:0000240c       ??_C@_0M@KMGPJKLD@?$CF2i?3?$CF2i?3?$CF2i?$AA@ 2009440c     g_misc.obj
 0002:00002418       ??_C@_07NEOBLIHG@?$CF2i?3?$CF2i?$AA@ 20094418     g_misc.obj
 0002:00002420       ??_C@_03NKIHJOPP@?$CF2i?$AA@ 20094420     g_misc.obj
 0002:00002424       ??_C@_0BI@BDGKKNFC@?$CFs?5with?5no?5count?5at?5?$CFs?6?$AA@ 20094424     g_misc.obj
 0002:0000243c       ??_C@_0BJ@FEGPLCGP@?$CFs?5with?5no?5target?5at?5?$CFs?6?$AA@ 2009443c     g_misc.obj
 0002:00002458       ??_C@_0BL@ENCKHHMD@Couldn?8t?5find?5destination?6?$AA@ 20094458     g_misc.obj
 0002:00002474       ??_C@_0BA@DFNFDAIE@world?1amb10?4wav?$AA@ 20094474     g_misc.obj
 0002:00002484       ??_C@_0BP@NPMJKCNC@models?1objects?1dmspot?1tris?4md2?$AA@ 20094484     g_misc.obj
 0002:000024a4       ??_C@_0BO@OLBFJAAM@teleporter?5without?5a?5target?4?6?$AA@ 200944a4     g_misc.obj
 0002:000024c4       __real@40200000            200944c4     g_monster.obj
 0002:000024c8       ??_C@_0BG@LPDKCMIA@infantry?1inflies1?4wav?$AA@ 200944c8     g_monster.obj
 0002:000024e0       __real@3fe6666666666666    200944e0     g_monster.obj
 0002:000024e8       __real@3fd0000000000000    200944e8     g_monster.obj
 0002:000024f0       __real@4036000000000000    200944f0     g_monster.obj
 0002:000024f8       __real@403a000000000000    200944f8     g_monster.obj
 0002:00002500       ??_C@_0BD@EGCDAKFF@player?1watr_in?4wav?$AA@ 20094500     g_monster.obj
 0002:00002514       ??_C@_0BB@ILBEDPJJ@player?1lava2?4wav?$AA@ 20094514     g_monster.obj
 0002:00002528       ??_C@_0BB@NIAENDH@player?1lava1?4wav?$AA@ 20094528     g_monster.obj
 0002:0000253c       ??_C@_0BE@DFJJKCCP@player?1watr_out?4wav?$AA@ 2009453c     g_monster.obj
 0002:00002550       __real@4022000000000000    20094550     g_monster.obj
 0002:00002558       __real@4028000000000000    20094558     g_monster.obj
 0002:00002560       __real@4070000000000000    20094560     g_monster.obj
 0002:00002568       ??_C@_0BL@LKNPKACJ@?$CFs?5at?5?$CFs?5has?5bad?5item?3?5?$CFs?6?$AA@ 20094568     g_monster.obj
 0002:00002584       ??_C@_0M@ONCHNMHP@path_corner?$AA@ 20094584     g_monster.obj
 0002:00002590       __real@4cbebc20            20094590     g_monster.obj
 0002:00002594       ??_C@_0BP@KOGNJPCB@?$CFs?5can?8t?5find?5target?5?$CFs?5at?5?$CFs?6?$AA@ 20094594     g_monster.obj
 0002:000025b4       ??_C@_0DP@DAKHKMMH@?$CFs?5at?5?$CI?$CFi?5?$CFi?5?$CFi?$CJ?5has?5a?5bad?5comba@ 200945b4     g_monster.obj
 0002:000025f4       ??_C@_0CG@JIOCFJMD@?$CFs?5at?5?$CFs?5has?5target?5with?5mixed?5t@ 200945f4     g_monster.obj
 0002:0000261c       ??_C@_0N@GEHAKDCL@point_combat?$AA@ 2009461c     g_monster.obj
 0002:0000262c       ??_C@_0BD@CDJNCMHM@?$CFs?5in?5solid?5at?5?$CFs?6?$AA@ 2009462c     g_monster.obj
 0002:00002640       ??_C@_0BA@JGLONBEK@NULL?5ent?9?$DOthink?$AA@ 20094640     g_phys.obj
 0002:00002650       __real@3f50624dd2f1a9fc    20094650     g_phys.obj
 0002:00002658       __real@bfb999999999999a    20094658     g_phys.obj
 0002:00002660       __real@3fc0000000000000    20094660     g_phys.obj
 0002:00002668       ??_C@_0DB@KOGFPOLD@pushed_p?5?$DO?5?$CGpushed?$FLMAX_EDICTS?$FN?0?5@ 20094668     g_phys.obj
 0002:0000269c       ??_C@_0BB@PJCBIEAN@misc?1h2ohit1?4wav?$AA@ 2009469c     g_phys.obj
 0002:000026b0       __real@3fc00000            200946b0     g_phys.obj
 0002:000026b4       __real@42700000            200946b4     g_phys.obj
 0002:000026b8       ??_C@_0P@JAAAJJJG@world?1land?4wav?$AA@ 200946b8     g_phys.obj
 0002:000026c8       __real@40c00000            200946c8     g_phys.obj
 0002:000026cc       ??_C@_0BM@BJFGOKHH@SV_Physics?3?5bad?5movetype?5?$CFi?$AA@ 200946cc     g_phys.obj
 0002:000026e8       ??_C@_09GFFELLDB@newweapon?$AA@ 200946e8     g_save.obj
 0002:000026f4       ??_C@_0BA@MDBFNMEN@pers?4lastweapon?$AA@ 200946f4     g_save.obj
 0002:00002704       ??_C@_0M@FAODBMNG@pers?4weapon?$AA@ 20094704     g_save.obj
 0002:00002710       ??_C@_0O@HHEGAIPO@sound2_entity?$AA@ 20094710     g_save.obj
 0002:00002720       ??_C@_0N@GMKIFACD@sound_entity?$AA@ 20094720     g_save.obj
 0002:00002730       ??_C@_0N@NENBLKPP@sight_entity?$AA@ 20094730     g_save.obj
 0002:00002740       ??_C@_0N@IMHAJKKO@sight_client?$AA@ 20094740     g_save.obj
 0002:00002750       ??_C@_09ONJDKMDL@changemap?$AA@ 20094750     g_save.obj
 0002:0000275c       ??_C@_07MCHHMPMB@nextmap?$AA@ 2009475c     g_save.obj
 0002:00002764       ??_C@_08OLPEAICL@maxpitch?$AA@ 20094764     g_save.obj
 0002:00002770       ??_C@_08DMBPLKGK@minpitch?$AA@ 20094770     g_save.obj
 0002:0000277c       ??_C@_06LNKENLGF@maxyaw?$AA@ 2009477c     g_save.obj
 0002:00002784       ??_C@_06LOFHDLCK@minyaw?$AA@ 20094784     g_save.obj
 0002:0000278c       ??_C@_07FEFDPOOH@skyaxis?$AA@ 2009478c     g_save.obj
 0002:00002794       ??_C@_09CKMNMJFK@skyrotate?$AA@ 20094794     g_save.obj
 0002:000027a0       ??_C@_03BNEOMJOP@sky?$AA@  200947a0     g_save.obj
 0002:000027a4       ??_C@_07GFBFDLBM@gravity?$AA@ 200947a4     g_save.obj
 0002:000027ac       ??_C@_04NHONDGDE@item?$AA@ 200947ac     g_save.obj
 0002:000027b4       ??_C@_09NCNEHFEK@pausetime?$AA@ 200947b4     g_save.obj
 0002:000027c0       ??_C@_05GPLCCBII@noise?$AA@ 200947c0     g_save.obj
 0002:000027c8       ??_C@_06LNLHEAAG@height?$AA@ 200947c8     g_save.obj
 0002:000027d0       ??_C@_08LHFODBFO@distance?$AA@ 200947d0     g_save.obj
 0002:000027dc       ??_C@_03MHHCOBAB@lip?$AA@  200947dc     g_save.obj
 0002:000027e0       ??_C@_07MDAPILA@endfunc?$AA@ 200947e0     g_save.obj
 0002:000027e8       ??_C@_0M@OBFKMODG@currentmove?$AA@ 200947e8     g_save.obj
 0002:000027f4       ??_C@_0M@BAHCCHFH@checkattack?$AA@ 200947f4     g_save.obj
 0002:00002800       ??_C@_05PMMPNNNP@sight?$AA@ 20094800     g_save.obj
 0002:00002808       ??_C@_05IMODGEHH@melee?$AA@ 20094808     g_save.obj
 0002:00002810       ??_C@_06JMLBDJHL@attack?$AA@ 20094810     g_save.obj
 0002:00002818       ??_C@_05CHGMNBJP@dodge?$AA@ 20094818     g_save.obj
 0002:00002820       ??_C@_03LGMJKEGG@run?$AA@  20094820     g_save.obj
 0002:00002824       ??_C@_04DGHBCEHD@walk?$AA@ 20094824     g_save.obj
 0002:0000282c       ??_C@_06GFPLNGOC@search?$AA@ 2009482c     g_save.obj
 0002:00002834       ??_C@_04EAPMNACM@idle?$AA@ 20094834     g_save.obj
 0002:0000283c       ??_C@_05PJLLPND@stand?$AA@ 2009483c     g_save.obj
 0002:00002844       ??_C@_03DFHDCPPK@die?$AA@  20094844     g_save.obj
 0002:00002848       ??_C@_04PPONMOMN@pain?$AA@ 20094848     g_save.obj
 0002:00002850       ??_C@_05HOLIDFGP@touch?$AA@ 20094850     g_save.obj
 0002:00002858       ??_C@_07MAJPMGLJ@blocked?$AA@ 20094858     g_save.obj
 0002:00002860       ??_C@_05PFKCMBMI@think?$AA@ 20094860     g_save.obj
 0002:00002868       ??_C@_08GFDBECLP@prethink?$AA@ 20094868     g_save.obj
 0002:00002874       ??_C@_05FGPNDJME@chain?$AA@ 20094874     g_save.obj
 0002:0000287c       ??_C@_0L@BGEBGLLL@target_ent?$AA@ 2009487c     g_save.obj
 0002:00002888       ??_C@_08GLCKMKNK@mynoise2?$AA@ 20094888     g_save.obj
 0002:00002894       ??_C@_07IJEMHPNA@mynoise?$AA@ 20094894     g_save.obj
 0002:0000289c       ??_C@_05HEIBENID@owner?$AA@ 2009489c     g_save.obj
 0002:000028a4       ??_C@_0L@MNEIMOGK@teammaster?$AA@ 200948a4     g_save.obj
 0002:000028b0       ??_C@_09BLMDJMBI@teamchain?$AA@ 200948b0     g_save.obj
 0002:000028bc       ??_C@_0N@FEDPFDJI@groundentity?$AA@ 200948bc     g_save.obj
 0002:000028cc       ??_C@_09LCHMMDHJ@activator?$AA@ 200948cc     g_save.obj
 0002:000028d8       ??_C@_08KOKALCBO@oldenemy?$AA@ 200948d8     g_save.obj
 0002:000028e4       ??_C@_05ICAMJEGE@enemy?$AA@ 200948e4     g_save.obj
 0002:000028ec       ??_C@_0L@MPEFDPLK@movetarget?$AA@ 200948ec     g_save.obj
 0002:000028f8       ??_C@_0L@NCOEDJL@goalentity?$AA@ 200948f8     g_save.obj
 0002:00002904       ??_C@_05FECBCJJD@angle?$AA@ 20094904     g_save.obj
 0002:0000290c       ??_C@_06GNEAMJOC@angles?$AA@ 2009490c     g_save.obj
 0002:00002914       ??_C@_06NHCMNMEH@origin?$AA@ 20094914     g_save.obj
 0002:0000291c       ??_C@_03HBNNNHNM@map?$AA@  2009491c     g_save.obj
 0002:00002920       ??_C@_0M@NKGAHMMH@attenuation?$AA@ 20094920     g_save.obj
 0002:0000292c       ??_C@_06EMCPHFGM@volume?$AA@ 2009492c     g_save.obj
 0002:00002934       ??_C@_04IJEANHEE@mass?$AA@ 20094934     g_save.obj
 0002:0000293c       ??_C@_03EMOFKE@dmg?$AA@    2009493c     g_save.obj
 0002:00002940       ??_C@_05OEPGNJB@light?$AA@ 20094940     g_save.obj
 0002:00002948       ??_C@_06OHLGPBPO@sounds?$AA@ 20094948     g_save.obj
 0002:00002950       ??_C@_05IOMEMJEC@count?$AA@ 20094950     g_save.obj
 0002:00002958       ??_C@_05IAKJCFIM@style?$AA@ 20094958     g_save.obj
 0002:00002960       ??_C@_0M@JPINAPLF@move_angles?$AA@ 20094960     g_save.obj
 0002:0000296c       ??_C@_0M@CFOBBKBA@move_origin?$AA@ 2009496c     g_save.obj
 0002:00002978       ??_C@_06NLFCANPD@random?$AA@ 20094978     g_save.obj
 0002:00002980       ??_C@_05EKJCMADO@delay?$AA@ 20094980     g_save.obj
 0002:00002988       ??_C@_04PNOAOIAG@wait?$AA@ 20094988     g_save.obj
 0002:00002990       ??_C@_04KADBPNCB@team?$AA@ 20094990     g_save.obj
 0002:00002998       ??_C@_07ONPBMBOP@message?$AA@ 20094998     g_save.obj
 0002:000029a0       ??_C@_0N@MPAHBIIA@combattarget?$AA@ 200949a0     g_save.obj
 0002:000029b0       ??_C@_0L@MEPFGHK@killtarget?$AA@ 200949b0     g_save.obj
 0002:000029bc       ??_C@_0M@OFLKPDOP@deathtarget?$AA@ 200949bc     g_save.obj
 0002:000029c8       ??_C@_0L@BBNLLJC@pathtarget?$AA@ 200949c8     g_save.obj
 0002:000029d4       ??_C@_0L@FEPNPAJD@targetname?$AA@ 200949d4     g_save.obj
 0002:000029e0       ??_C@_06JJLAMBGK@target?$AA@ 200949e0     g_save.obj
 0002:000029e8       ??_C@_05CCENJOKA@decel?$AA@ 200949e8     g_save.obj
 0002:000029f0       ??_C@_05PNMAPKLD@accel?$AA@ 200949f0     g_save.obj
 0002:000029f8       ??_C@_05HJCMGBKF@speed?$AA@ 200949f8     g_save.obj
 0002:00002a00       ??_C@_0L@HLIKNEFC@spawnflags?$AA@ 20094a00     g_save.obj
 0002:00002a0c       ??_C@_05NCCFOPHA@model?$AA@ 20094a0c     g_save.obj
 0002:00002a14       ??_C@_09CNJINBGN@classname?$AA@ 20094a14     g_save.obj
 0002:00002a20       ??_C@_0L@MPABLGFN@sv_maplist?$AA@ 20094a20     g_save.obj
 0002:00002a2c       ??_C@_0BA@MBCGCMCD@flood_waitdelay?$AA@ 20094a2c     g_save.obj
 0002:00002a3c       ??_C@_02PKFBJPLJ@10?$AA@   20094a3c     g_save.obj
 0002:00002a40       ??_C@_0BA@DIPJNHGP@flood_persecond?$AA@ 20094a40     g_save.obj
 0002:00002a50       ??_C@_0L@LOFAJDDO@flood_msgs?$AA@ 20094a50     g_save.obj
 0002:00002a5c       ??_C@_08OLILFFJP@bob_roll?$AA@ 20094a5c     g_save.obj
 0002:00002a68       ??_C@_09JBAGIIMJ@bob_pitch?$AA@ 20094a68     g_save.obj
 0002:00002a74       ??_C@_06IKIBCIFG@bob_up?$AA@ 20094a74     g_save.obj
 0002:00002a7c       ??_C@_08GNJAFAHJ@run_roll?$AA@ 20094a7c     g_save.obj
 0002:00002a88       ??_C@_05ECMHBHBD@0?4005?$AA@ 20094a88     g_save.obj
 0002:00002a90       ??_C@_09NIOJNEIB@run_pitch?$AA@ 20094a90     g_save.obj
 0002:00002a9c       ??_C@_05NIGIBNE@0?4002?$AA@ 20094a9c     g_save.obj
 0002:00002aa4       ??_C@_0P@DNILDNPM@g_select_empty?$AA@ 20094aa4     g_save.obj
 0002:00002ab4       ??_C@_09FHEAGAHN@filterban?$AA@ 20094ab4     g_save.obj
 0002:00002ac0       ??_C@_0BD@DBGKBKIC@spectator_password?$AA@ 20094ac0     g_save.obj
 0002:00002ad4       ??_C@_08NLHBPEGP@password?$AA@ 20094ad4     g_save.obj
 0002:00002ae0       ??_C@_09KPHKOKCC@timelimit?$AA@ 20094ae0     g_save.obj
 0002:00002aec       ??_C@_09GCIEGDDN@fraglimit?$AA@ 20094aec     g_save.obj
 0002:00002af8       ??_C@_07GMGCLCAP@dmflags?$AA@ 20094af8     g_save.obj
 0002:00002b00       ??_C@_0M@KCCINJFC@maxentities?$AA@ 20094b00     g_save.obj
 0002:00002b0c       ??_C@_04MJHCKDHM@1024?$AA@ 20094b0c     g_save.obj
 0002:00002b14       ??_C@_05ODMCMJAJ@skill?$AA@ 20094b14     g_save.obj
 0002:00002b1c       ??_C@_01HIHLOKLC@1?$AA@    20094b1c     g_save.obj
 0002:00002b20       ??_C@_04OILOBHMB@coop?$AA@ 20094b20     g_save.obj
 0002:00002b28       ??_C@_0L@ILDAINPG@deathmatch?$AA@ 20094b28     g_save.obj
 0002:00002b34       ??_C@_0O@NKKGEANE@maxspectators?$AA@ 20094b34     g_save.obj
 0002:00002b44       ??_C@_0L@JKCONGEA@maxclients?$AA@ 20094b44     g_save.obj
 0002:00002b50       ??_C@_01FAMBOPH@4?$AA@     20094b50     g_save.obj
 0002:00002b54       ??_C@_08CLLHAKFA@gamedate?$AA@ 20094b54     g_save.obj
 0002:00002b60       ??_C@_0M@CCHNKHPK@Apr?5?55?52016?$AA@ 20094b60     g_save.obj
 0002:00002b6c       ??_C@_08HCPAIKAO@gamename?$AA@ 20094b6c     g_save.obj
 0002:00002b78       ??_C@_06LHNLGKIK@baseq2?$AA@ 20094b78     g_save.obj
 0002:00002b80       ??_C@_06LJMIHJCM@cheats?$AA@ 20094b80     g_save.obj
 0002:00002b88       ??_C@_09BJOAODLF@dedicated?$AA@ 20094b88     g_save.obj
 0002:00002b94       ??_C@_0L@FKMMBKBD@sv_gravity?$AA@ 20094b94     g_save.obj
 0002:00002ba0       ??_C@_03BAAJCDMO@800?$AA@  20094ba0     g_save.obj
 0002:00002ba4       ??_C@_0P@FKNMIPLB@sv_maxvelocity?$AA@ 20094ba4     g_save.obj
 0002:00002bb4       ??_C@_04OJDKMIMG@2000?$AA@ 20094bb4     g_save.obj
 0002:00002bbc       ??_C@_0N@HHKMFLLL@sv_rollangle?$AA@ 20094bbc     g_save.obj
 0002:00002bcc       ??_C@_01FDFGLJHB@2?$AA@    20094bcc     g_save.obj
 0002:00002bd0       ??_C@_0N@FKKBBDIN@sv_rollspeed?$AA@ 20094bd0     g_save.obj
 0002:00002be0       ??_C@_03HPLEMDKK@200?$AA@  20094be0     g_save.obj
 0002:00002be4       ??_C@_05DDHHGMA@gun_z?$AA@ 20094be4     g_save.obj
 0002:00002bec       ??_C@_05CIBKCFAD@gun_y?$AA@ 20094bec     g_save.obj
 0002:00002bf4       ??_C@_05DBABBEEC@gun_x?$AA@ 20094bf4     g_save.obj
 0002:00002bfc       ??_C@_01GBGANLPD@0?$AA@    20094bfc     g_save.obj
 0002:00002c00       ??_C@_0BE@FJPAIEJO@?$DN?$DN?$DN?$DN?5InitGame?5?$DN?$DN?$DN?$DN?6?$AA@ 20094c00     g_save.obj
 0002:00002c14       ??_C@_0BP@BPGEKJCD@WriteEdict?3?5unknown?5field?5type?$AA@ 20094c14     g_save.obj
 0002:00002c34       ??_C@_0BO@NFGDAIEM@ReadEdict?3?5unknown?5field?5type?$AA@ 20094c34     g_save.obj
 0002:00002c54       ??_C@_0BB@MAHHKGJO@Couldn?8t?5open?5?$CFs?$AA@ 20094c54     g_save.obj
 0002:00002c68       ??_C@_02GMLFBBN@wb?$AA@    20094c68     g_save.obj
 0002:00002c6c       ??_C@_0CB@FAIBDIDB@Savegame?5from?5an?5older?5version?4?6@ 20094c6c     g_save.obj
 0002:00002c90       ??_C@_02JDPG@rb?$AA@       20094c90     g_save.obj
 0002:00002c94       ??_C@_0BJ@BKFHCDJI@target_crosslevel_target?$AA@ 20094c94     g_save.obj
 0002:00002cb0       ??_C@_0CB@CMNAMNJB@ReadLevel?3?5failed?5to?5read?5entnum@ 20094cb0     g_save.obj
 0002:00002cd4       ??_C@_0CI@BNFLNLEB@ReadLevel?3?5function?5pointers?5hav@ 20094cd4     g_save.obj
 0002:00002cfc       ??_C@_0CB@CEEOCHOO@ReadLevel?3?5mismatched?5edict?5size@ 20094cfc     g_save.obj
 0002:00002d20       ??_C@_0BJJ@MDGKCAOL@yb?7?924?5xv?70?5hnum?5xv?750?5pic?50?5if?5@ 20094d20     g_spawn.obj
 0002:00002ec0       ??_C@_0BBF@LDPJPJDO@yb?7?924?5xv?70?5hnum?5xv?750?5pic?50?5if?5@ 20094ec0     g_spawn.obj
 0002:00002fd8       ??_C@_0O@LCJEABNA@turret_driver?$AA@ 20094fd8     g_spawn.obj
 0002:00002fe8       ??_C@_0M@FDFLNODJ@turret_base?$AA@ 20094fe8     g_spawn.obj
 0002:00002ff4       ??_C@_0O@GNNKDAKE@turret_breach?$AA@ 20094ff4     g_spawn.obj
 0002:00003004       ??_C@_0BH@DNOPDAAA@monster_commander_body?$AA@ 20095004     g_spawn.obj
 0002:0000301c       ??_C@_0BE@JLNNDNOJ@monster_boss3_stand?$AA@ 2009501c     g_spawn.obj
 0002:00003030       ??_C@_0O@NEOONALI@monster_boss2?$AA@ 20095030     g_spawn.obj
 0002:00003040       ??_C@_0P@PHKOKMFI@monster_mutant?$AA@ 20095040     g_spawn.obj
 0002:00003050       ??_C@_0O@KKHJJDCL@monster_hover?$AA@ 20095050     g_spawn.obj
 0002:00003060       ??_C@_0BA@JMDDCFLB@monster_floater?$AA@ 20095060     g_spawn.obj
 0002:00003070       ??_C@_0O@LBDBCIGB@monster_brain?$AA@ 20095070     g_spawn.obj
 0002:00003080       ??_C@_0O@IPLAJINN@monster_flyer?$AA@ 20095080     g_spawn.obj
 0002:00003090       ??_C@_0BB@BKNNODOD@monster_parasite?$AA@ 20095090     g_spawn.obj
 0002:000030a4       ??_C@_0O@OFGJCNJL@monster_chick?$AA@ 200950a4     g_spawn.obj
 0002:000030b4       ??_C@_0BA@JIIIOPMJ@monster_flipper?$AA@ 200950b4     g_spawn.obj
 0002:000030c4       ??_C@_0BH@PKJDABDP@monster_tank_commander?$AA@ 200950c4     g_spawn.obj
 0002:000030dc       ??_C@_0BD@BBIGNKKH@monster_soldier_ss?$AA@ 200950dc     g_spawn.obj
 0002:000030f0       ??_C@_0BA@HFIHHCPP@monster_soldier?$AA@ 200950f0     g_spawn.obj
 0002:00003100       ??_C@_0BG@NAINJGMJ@monster_soldier_light?$AA@ 20095100     g_spawn.obj
 0002:00003118       ??_C@_0BB@IIPGEACG@monster_infantry?$AA@ 20095118     g_spawn.obj
 0002:0000312c       ??_C@_0P@HLOCCEAE@monster_gunner?$AA@ 2009512c     g_spawn.obj
 0002:0000313c       ??_C@_0BC@CPILPOBG@monster_gladiator?$AA@ 2009513c     g_spawn.obj
 0002:00003150       ??_C@_0BA@ECEFJHCI@monster_berserk?$AA@ 20095150     g_spawn.obj
 0002:00003160       ??_C@_0BC@MANHFPNC@misc_easterchick2?$AA@ 20095160     g_spawn.obj
 0002:00003174       ??_C@_0BB@KFOECOPP@misc_easterchick?$AA@ 20095174     g_spawn.obj
 0002:00003188       ??_C@_0BA@FGKFLEGC@misc_eastertank?$AA@ 20095188     g_spawn.obj
 0002:00003198       ??_C@_0P@DPAKOFII@misc_blackhole?$AA@ 20095198     g_spawn.obj
 0002:000031a8       ??_C@_0BF@OMPOACGH@misc_teleporter_dest?$AA@ 200951a8     g_spawn.obj
 0002:000031c0       ??_C@_0BA@GCCAFNO@misc_teleporter?$AA@ 200951c0     g_spawn.obj
 0002:000031d0       ??_C@_0BB@FHGBEFIA@misc_strogg_ship?$AA@ 200951d0     g_spawn.obj
 0002:000031e4       ??_C@_0O@MMKLPOBO@misc_bigviper?$AA@ 200951e4     g_spawn.obj
 0002:000031f4       ??_C@_0BA@DOEKPPIF@misc_viper_bomb?$AA@ 200951f4     g_spawn.obj
 0002:00003204       ??_C@_0BB@BGPFENGK@misc_deadsoldier?$AA@ 20095204     g_spawn.obj
 0002:00003218       ??_C@_0M@KGCDIKPG@misc_insane?$AA@ 20095218     g_spawn.obj
 0002:00003224       ??_C@_0O@LFJBFDBO@misc_gib_head?$AA@ 20095224     g_spawn.obj
 0002:00003234       ??_C@_0N@NCHLLKCN@misc_gib_leg?$AA@ 20095234     g_spawn.obj
 0002:00003244       ??_C@_0N@MDJHDPIP@misc_gib_arm?$AA@ 20095244     g_spawn.obj
 0002:00003254       ??_C@_0L@MHPIAKEA@misc_actor?$AA@ 20095254     g_spawn.obj
 0002:00003260       ??_C@_0BE@OJELGDAL@misc_satellite_dish?$AA@ 20095260     g_spawn.obj
 0002:00003274       ??_C@_0M@JMLHEEML@misc_banner?$AA@ 20095274     g_spawn.obj
 0002:00003280       ??_C@_0O@JKMHCGDH@misc_explobox?$AA@ 20095280     g_spawn.obj
 0002:00003290       ??_C@_0N@FHKCBFMD@info_notnull?$AA@ 20095290     g_spawn.obj
 0002:000032a0       ??_C@_0L@KLICIANB@func_group?$AA@ 200952a0     g_spawn.obj
 0002:000032ac       ??_C@_09MBOCECHK@info_null?$AA@ 200952ac     g_spawn.obj
 0002:000032b8       ??_C@_0M@PDDBFOBH@light_mine2?$AA@ 200952b8     g_spawn.obj
 0002:000032c4       ??_C@_0M@NIBMANNE@light_mine1?$AA@ 200952c4     g_spawn.obj
 0002:000032d0       ??_C@_09LBAMMFEL@viewthing?$AA@ 200952d0     g_spawn.obj
 0002:000032dc       ??_C@_0L@BIFLFHPF@worldspawn?$AA@ 200952dc     g_spawn.obj
 0002:000032e8       ??_C@_0O@EJABAMOH@target_string?$AA@ 200952e8     g_spawn.obj
 0002:000032f8       ??_C@_0BB@DODGEGOG@target_character?$AA@ 200952f8     g_spawn.obj
 0002:0000330c       ??_C@_0BC@GMCMLIAI@target_earthquake?$AA@ 2009530c     g_spawn.obj
 0002:00003320       ??_C@_0BB@IIPOHKKC@target_lightramp?$AA@ 20095320     g_spawn.obj
 0002:00003334       ??_C@_0M@EODOODOB@target_help?$AA@ 20095334     g_spawn.obj
 0002:00003340       ??_C@_0N@LGMMDFPN@target_laser?$AA@ 20095340     g_spawn.obj
 0002:00003350       ??_C@_0BK@GLANCCOG@target_crosslevel_trigger?$AA@ 20095350     g_spawn.obj
 0002:0000336c       ??_C@_0P@FEDMBCDM@target_blaster?$AA@ 2009536c     g_spawn.obj
 0002:0000337c       ??_C@_0P@IOHHMEAI@target_spawner?$AA@ 2009537c     g_spawn.obj
 0002:0000338c       ??_C@_0O@FLJCGDBB@target_splash?$AA@ 2009538c     g_spawn.obj
 0002:0000339c       ??_C@_0M@ENHMFKFK@target_goal?$AA@ 2009539c     g_spawn.obj
 0002:000033a8       ??_C@_0O@DGKJBNAG@target_secret?$AA@ 200953a8     g_spawn.obj
 0002:000033b8       ??_C@_0BB@LGBADMN@target_explosion?$AA@ 200953b8     g_spawn.obj
 0002:000033cc       ??_C@_0P@MNJIBEAO@target_speaker?$AA@ 200953cc     g_spawn.obj
 0002:000033dc       ??_C@_0BD@DGACDGJC@target_temp_entity?$AA@ 200953dc     g_spawn.obj
 0002:000033f0       ??_C@_0BE@IFMGBJPE@trigger_monsterjump?$AA@ 200953f0     g_spawn.obj
 0002:00003404       ??_C@_0BA@DKBEPDBD@trigger_gravity?$AA@ 20095404     g_spawn.obj
 0002:00003414       ??_C@_0BB@CNOPFNG@trigger_elevator?$AA@ 20095414     g_spawn.obj
 0002:00003428       ??_C@_0BA@CMODADOH@trigger_counter?$AA@ 20095428     g_spawn.obj
 0002:00003438       ??_C@_0M@LDBHCOLI@trigger_key?$AA@ 20095438     g_spawn.obj
 0002:00003444       ??_C@_0N@JFLGFCMM@trigger_hurt?$AA@ 20095444     g_spawn.obj
 0002:00003454       ??_C@_0N@CCJDLJOF@trigger_push?$AA@ 20095454     g_spawn.obj
 0002:00003464       ??_C@_0O@EDMANDO@trigger_relay?$AA@ 20095464     g_spawn.obj
 0002:00003474       ??_C@_0BB@LKHFHPEP@trigger_multiple?$AA@ 20095474     g_spawn.obj
 0002:00003488       ??_C@_0N@OOLDLEBF@trigger_once?$AA@ 20095488     g_spawn.obj
 0002:00003498       ??_C@_0P@KDHOHKJL@trigger_always?$AA@ 20095498     g_spawn.obj
 0002:000034a8       ??_C@_0N@PCPEGGCN@func_killbox?$AA@ 200954a8     g_spawn.obj
 0002:000034b8       ??_C@_0P@LDEAPMDE@func_explosive?$AA@ 200954b8     g_spawn.obj
 0002:000034c8       ??_C@_0L@LNOJFPAO@func_timer?$AA@ 200954c8     g_spawn.obj
 0002:000034d4       ??_C@_0M@MIMFFAK@func_object?$AA@ 200954d4     g_spawn.obj
 0002:000034e0       ??_C@_09LILCIBKB@func_wall?$AA@ 200954e0     g_spawn.obj
 0002:000034ec       ??_C@_0L@FOFOPPHM@func_clock?$AA@ 200954ec     g_spawn.obj
 0002:000034f8       ??_C@_0O@MOHKEJIK@func_conveyor?$AA@ 200954f8     g_spawn.obj
 0002:00003508       ??_C@_0L@CGBMHOHE@func_water?$AA@ 20095508     g_spawn.obj
 0002:00003514       ??_C@_0O@JDFCILJF@func_rotating?$AA@ 20095514     g_spawn.obj
 0002:00003524       ??_C@_0BB@DDGAHBMK@func_door_secret?$AA@ 20095524     g_spawn.obj
 0002:00003538       ??_C@_0M@PNMKBMEP@func_button?$AA@ 20095538     g_spawn.obj
 0002:00003544       ??_C@_09HCDLIOGG@func_plat?$AA@ 20095544     g_spawn.obj
 0002:00003550       ??_C@_0BJ@LMMLDPE@info_player_intermission?$AA@ 20095550     g_spawn.obj
 0002:0000356c       ??_C@_0BB@HKBBLLCA@info_player_coop?$AA@ 2009556c     g_spawn.obj
 0002:00003580       ??_C@_0BH@IGAFCIL@info_player_deathmatch?$AA@ 20095580     g_spawn.obj
 0002:00003598       ??_C@_0BC@IHPKIKNE@info_player_start?$AA@ 20095598     g_spawn.obj
 0002:000035ac       ??_C@_0BB@PBGAONGH@item_health_mega?$AA@ 200955ac     g_spawn.obj
 0002:000035c0       ??_C@_0BC@JGDLKFIO@item_health_large?$AA@ 200955c0     g_spawn.obj
 0002:000035d4       ??_C@_0BC@DOHAFEBI@item_health_small?$AA@ 200955d4     g_spawn.obj
 0002:000035e8       ??_C@_0M@KCNAKNNL@item_health?$AA@ 200955e8     g_spawn.obj
 0002:000035f4       ??_C@_0CC@JNJOINHG@?$CFs?5doesn?8t?5have?5a?5spawn?5function@ 200955f4     g_spawn.obj
 0002:00003618       ??_C@_0BO@DHDMOMEM@ED_CallSpawn?3?5NULL?5classname?6?$AA@ 20095618     g_spawn.obj
 0002:00003638       ??_C@_0BD@EBFOBBIA@?$CFs?5is?5not?5a?5field?6?$AA@ 20095638     g_spawn.obj
 0002:0000364c       ??_C@_08OEKJENGB@?$CFf?5?$CFf?5?$CFf?$AA@ 2009564c     g_spawn.obj
 0002:00003658       ??_C@_0CL@FAMJKIML@ED_ParseEntity?3?5closing?5brace?5wi@ 20095658     g_spawn.obj
 0002:00003684       ??_C@_0CK@OCIHGENJ@ED_ParseEntity?3?5EOF?5without?5clos@ 20095684     g_spawn.obj
 0002:000036b0       ??_C@_0BL@EIPAHDOP@?$CFi?5teams?5with?5?$CFi?5entities?6?$AA@ 200956b0     g_spawn.obj
 0002:000036cc       ??_C@_0BH@CGIADMON@?$CFi?5entities?5inhibited?6?$AA@ 200956cc     g_spawn.obj
 0002:000036e4       ??_C@_03KGNMPOHD@?$CK27?$AA@ 200956e4     g_spawn.obj
 0002:000036e8       ??_C@_07KMMNMMFF@command?$AA@ 200956e8     g_spawn.obj
 0002:000036f0       ??_C@_0CL@HKLEHAIH@ED_LoadFromFile?3?5found?5?$CFs?5when?5e@ 200956f0     g_spawn.obj
 0002:0000371c       ??_C@_02NJPGOMH@?$CFf?$AA@ 2009571c     g_spawn.obj
 0002:00003720       ??_C@_0CF@FDHINAPJ@abcdefghijklmnopqrrqponmlkjihgfe@ 20095720     g_spawn.obj
 0002:00003748       ??_C@_0BK@KOPHNNOA@mmamammmmammamamaaamammma?$AA@ 20095748     g_spawn.obj
 0002:00003764       ??_C@_0BB@PBGKNKPK@aaaaaaaazzzzzzzz?$AA@ 20095764     g_spawn.obj
 0002:00003778       ??_C@_0CL@JNLLPDGN@mmmaaammmaaammmabcdefaaaammmmabc@ 20095778     g_spawn.obj
 0002:000037a4       ??_C@_0BN@HIBFHKHI@mmmaaaabcdefgmmmmaaaammmaamm?$AA@ 200957a4     g_spawn.obj
 0002:000037c4       ??_C@_0BC@KJNLDMIN@nmonqnmomnmomomno?$AA@ 200957c4     g_spawn.obj
 0002:000037d8       ??_C@_0CC@NMKOOBOD@jklmnopqrstuvwxyzyxwvutsrqponmlk@ 200957d8     g_spawn.obj
 0002:000037fc       ??_C@_0N@OJLDIBEI@mamamamamama?$AA@ 200957fc     g_spawn.obj
 0002:0000380c       ??_C@_0CD@OIDFFBDA@mmmmmaaaaammmmmaaaaaabcdefgabcde@ 2009580c     g_spawn.obj
 0002:00003830       ??_C@_0DE@PNCJLGMH@abcdefghijklmnopqrstuvwxyzyxwvut@ 20095830     g_spawn.obj
 0002:00003864       ??_C@_0BI@OMKFAIJM@mmnmmommommnonmmonqnmmo?$AA@ 20095864     g_spawn.obj
 0002:0000387c       ??_C@_0CD@JNGPJEPP@models?1objects?1gibs?1chest?1tris?4m@ 2009587c     g_spawn.obj
 0002:000038a0       ??_C@_0CD@HLEIMBME@models?1objects?1gibs?1bone2?1tris?4m@ 200958a0     g_spawn.obj
 0002:000038c4       ??_C@_0CC@LIIDDDAD@models?1objects?1gibs?1bone?1tris?4md@ 200958c4     g_spawn.obj
 0002:000038e8       ??_C@_0BD@IKGKLGNJ@weapons?1noammo?4wav?$AA@ 200958e8     g_spawn.obj
 0002:000038fc       ??_C@_0BF@NLJOPKAO@player?1u_breath2?4wav?$AA@ 200958fc     g_spawn.obj
 0002:00003914       ??_C@_0BF@FNAKIIKA@player?1u_breath1?4wav?$AA@ 20095914     g_spawn.obj
 0002:0000392c       ??_C@_0BD@OGFNPMOP@player?1watr_un?4wav?$AA@ 2009592c     g_spawn.obj
 0002:00003940       ??_C@_0BB@PKLNFNHA@player?1gasp2?4wav?$AA@ 20095940     g_spawn.obj
 0002:00003954       ??_C@_0BB@HMCJCPNO@player?1gasp1?4wav?$AA@ 20095954     g_spawn.obj
 0002:00003968       ??_C@_0L@EIDCNPEO@?$CDw_bfg?4md2?$AA@ 20095968     g_spawn.obj
 0002:00003974       ??_C@_0P@JNNBOJJF@?$CDw_railgun?4md2?$AA@ 20095974     g_spawn.obj
 0002:00003984       ??_C@_0BE@JNHNDDEM@?$CDw_hyperblaster?4md2?$AA@ 20095984     g_spawn.obj
 0002:00003998       ??_C@_0BB@DDNELFHG@?$CDw_rlauncher?4md2?$AA@ 20095998     g_spawn.obj
 0002:000039ac       ??_C@_0BB@NBMFOHHH@?$CDw_glauncher?4md2?$AA@ 200959ac     g_spawn.obj
 0002:000039c0       ??_C@_0BA@KMCHPJCM@?$CDa_grenades?4md2?$AA@ 200959c0     g_spawn.obj
 0002:000039d0       ??_C@_0BA@DHIMPANI@?$CDw_chaingun?4md2?$AA@ 200959d0     g_spawn.obj
 0002:000039e0       ??_C@_0BC@KOOEFEPH@?$CDw_machinegun?4md2?$AA@ 200959e0     g_spawn.obj
 0002:000039f4       ??_C@_0BA@LBLMJJNN@?$CDw_sshotgun?4md2?$AA@ 200959f4     g_spawn.obj
 0002:00003a04       ??_C@_0P@GHDPALFB@?$CDw_shotgun?4md2?$AA@ 20095a04     g_spawn.obj
 0002:00003a14       ??_C@_0P@NLANOMNM@?$CDw_blaster?4md2?$AA@ 20095a14     g_spawn.obj
 0002:00003a24       ??_C@_0P@EBDONHNP@?$CKpain100_2?4wav?$AA@ 20095a24     g_spawn.obj
 0002:00003a34       ??_C@_0P@MHKKKFHB@?$CKpain100_1?4wav?$AA@ 20095a34     g_spawn.obj
 0002:00003a44       ??_C@_0O@HPJIFNDL@?$CKpain75_2?4wav?$AA@ 20095a44     g_spawn.obj
 0002:00003a54       ??_C@_0O@PJAMCPJF@?$CKpain75_1?4wav?$AA@ 20095a54     g_spawn.obj
 0002:00003a64       ??_C@_0O@BJIOHLNJ@?$CKpain50_2?4wav?$AA@ 20095a64     g_spawn.obj
 0002:00003a74       ??_C@_0O@JPBKAJHH@?$CKpain50_1?4wav?$AA@ 20095a74     g_spawn.obj
 0002:00003a84       ??_C@_0O@DFAPBIHE@?$CKpain25_2?4wav?$AA@ 20095a84     g_spawn.obj
 0002:00003a94       ??_C@_0O@LDJLGKNK@?$CKpain25_1?4wav?$AA@ 20095a94     g_spawn.obj
 0002:00003aa4       ??_C@_0L@FMHDEMAN@?$CKjump1?4wav?$AA@ 20095aa4     g_spawn.obj
 0002:00003ab0       ??_C@_0L@IKICJGJE@?$CKgurp2?4wav?$AA@ 20095ab0     g_spawn.obj
 0002:00003abc       ??_C@_0L@MBGOEDK@?$CKgurp1?4wav?$AA@ 20095abc     g_spawn.obj
 0002:00003ac8       ??_C@_0L@FNCDDLHE@?$CKfall2?4wav?$AA@ 20095ac8     g_spawn.obj
 0002:00003ad4       ??_C@_0L@NLLHEJNK@?$CKfall1?4wav?$AA@ 20095ad4     g_spawn.obj
 0002:00003ae0       ??_C@_0M@FNDGBLBE@?$CKdeath4?4wav?$AA@ 20095ae0     g_spawn.obj
 0002:00003aec       ??_C@_0M@EADDCLKM@?$CKdeath3?4wav?$AA@ 20095aec     g_spawn.obj
 0002:00003af8       ??_C@_0M@ILGPPIAJ@?$CKdeath2?4wav?$AA@ 20095af8     g_spawn.obj
 0002:00003b04       ??_C@_0M@NPLIKKH@?$CKdeath1?4wav?$AA@ 20095b04     g_spawn.obj
 0002:00003b10       ??_C@_0BD@NDPCIBNM@items?1respawn1?4wav?$AA@ 20095b10     g_spawn.obj
 0002:00003b24       ??_C@_0P@OLLLDDME@misc?1pc_up?4wav?$AA@ 20095b24     g_spawn.obj
 0002:00003b34       ??_C@_0P@JFJOOALD@player?1fry?4wav?$AA@ 20095b34     g_spawn.obj
 0002:00003b44       ??_C@_07LBEDOINA@field_3?$AA@ 20095b44     g_spawn.obj
 0002:00003b4c       ??_C@_06EKCNODJK@i_help?$AA@ 20095b4c     g_spawn.obj
 0002:00003b54       ??_C@_02IKAHHCAI@?$CFi?$AA@ 20095b54     g_spawn.obj
 0002:00003b58       ??_C@_06IGMIFNOM@unit1_?$AA@ 20095b58     g_spawn.obj
 0002:00003b60       ??_C@_0BA@HAKOACEM@Svcmd_Test_f?$CI?$CJ?6?$AA@ 20095b60     g_svcmds.obj
 0002:00003b70       ??_C@_0BI@LMFPAHLD@IP?5filter?5list?5is?5full?6?$AA@ 20095b70     g_svcmds.obj
 0002:00003b88       ??_C@_0BJ@LEBLJMPE@Usage?3?5?5addip?5?$DMip?9mask?$DO?6?$AA@ 20095b88     g_svcmds.obj
 0002:00003ba4       ??_C@_0BI@DIECJMKD@Bad?5filter?5address?3?5?$CFs?6?$AA@ 20095ba4     g_svcmds.obj
 0002:00003bbc       ??_C@_0BB@DFCHPNBP@Didn?8t?5find?5?$CFs?4?6?$AA@ 20095bbc     g_svcmds.obj
 0002:00003bd0       ??_C@_09HBKBHJKE@Removed?4?6?$AA@ 20095bd0     g_svcmds.obj
 0002:00003bdc       ??_C@_0BP@OJMGJOKB@Usage?3?5?5sv?5removeip?5?$DMip?9mask?$DO?6?$AA@ 20095bdc     g_svcmds.obj
 0002:00003bfc       ??_C@_0BB@HGPMICB@?$CF3i?4?$CF3i?4?$CF3i?4?$CF3i?6?$AA@ 20095bfc     g_svcmds.obj
 0002:00003c10       ??_C@_0O@IHMGPBBL@Filter?5list?3?6?$AA@ 20095c10     g_svcmds.obj
 0002:00003c20       ??_C@_0BG@KCOEHIII@sv?5addip?5?$CFi?4?$CFi?4?$CFi?4?$CFi?6?$AA@ 20095c20     g_svcmds.obj
 0002:00003c38       ??_C@_0BC@KGHPEGGP@set?5filterban?5?$CFd?6?$AA@ 20095c38     g_svcmds.obj
 0002:00003c4c       ??_C@_0BC@ONJICBGP@Couldn?8t?5open?5?$CFs?6?$AA@ 20095c4c     g_svcmds.obj
 0002:00003c60       ??_C@_0N@FMLDMECN@Writing?5?$CFs?4?6?$AA@ 20095c60     g_svcmds.obj
 0002:00003c70       ??_C@_0O@LIJIAIPM@?$CFs?1listip?4cfg?$AA@ 20095c70     g_svcmds.obj
 0002:00003c80       ??_C@_04MJNAPEEI@game?$AA@ 20095c80     g_svcmds.obj
 0002:00003c88       ??_C@_0BN@MFKGNFML@Unknown?5server?5command?5?$CC?$CFs?$CC?6?$AA@ 20095c88     g_svcmds.obj
 0002:00003ca8       ??_C@_07NHOPOI@writeip?$AA@ 20095ca8     g_svcmds.obj
 0002:00003cb0       ??_C@_06DDGIHMAP@listip?$AA@ 20095cb0     g_svcmds.obj
 0002:00003cb8       ??_C@_08FODIKFHA@removeip?$AA@ 20095cb8     g_svcmds.obj
 0002:00003cc4       ??_C@_05DNFKLKCD@addip?$AA@ 20095cc4     g_svcmds.obj
 0002:00003ccc       ??_C@_04CEJDCDCH@test?$AA@ 20095ccc     g_svcmds.obj
 0002:00003cd4       ??_C@_06MKMJDPPC@?$CFs?4wav?$AA@ 20095cd4     g_target.obj
 0002:00003cdc       ??_C@_04IBLEHOMF@?4wav?$AA@ 20095cdc     g_target.obj
 0002:00003ce4       ??_C@_0CI@PDDPEIGA@target_speaker?5with?5no?5noise?5set@ 20095ce4     g_target.obj
 0002:00003d0c       ??_C@_0BK@MKPELMH@?$CFs?5with?5no?5message?5at?5?$CFs?6?$AA@ 20095d0c     g_target.obj
 0002:00003d28       ??_C@_0BO@LEKNCJD@You?5have?5found?5a?5secret?5area?4?$AA@ 20095d28     g_target.obj
 0002:00003d48       __real@c083800000000000    20095d48     g_target.obj
 0002:00003d50       __real@c0a0000000000000    20095d50     g_target.obj
 0002:00003d58       __real@4071800000000000    20095d58     g_target.obj
 0002:00003d60       ??_C@_05PPLLLCP@mine3?$AA@ 20095d60     g_target.obj
 0002:00003d68       ??_C@_0BA@HCFAMHIH@misc?1secret?4wav?$AA@ 20095d68     g_target.obj
 0002:00003d78       ??_C@_01NBENCBCI@?$CK?$AA@ 20095d78     g_target.obj
 0002:00003d7c       ??_C@_0BG@LKJLJPM@?$CFs?5exited?5the?5level?4?6?$AA@ 20095d7c     g_target.obj
 0002:00003d94       ??_C@_0O@KLKOMPAE@fact3$secret1?$AA@ 20095d94     g_target.obj
 0002:00003da4       ??_C@_05LKMCBBLH@fact3?$AA@ 20095da4     g_target.obj
 0002:00003dac       ??_C@_05IIPEHDDF@fact1?$AA@ 20095dac     g_target.obj
 0002:00003db4       ??_C@_0CG@BBJIDEJH@target_changelevel?5with?5no?5map?5a@ 20095db4     g_target.obj
 0002:00003ddc       __real@447a0000            20095ddc     g_target.obj
 0002:00003de0       ??_C@_0BD@LMJKLJOH@weapons?1laser2?4wav?$AA@ 20095de0     g_target.obj
 0002:00003df4       __real@45000000            20095df4     g_target.obj
 0002:00003df8       ??_C@_0BO@JBAPADMO@?$CFs?5at?5?$CFs?3?5?$CFs?5is?5a?5bad?5target?6?$AA@ 20095df8     g_target.obj
 0002:00003e18       __real@4058400000000000    20095e18     g_target.obj
 0002:00003e20       ??_C@_0BO@FFPFMLH@?$CFs?5target?5?$CFs?5not?5found?5at?5?$CFs?6?$AA@ 20095e20     g_target.obj
 0002:00003e40       ??_C@_0CF@BKMMIIM@target?5?$CFs?5?$CI?$CFs?5at?5?$CFs?$CJ?5is?5not?5a?5li@ 20095e40     g_target.obj
 0002:00003e68       ??_C@_09KNDFEIHO@?$CFs?5at?5?$CFs?5?$AA@ 20095e68     g_target.obj
 0002:00003e74       ??_C@_0CK@IIPDCKAA@target_lightramp?5has?5bad?5ramp?5?$CI?$CF@ 20095e74     g_target.obj
 0002:00003ea0       __real@4062c00000000000    20095ea0     g_target.obj
 0002:00003ea8       ??_C@_0BA@FAAKHJFL@world?1quake?4wav?$AA@ 20095ea8     g_target.obj
 0002:00003eb8       ??_C@_0BF@CCKDOAMJ@untargeted?5?$CFs?5at?5?$CFs?6?$AA@ 20095eb8     g_target.obj
 0002:00003ed0       ??_C@_0BC@KGOFJPNH@misc?1trigger1?4wav?$AA@ 20095ed0     g_trigger.obj
 0002:00003ee4       ??_C@_0CC@IHFKCBLO@fixed?5TRIGGERED?5flag?5on?5?$CFs?5at?5?$CFs@ 20095ee4     g_trigger.obj
 0002:00003f08       ??_C@_0BA@JJMKFLDF@misc?1keyuse?4wav?$AA@ 20095f08     g_trigger.obj
 0002:00003f18       ??_C@_0BA@IHADJCPP@misc?1keytry?4wav?$AA@ 20095f18     g_trigger.obj
 0002:00003f28       ??_C@_0BA@NFEBBKCH@You?5need?5the?5?$CFs?$AA@ 20095f28     g_trigger.obj
 0002:00003f38       ??_C@_0BI@JOAAKOCK@?$CFs?5at?5?$CFs?5has?5no?5target?6?$AA@ 20095f38     g_trigger.obj
 0002:00003f50       ??_C@_0CJ@EINKBNFA@item?5?$CFs?5not?5found?5for?5trigger_ke@ 20095f50     g_trigger.obj
 0002:00003f7c       ??_C@_0CD@IAFIJHIK@no?5key?5item?5for?5trigger_key?5at?5?$CF@ 20095f7c     g_trigger.obj
 0002:00003fa0       ??_C@_0BE@EBPNPHOF@Sequence?5completed?$CB?$AA@ 20095fa0     g_trigger.obj
 0002:00003fb4       ??_C@_0BB@CIHKMHMM@?$CFi?5more?5to?5go?4?4?4?$AA@ 20095fb4     g_trigger.obj
 0002:00003fc8       ??_C@_07JBPBHDIL@grenade?$AA@ 20095fc8     g_trigger.obj
 0002:00003fd0       ??_C@_0BB@LLNOHMMO@misc?1windfly?4wav?$AA@ 20095fd0     g_trigger.obj
 0002:00003fe4       ??_C@_0BC@PBIONGLI@world?1electro?4wav?$AA@ 20095fe4     g_trigger.obj
 0002:00003ff8       ??_C@_0CL@LPNCJGIK@trigger_gravity?5without?5gravity?5@ 20095ff8     g_trigger.obj
 0002:00004024       __real@43b40000            20096024     g_trigger.obj
 0002:00004028       ??_C@_0BF@BHHFOBHB@weapons?1rocklf1a?4wav?$AA@ 20096028     g_turret.obj
 0002:00004040       __real@4081300000000000    20096040     g_turret.obj
 0002:00004048       __real@4049000000000000    20096048     g_turret.obj
 0002:00004050       __real@3f91df46a2529d39    20096050     g_turret.obj
 0002:00004058       __real@c066800000000000    20096058     g_turret.obj
 0002:00004060       __real@4066800000000000    20096060     g_turret.obj
 0002:00004068       ??_C@_0BJ@GPNONALJ@?$CFs?5at?5?$CFs?5needs?5a?5target?6?$AA@ 20096068     g_turret.obj
 0002:00004084       ??_C@_0CC@CHJEJNJO@models?1monsters?1infantry?1tris?4md@ 20096084     g_turret.obj
 0002:000040a8       ??_C@_0CD@HHFHMIIH@G_PickTarget?3?5target?5?$CFs?5not?5foun@ 200960a8     g_utils.obj
 0002:000040cc       ??_C@_0CK@JOENGKNM@G_PickTarget?5called?5with?5NULL?5ta@ 200960cc     g_utils.obj
 0002:000040f8       ??_C@_0CI@HMPHOHE@entity?5was?5removed?5while?5using?5t@ 200960f8     g_utils.obj
 0002:00004120       ??_C@_0BO@JIDGNOMJ@WARNING?3?5Entity?5used?5itself?4?6?$AA@ 20096120     g_utils.obj
 0002:00004140       ??_C@_0CM@HNAFLCKA@entity?5was?5removed?5while?5using?5k@ 20096140     g_utils.obj
 0002:0000416c       ??_C@_0BP@FMIPALGG@Think_Delay?5with?5no?5activator?6?$AA@ 2009616c     g_utils.obj
 0002:0000418c       ??_C@_0L@JMKEFFDI@DelayedUse?$AA@ 2009618c     g_utils.obj
 0002:00004198       ??_C@_0L@OPPGOKFJ@?$CI?$CFi?5?$CFi?5?$CFi?$CJ?$AA@ 20096198     g_utils.obj
 0002:000041a8       __real@400921fb54442d18    200961a8     g_utils.obj
 0002:000041b0       __real@43870000            200961b0     g_utils.obj
 0002:000041b4       ??_C@_07CBNPCFPB@noclass?$AA@ 200961b4     g_utils.obj
 0002:000041bc       ??_C@_0BJ@FNCHIGJN@ED_Alloc?3?5no?5free?5edicts?$AA@ 200961bc     g_utils.obj
 0002:000041d8       ??_C@_05FAPHKBON@freed?$AA@ 200961d8     g_utils.obj
 0002:000041e0       __real@c0000000            200961e0     g_weapon.obj
 0002:000041e4       ??_C@_08OCCNMDFI@?$CKbrwater?$AA@ 200961e4     g_weapon.obj
 0002:000041f0       __real@46000000            200961f0     g_weapon.obj
 0002:000041f4       __real@c1200000            200961f4     g_weapon.obj
 0002:000041f8       ??_C@_04LDPEEFCM@bolt?$AA@ 200961f8     g_weapon.obj
 0002:00004200       ??_C@_0BA@DLICHMFN@misc?1lasfly?4wav?$AA@ 20096200     g_weapon.obj
 0002:00004210       ??_C@_0BO@GPCFHBAI@models?1objects?1laser?1tris?4md2?$AA@ 20096210     g_weapon.obj
 0002:00004230       ??_C@_0CA@NNGGGAIN@models?1objects?1grenade?1tris?4md2?$AA@ 20096230     g_weapon.obj
 0002:00004250       __real@bca3d70a            20096250     g_weapon.obj
 0002:00004254       ??_C@_0BF@CAKIGFPJ@weapons?1grenlb1b?4wav?$AA@ 20096254     g_weapon.obj
 0002:0000426c       ??_C@_0BF@HFMEEACK@weapons?1hgrenb2a?4wav?$AA@ 2009626c     g_weapon.obj
 0002:00004284       ??_C@_0BF@EECMFKLH@weapons?1hgrenb1a?4wav?$AA@ 20096284     g_weapon.obj
 0002:0000429c       ??_C@_0BF@POPIGCBL@weapons?1hgrent1a?4wav?$AA@ 2009629c     g_weapon.obj
 0002:000042b4       ??_C@_0BF@OBCCIIH@weapons?1hgrenc1b?4wav?$AA@ 200962b4     g_weapon.obj
 0002:000042cc       ??_C@_08PFGBJLPA@hgrenade?$AA@ 200962cc     g_weapon.obj
 0002:000042d8       ??_C@_0CB@HBCNIKLA@models?1objects?1grenade2?1tris?4md2@ 200962d8     g_weapon.obj
 0002:000042fc       ??_C@_06NHDMJEKK@rocket?$AA@ 200962fc     g_weapon.obj
 0002:00004304       ??_C@_0BE@NMAMPJPE@weapons?1rockfly?4wav?$AA@ 20096304     g_weapon.obj
 0002:00004318       ??_C@_0BP@BNLCIJEN@models?1objects?1rocket?1tris?4md2?$AA@ 20096318     g_weapon.obj
 0002:00004338       ??_C@_0BD@LDLLBOJF@sprites?1s_bfg3?4sp2?$AA@ 20096338     g_weapon.obj
 0002:0000434c       __real@bdcccccd            2009634c     g_weapon.obj
 0002:00004350       ??_C@_0BF@BHADIBFK@weapons?1bfg__x1b?4wav?$AA@ 20096350     g_weapon.obj
 0002:00004368       __real@43800000            20096368     g_weapon.obj
 0002:0000436c       ??_C@_0BF@GJGGMMCF@weapons?1bfg__l1a?4wav?$AA@ 2009636c     g_weapon.obj
 0002:00004384       ??_C@_09HEANOFFE@bfg?5blast?$AA@ 20096384     g_weapon.obj
 0002:00004390       ??_C@_0BD@POHDLPJO@sprites?1s_bfg1?4sp2?$AA@ 20096390     g_weapon.obj
 0002:000043a4       ??_C@_0BD@FGPBLNPJ@Check?5your?5targets?$AA@ 200963a4     m_actor.obj
 0002:000043b8       ??_C@_05EECOFMBD@Idiot?$AA@ 200963b8     m_actor.obj
 0002:000043c0       ??_C@_05JGFELICP@?$CD$?$EA?$CK?$CG?$AA@ 200963c0     m_actor.obj
 0002:000043c8       ??_C@_08IAOGDBOI@Watch?5it?$AA@ 200963c8     m_actor.obj
 0002:000043d4       ??_C@_09OGMLPJBP@Bitterman?$AA@ 200963d4     m_actor.obj
 0002:000043e0       ??_C@_05PPHFLGME@Titus?$AA@ 200963e0     m_actor.obj
 0002:000043e8       ??_C@_07KPGDBGIH@Rambear?$AA@ 200963e8     m_actor.obj
 0002:000043f0       ??_C@_0L@ELPBKLNB@Adrianator?$AA@ 200963f0     m_actor.obj
 0002:000043fc       ??_C@_09DKCOIMMC@Disruptor?$AA@ 200963fc     m_actor.obj
 0002:00004408       ??_C@_06HONDEKPG@Killme?$AA@ 20096408     m_actor.obj
 0002:00004410       ??_C@_05JJIPOHIL@Tokay?$AA@ 20096410     m_actor.obj
 0002:00004418       ??_C@_07FDDBJHBJ@Hellrot?$AA@ 20096418     m_actor.obj
 0002:00004420       ??_C@_08ELDLCOLP@?$CFs?3?5?$CFs?$CB?6?$AA@ 20096420     m_actor.obj
 0002:00004430       __real@3fd999999999999a    20096430     m_actor.obj
 0002:00004438       __real@be4ccccd            20096438     m_actor.obj
 0002:0000443c       ??_C@_0BM@NHJIPHG@?$CFs?5has?5bad?5target?5?$CFs?5at?5?$CFs?6?$AA@ 2009643c     m_actor.obj
 0002:00004458       ??_C@_0BG@CBIGOLJ@players?1male?1tris?4md2?$AA@ 20096458     m_actor.obj
 0002:00004470       ??_C@_0BG@BMFGEDBL@player?1male?1jump1?4wav?$AA@ 20096470     m_actor.obj
 0002:00004488       ??_C@_07KJFPOMFC@?$CFs?3?5?$CFs?6?$AA@ 20096488     m_actor.obj
 0002:00004490       ??_C@_0BN@MOOMAGJD@?$CFs?5with?5no?5targetname?5at?5?$CFs?6?$AA@ 20096490     m_actor.obj
 0002:000044b0       __real@3fc3333333333333    200964b0     m_berserk.obj
 0002:000044b8       __real@c0800000            200964b8     m_berserk.obj
 0002:000044bc       __real@42a00000            200964bc     m_berserk.obj
 0002:000044c0       ??_C@_0CB@MKDDEMKI@models?1monsters?1berserk?1tris?4md2@ 200964c0     m_berserk.obj
 0002:000044e4       ??_C@_0BC@ILDGAOGE@berserk?1sight?4wav?$AA@ 200964e4     m_berserk.obj
 0002:000044f8       ??_C@_0BF@OAPCNCAG@berserk?1bersrch1?4wav?$AA@ 200964f8     m_berserk.obj
 0002:00004510       ??_C@_0BD@DJANHGGB@berserk?1attack?4wav?$AA@ 20096510     m_berserk.obj
 0002:00004524       ??_C@_0BF@LHFDILLA@berserk?1beridle1?4wav?$AA@ 20096524     m_berserk.obj
 0002:0000453c       ??_C@_0BF@BNMLCNLD@berserk?1berdeth2?4wav?$AA@ 2009653c     m_berserk.obj
 0002:00004554       ??_C@_0BF@OKAMEMON@berserk?1berpain2?4wav?$AA@ 20096554     m_berserk.obj
 0002:00004570       __real@3fe3333333333333    20096570     m_boss2.obj
 0002:00004578       __real@405f400000000000    20096578     m_boss2.obj
 0002:00004580       __real@c2600000            20096580     m_boss2.obj
 0002:00004584       __real@3f4ccccd            20096584     m_boss2.obj
 0002:00004588       ??_C@_0BP@GPCMNKMP@models?1monsters?1boss2?1tris?4md2?$AA@ 20096588     m_boss2.obj
 0002:000045a8       ??_C@_0BG@NAFJNLPM@bosshovr?1bhvengn1?4wav?$AA@ 200965a8     m_boss2.obj
 0002:000045c0       ??_C@_0BG@BJBCLABB@bosshovr?1bhvunqv1?4wav?$AA@ 200965c0     m_boss2.obj
 0002:000045d8       ??_C@_0BG@CMCKCNON@bosshovr?1bhvdeth1?4wav?$AA@ 200965d8     m_boss2.obj
 0002:000045f0       ??_C@_0BG@JGCFONLI@bosshovr?1bhvpain3?4wav?$AA@ 200965f0     m_boss2.obj
 0002:00004608       ??_C@_0BG@FNHJDOBN@bosshovr?1bhvpain2?4wav?$AA@ 20096608     m_boss2.obj
 0002:00004620       ??_C@_0BG@NLONEMLD@bosshovr?1bhvpain1?4wav?$AA@ 20096620     m_boss2.obj
 0002:00004638       ??_C@_0BB@IFCLEKJK@misc?1bigtele?4wav?$AA@ 20096638     m_boss3.obj
 0002:0000464c       ??_C@_0CF@EJHGIANN@models?1monsters?1boss3?1rider?1tris@ 2009664c     m_boss3.obj
 0002:00004678       __real@3feccccccccccccd    20096678     m_boss31.obj
 0002:00004680       __real@3f0a36e2eb1c432d    20096680     m_boss31.obj
 0002:00004688       __real@3f747ae147ae147b    20096688     m_boss31.obj
 0002:00004690       ??_C@_0BB@JFHENNON@boss3?1w_loop?4wav?$AA@ 20096690     m_boss31.obj
 0002:000046a8       __real@3fe8000000000000    200966a8     m_boss31.obj
 0002:000046b0       __real@430c0000            200966b0     m_boss31.obj
 0002:000046b4       __real@c2a00000            200966b4     m_boss31.obj
 0002:000046b8       ??_C@_0CE@IOFDMCNF@models?1monsters?1boss3?1jorg?1tris?4@ 200966b8     m_boss31.obj
 0002:000046dc       ??_C@_0BA@BMONCCGE@boss3?1d_hit?4wav?$AA@ 200966dc     m_boss31.obj
 0002:000046ec       ??_C@_0BA@MCBECMBP@boss3?1xfire?4wav?$AA@ 200966ec     m_boss31.obj
 0002:000046fc       ??_C@_0BA@GJHJIBDG@boss3?1step2?4wav?$AA@ 200966fc     m_boss31.obj
 0002:0000470c       ??_C@_0BA@OPONPDJI@boss3?1step1?4wav?$AA@ 2009670c     m_boss31.obj
 0002:0000471c       ??_C@_0BD@CFNKMJHI@boss3?1bs3idle1?4wav?$AA@ 2009671c     m_boss31.obj
 0002:00004730       ??_C@_0BD@DPLDDBMF@boss3?1bs3srch3?4wav?$AA@ 20096730     m_boss31.obj
 0002:00004744       ??_C@_0BD@PEOPOCGA@boss3?1bs3srch2?4wav?$AA@ 20096744     m_boss31.obj
 0002:00004758       ??_C@_0BD@HCHLJAMO@boss3?1bs3srch1?4wav?$AA@ 20096758     m_boss31.obj
 0002:0000476c       ??_C@_0BD@JFEGNAKC@boss3?1bs3atck2?4wav?$AA@ 2009676c     m_boss31.obj
 0002:00004780       ??_C@_0BD@BDNCKCAM@boss3?1bs3atck1?4wav?$AA@ 20096780     m_boss31.obj
 0002:00004794       ??_C@_0BD@JNGBNNF@boss3?1bs3deth1?4wav?$AA@ 20096794     m_boss31.obj
 0002:000047a8       ??_C@_0BD@LDNJNNIA@boss3?1bs3pain3?4wav?$AA@ 200967a8     m_boss31.obj
 0002:000047bc       ??_C@_0BD@HIIFAOCF@boss3?1bs3pain2?4wav?$AA@ 200967bc     m_boss31.obj
 0002:000047d0       ??_C@_0BD@POBBHMIL@boss3?1bs3pain1?4wav?$AA@ 200967d0     m_boss31.obj
 0002:000047e8       __real@3fd6666666666666    200967e8     m_boss32.obj
 0002:000047f0       __real@3fdccccccccccccd    200967f0     m_boss32.obj
 0002:000047f8       ??_C@_0BB@LDINCAHJ@makron?1spine?4wav?$AA@ 200967f8     m_boss32.obj
 0002:0000480c       __real@c2700000            2009680c     m_boss32.obj
 0002:00004810       __real@4055000000000000    20096810     m_boss32.obj
 0002:00004818       ??_C@_0CC@PDCGHFHB@models?1objects?1gibs?1gear?1tris?4md@ 20096818     m_boss32.obj
 0002:0000483c       ??_C@_0CG@KMOIGHGI@models?1objects?1gibs?1sm_metal?1tri@ 2009683c     m_boss32.obj
 0002:00004864       ??_C@_0BA@GAJKKMIE@makron?1bhit?4wav?$AA@ 20096864     m_boss32.obj
 0002:00004874       ??_C@_0BB@EHAKAHFN@makron?1voice?4wav?$AA@ 20096874     m_boss32.obj
 0002:00004888       ??_C@_0BC@IKKIPIHH@makron?1voice3?4wav?$AA@ 20096888     m_boss32.obj
 0002:0000489c       ??_C@_0BC@JHKNMIMP@makron?1voice4?4wav?$AA@ 2009689c     m_boss32.obj
 0002:000048b0       ??_C@_0BB@HOPFGHMG@makron?1popup?4wav?$AA@ 200968b0     m_boss32.obj
 0002:000048c4       ??_C@_0BD@GFANDLMC@makron?1rail_up?4wav?$AA@ 200968c4     m_boss32.obj
 0002:000048d8       ??_C@_0BC@CDAAAOEH@makron?1brain1?4wav?$AA@ 200968d8     m_boss32.obj
 0002:000048ec       ??_C@_0BE@BPNJIENI@makron?1bfg_fire?4wav?$AA@ 200968ec     m_boss32.obj
 0002:00004900       ??_C@_0BB@JPKELLOG@makron?1step2?4wav?$AA@ 20096900     m_boss32.obj
 0002:00004914       ??_C@_0BB@BJDAMJEI@makron?1step1?4wav?$AA@ 20096914     m_boss32.obj
 0002:00004928       ??_C@_0BB@DMHNHGDN@makron?1death?4wav?$AA@ 20096928     m_boss32.obj
 0002:0000493c       ??_C@_0BB@HEBOIHKJ@makron?1pain1?4wav?$AA@ 2009693c     m_boss32.obj
 0002:00004950       ??_C@_0BB@PCIKPFAH@makron?1pain2?4wav?$AA@ 20096950     m_boss32.obj
 0002:00004964       ??_C@_0BB@DJNGCGKC@makron?1pain3?4wav?$AA@ 20096964     m_boss32.obj
 0002:00004978       __real@43c80000            20096978     m_boss32.obj
 0002:00004980       __real@3fe999999999999a    20096980     m_boss32.obj
 0002:00004988       __real@3fe51eb851eb851f    20096988     m_brain.obj
 0002:00004990       __real@3fd51eb851eb851f    20096990     m_brain.obj
 0002:00004998       ??_C@_0BP@POLEMPBH@models?1monsters?1brain?1tris?4md2?$AA@ 20096998     m_brain.obj
 0002:000049b8       ??_C@_0BB@ODCKILPG@brain?1melee3?4wav?$AA@ 200969b8     m_brain.obj
 0002:000049cc       ??_C@_0BB@CIHGFIFD@brain?1melee2?4wav?$AA@ 200969cc     m_brain.obj
 0002:000049e0       ??_C@_0BB@KOOCCKPN@brain?1melee1?4wav?$AA@ 200969e0     m_brain.obj
 0002:000049f4       ??_C@_0BD@CEJCMEEH@brain?1brnsrch1?4wav?$AA@ 200969f4     m_brain.obj
 0002:00004a08       ??_C@_0BD@DPNBCJJF@brain?1brnsght1?4wav?$AA@ 20096a08     m_brain.obj
 0002:00004a1c       ??_C@_0BD@COGMFKKM@brain?1brnpain2?4wav?$AA@ 20096a1c     m_brain.obj
 0002:00004a30       ??_C@_0BD@KIPICIAC@brain?1brnpain1?4wav?$AA@ 20096a30     m_brain.obj
 0002:00004a44       ??_C@_0BD@MEEKOMHP@brain?1brnlens1?4wav?$AA@ 20096a44     m_brain.obj
 0002:00004a58       ??_C@_0BD@PFKHOPFP@brain?1brnidle2?4wav?$AA@ 20096a58     m_brain.obj
 0002:00004a6c       ??_C@_0BD@HDDDJNPB@brain?1brnidle1?4wav?$AA@ 20096a6c     m_brain.obj
 0002:00004a80       ??_C@_0BD@FPDPEJFM@brain?1brndeth1?4wav?$AA@ 20096a80     m_brain.obj
 0002:00004a94       ??_C@_0BD@IPDFHIO@brain?1brnatck3?4wav?$AA@ 20096a94     m_brain.obj
 0002:00004aa8       ??_C@_0BD@MDKPIECL@brain?1brnatck2?4wav?$AA@ 20096aa8     m_brain.obj
 0002:00004abc       ??_C@_0BD@EFDLPGIF@brain?1brnatck1?4wav?$AA@ 20096abc     m_brain.obj
 0002:00004ad0       ??_C@_0BD@KEJMOGOL@chick?1chksrch1?4wav?$AA@ 20096ad0     m_chick.obj
 0002:00004ae4       ??_C@_0BD@LPNPALDJ@chick?1chksght1?4wav?$AA@ 20096ae4     m_chick.obj
 0002:00004af8       ??_C@_0BD@GFDOKLKF@chick?1chkpain3?4wav?$AA@ 20096af8     m_chick.obj
 0002:00004b0c       ??_C@_0BD@KOGCHIAA@chick?1chkpain2?4wav?$AA@ 20096b0c     m_chick.obj
 0002:00004b20       ??_C@_0BD@CIPGAKKO@chick?1chkpain1?4wav?$AA@ 20096b20     m_chick.obj
 0002:00004b34       ??_C@_0BD@HFKJMNPD@chick?1chkidle2?4wav?$AA@ 20096b34     m_chick.obj
 0002:00004b48       ??_C@_0BD@PDDNLPFN@chick?1chkidle1?4wav?$AA@ 20096b48     m_chick.obj
 0002:00004b5c       ??_C@_0BD@NNDJOEEM@chick?1chkfall1?4wav?$AA@ 20096b5c     m_chick.obj
 0002:00004b70       ??_C@_0BD@FJKFBJFO@chick?1chkdeth2?4wav?$AA@ 20096b70     m_chick.obj
 0002:00004b84       ??_C@_0BD@NPDBGLPA@chick?1chkdeth1?4wav?$AA@ 20096b84     m_chick.obj
 0002:00004b98       ??_C@_0BD@FOKEJGDP@chick?1chkatck5?4wav?$AA@ 20096b98     m_chick.obj
 0002:00004bac       ??_C@_0BD@JFPIEFJK@chick?1chkatck4?4wav?$AA@ 20096bac     m_chick.obj
 0002:00004bc0       ??_C@_0BD@IIPNHFCC@chick?1chkatck3?4wav?$AA@ 20096bc0     m_chick.obj
 0002:00004bd4       ??_C@_0BD@EDKBKGIH@chick?1chkatck2?4wav?$AA@ 20096bd4     m_chick.obj
 0002:00004be8       ??_C@_0BD@MFDFNECJ@chick?1chkatck1?4wav?$AA@ 20096be8     m_chick.obj
 0002:00004bfc       ??_C@_0CB@IGKEJCCH@models?1monsters?1flipper?1tris?4md2@ 20096bfc     m_flipper.obj
 0002:00004c20       ??_C@_0BF@INIKHJCD@flipper?1flpsght1?4wav?$AA@ 20096c20     m_flipper.obj
 0002:00004c38       ??_C@_0BF@JGMJJEPB@flipper?1flpsrch1?4wav?$AA@ 20096c38     m_flipper.obj
 0002:00004c50       ??_C@_0BF@MBGIMNEH@flipper?1flpidle1?4wav?$AA@ 20096c50     m_flipper.obj
 0002:00004c68       ??_C@_0BF@HBPENEJN@flipper?1flpatck2?4wav?$AA@ 20096c68     m_flipper.obj
 0002:00004c80       ??_C@_0BF@PHGAKGDD@flipper?1flpatck1?4wav?$AA@ 20096c80     m_flipper.obj
 0002:00004c98       ??_C@_0BF@ONGEBJOK@flipper?1flpdeth1?4wav?$AA@ 20096c98     m_flipper.obj
 0002:00004cb0       ??_C@_0BF@JMDHAKBK@flipper?1flppain2?4wav?$AA@ 20096cb0     m_flipper.obj
 0002:00004cc8       ??_C@_0BF@BKKDHILE@flipper?1flppain1?4wav?$AA@ 20096cc8     m_flipper.obj
 0002:00004ce0       __real@bf666666            20096ce0     m_float.obj
 0002:00004ce4       __real@41940000            20096ce4     m_float.obj
 0002:00004ce8       ??_C@_0BP@GJFCCFJJ@models?1monsters?1float?1tris?4md2?$AA@ 20096ce8     m_float.obj
 0002:00004d08       ??_C@_0BF@JDFCBFG@floater?1fltsrch1?4wav?$AA@ 20096d08     m_float.obj
 0002:00004d20       ??_C@_0BF@GIJMBDJE@floater?1fltatck1?4wav?$AA@ 20096d20     m_float.obj
 0002:00004d38       ??_C@_0BF@BCHGMMIE@floater?1fltsght1?4wav?$AA@ 20096d38     m_float.obj
 0002:00004d50       ??_C@_0BF@DMLLPLN@floater?1fltpain2?4wav?$AA@ 20096d50     m_float.obj
 0002:00004d68       ??_C@_0BF@IFFPMNBD@floater?1fltpain1?4wav?$AA@ 20096d68     m_float.obj
 0002:00004d80       ??_C@_0BF@FOJEHIOA@floater?1fltidle1?4wav?$AA@ 20096d80     m_float.obj
 0002:00004d98       ??_C@_0BF@HCJIKMEN@floater?1fltdeth1?4wav?$AA@ 20096d98     m_float.obj
 0002:00004db0       ??_C@_0BF@CFFELCJP@floater?1fltatck3?4wav?$AA@ 20096db0     m_float.obj
 0002:00004dc8       ??_C@_0BF@OOAIGBDK@floater?1fltatck2?4wav?$AA@ 20096dc8     m_float.obj
 0002:00004de0       ??_C@_0BD@FIHMGIDO@flyer?1flyidle1?4wav?$AA@ 20096de0     m_flyer.obj
 0002:00004df4       ??_C@_0BP@JGADKNKC@models?1monsters?1flyer?1tris?4md2?$AA@ 20096df4     m_flyer.obj
 0002:00004e14       ??_C@_0BD@CDLMKCEB@flyer?1flyatck3?4wav?$AA@ 20096e14     m_flyer.obj
 0002:00004e28       ??_C@_0BD@HEHALMJD@flyer?1flydeth1?4wav?$AA@ 20096e28     m_flyer.obj
 0002:00004e3c       ??_C@_0BD@GOHEADEK@flyer?1flyatck1?4wav?$AA@ 20096e3c     m_flyer.obj
 0002:00004e50       ??_C@_0BD@OIOAHBOE@flyer?1flyatck2?4wav?$AA@ 20096e50     m_flyer.obj
 0002:00004e64       ??_C@_0BD@FCDKPGD@flyer?1flypain2?4wav?$AA@ 20096e64     m_flyer.obj
 0002:00004e78       ??_C@_0BD@IDLHNNMN@flyer?1flypain1?4wav?$AA@ 20096e78     m_flyer.obj
 0002:00004e8c       ??_C@_0BD@PNNDBII@flyer?1flysrch1?4wav?$AA@ 20096e8c     m_flyer.obj
 0002:00004ea0       ??_C@_0BD@BEJONMFK@flyer?1flysght1?4wav?$AA@ 20096ea0     m_flyer.obj
 0002:00004eb8       __real@c05a000000000000    20096eb8     m_flyer.obj
 0002:00004ec0       ??_C@_05OGNCGEOG@jail5?$AA@ 20096ec0     m_flyer.obj
 0002:00004ec8       __real@405c000000000000    20096ec8     m_gladiator.obj
 0002:00004ed0       ??_C@_0CC@CEACMEID@models?1monsters?1gladiatr?1tris?4md@ 20096ed0     m_gladiator.obj
 0002:00004ef4       ??_C@_0BE@COCGHHO@gladiator?1sight?4wav?$AA@ 20096ef4     m_gladiator.obj
 0002:00004f08       ??_C@_0BH@CAHLFAA@gladiator?1gldsrch1?4wav?$AA@ 20096f08     m_gladiator.obj
 0002:00004f20       ??_C@_0BH@FFKGOMLG@gladiator?1gldidle1?4wav?$AA@ 20096f20     m_gladiator.obj
 0002:00004f38       ??_C@_0BF@BGMPHCFA@gladiator?1melee3?4wav?$AA@ 20096f38     m_gladiator.obj
 0002:00004f50       ??_C@_0BF@NNJDKBPF@gladiator?1melee2?4wav?$AA@ 20096f50     m_gladiator.obj
 0002:00004f68       ??_C@_0BF@FLAHNDFL@gladiator?1melee1?4wav?$AA@ 20096f68     m_gladiator.obj
 0002:00004f80       ??_C@_0BG@KFHJGBLI@gladiator?1railgun?4wav?$AA@ 20096f80     m_gladiator.obj
 0002:00004f98       ??_C@_0BH@PPDOEKLF@gladiator?1glddeth2?4wav?$AA@ 20096f98     m_gladiator.obj
 0002:00004fb0       ??_C@_0BH@IPJCLOL@gladiator?1gldpain2?4wav?$AA@ 20096fb0     m_gladiator.obj
 0002:00004fc8       ??_C@_0BD@IDBCNDOM@gladiator?1pain?4wav?$AA@ 20096fc8     m_gladiator.obj
 0002:00004fe0       __real@3fa999999999999a    20096fe0     m_gunner.obj
 0002:00004fe8       __real@3f933333            20096fe8     m_gunner.obj
 0002:00004fec       ??_C@_0CA@MLBPPAG@models?1monsters?1gunner?1tris?4md2?$AA@ 20096fec     m_gunner.obj
 0002:0000500c       ??_C@_0BE@HBMIEKJL@gunner?1gunatck3?4wav?$AA@ 2009700c     m_gunner.obj
 0002:00005020       ??_C@_0BE@LKJEJJDO@gunner?1gunatck2?4wav?$AA@ 20097020     m_gunner.obj
 0002:00005034       ??_C@_0BC@BOLAIAPN@gunner?1sight1?4wav?$AA@ 20097034     m_gunner.obj
 0002:00005048       ??_C@_0BE@FNKJNJFC@gunner?1gunsrch1?4wav?$AA@ 20097048     m_gunner.obj
 0002:0000505c       ??_C@_0BE@DMAAOLJA@gunner?1gunatck1?4wav?$AA@ 2009705c     m_gunner.obj
 0002:00005070       ??_C@_0BE@KAIIAOE@gunner?1gunidle1?4wav?$AA@ 20097070     m_gunner.obj
 0002:00005084       ??_C@_0BE@NBMDDFBH@gunner?1gunpain1?4wav?$AA@ 20097084     m_gunner.obj
 0002:00005098       ??_C@_0BE@FHFHEHLJ@gunner?1gunpain2?4wav?$AA@ 20097098     m_gunner.obj
 0002:000050ac       ??_C@_0BC@HLDBBKGP@gunner?1death1?4wav?$AA@ 200970ac     m_gunner.obj
 0002:000050c0       ??_C@_0BP@CAGBEFDJ@models?1monsters?1hover?1tris?4md2?$AA@ 200970c0     m_hover.obj
 0002:000050e0       ??_C@_0BD@POIFLKJJ@hover?1hovidle1?4wav?$AA@ 200970e0     m_hover.obj
 0002:000050f4       ??_C@_0BD@MIINNBON@hover?1hovatck1?4wav?$AA@ 200970f4     m_hover.obj
 0002:00005108       ??_C@_0BD@CPLAJBIB@hover?1hovsrch2?4wav?$AA@ 20097108     m_hover.obj
 0002:0000511c       ??_C@_0BD@KJCEODCP@hover?1hovsrch1?4wav?$AA@ 2009711c     m_hover.obj
 0002:00005130       ??_C@_0BD@LCGHAOPN@hover?1hovsght1?4wav?$AA@ 20097130     m_hover.obj
 0002:00005144       ??_C@_0BD@FEBNBMJK@hover?1hovdeth2?4wav?$AA@ 20097144     m_hover.obj
 0002:00005158       ??_C@_0BD@NCIJGODE@hover?1hovdeth1?4wav?$AA@ 20097158     m_hover.obj
 0002:0000516c       ??_C@_0BD@KDNKHNME@hover?1hovpain2?4wav?$AA@ 2009716c     m_hover.obj
 0002:00005180       ??_C@_0BD@CFEOAPGK@hover?1hovpain1?4wav?$AA@ 20097180     m_hover.obj
 0002:00005194       ??_C@_0BG@LDBNLCEM@infantry?1infidle1?4wav?$AA@ 20097194     m_infantry.obj
 0002:000051ac       ??_C@_0BG@OELMOLPK@infantry?1infsrch1?4wav?$AA@ 200971ac     m_infantry.obj
 0002:000051c4       ??_C@_0BG@PPPPAGCI@infantry?1infsght1?4wav?$AA@ 200971c4     m_infantry.obj
 0002:000051dc       ??_C@_0BE@KKDGOHOA@infantry?1melee2?4wav?$AA@ 200971dc     m_infantry.obj
 0002:000051f0       ??_C@_0BG@DIBKLJG@infantry?1infatck2?4wav?$AA@ 200971f0     m_infantry.obj
 0002:00005208       ??_C@_0BG@MINNHIDD@infantry?1infatck3?4wav?$AA@ 20097208     m_infantry.obj
 0002:00005220       ??_C@_0BG@IFBFNJDI@infantry?1infatck1?4wav?$AA@ 20097220     m_infantry.obj
 0002:00005238       ??_C@_0BG@BJIFBEEP@infantry?1infdeth2?4wav?$AA@ 20097238     m_infantry.obj
 0002:00005250       ??_C@_0BG@JPBBGGOB@infantry?1infdeth1?4wav?$AA@ 20097250     m_infantry.obj
 0002:00005268       ??_C@_0BG@OOECHFBB@infantry?1infpain2?4wav?$AA@ 20097268     m_infantry.obj
 0002:00005280       ??_C@_0BG@GINGAHLP@infantry?1infpain1?4wav?$AA@ 20097280     m_infantry.obj
 0002:00005298       ??_C@_0BK@HGBBBKCP@player?1male?1pain?$CFi_?$CFi?4wav?$AA@ 20097298     m_insane.obj
 0002:000052b4       ??_C@_0BI@GFCJGJNH@player?1male?1death?$CFi?4wav?$AA@ 200972b4     m_insane.obj
 0002:000052cc       ??_C@_0CA@LGMCNMFI@models?1monsters?1insane?1tris?4md2?$AA@ 200972cc     m_insane.obj
 0002:000052ec       ??_C@_0BE@FDAJHDKF@insane?1insane10?4wav?$AA@ 200972ec     m_insane.obj
 0002:00005300       ??_C@_0BD@JLCIPBAJ@insane?1insane9?4wav?$AA@ 20097300     m_insane.obj
 0002:00005314       ??_C@_0BD@FAHECCKM@insane?1insane8?4wav?$AA@ 20097314     m_insane.obj
 0002:00005328       ??_C@_0BD@GKHOEDNM@insane?1insane6?4wav?$AA@ 20097328     m_insane.obj
 0002:0000533c       ??_C@_0BD@CHLGOCNH@insane?1insane4?4wav?$AA@ 2009733c     m_insane.obj
 0002:00005350       ??_C@_0BD@DKLDNCGP@insane?1insane3?4wav?$AA@ 20097350     m_insane.obj
 0002:00005364       ??_C@_0BD@PBOPABMK@insane?1insane2?4wav?$AA@ 20097364     m_insane.obj
 0002:00005378       ??_C@_0BD@HHHLHDGE@insane?1insane1?4wav?$AA@ 20097378     m_insane.obj
 0002:0000538c       ??_C@_0BD@KBCCJAHJ@insane?1insane7?4wav?$AA@ 2009738c     m_insane.obj
 0002:000053a0       ??_C@_0BD@OMOKDBHC@insane?1insane5?4wav?$AA@ 200973a0     m_insane.obj
 0002:000053b4       ??_C@_0BE@JIFFKAAA@insane?1insane11?4wav?$AA@ 200973b4     m_insane.obj
 0002:000053c8       __real@44800000            200973c8     m_medic.obj
 0002:000053d0       __real@3fee666666666666    200973d0     m_medic.obj
 0002:000053d8       ??_C@_0BP@HPPIGEDC@models?1monsters?1medic?1tris?4md2?$AA@ 200973d8     m_medic.obj
 0002:000053f8       ??_C@_0BD@HMNGCBHF@medic?1medatck1?4wav?$AA@ 200973f8     m_medic.obj
 0002:0000540c       ??_C@_0BD@OHEHGDGD@medic?1medatck5?4wav?$AA@ 2009740c     m_medic.obj
 0002:00005420       ??_C@_0BD@CMBLLAMG@medic?1medatck4?4wav?$AA@ 20097420     m_medic.obj
 0002:00005434       ??_C@_0BD@DBBOIAHO@medic?1medatck3?4wav?$AA@ 20097434     m_medic.obj
 0002:00005448       ??_C@_0BD@PKECFDNL@medic?1medatck2?4wav?$AA@ 20097448     m_medic.obj
 0002:0000545c       ??_C@_0BD@BNHPBDLH@medic?1medsrch1?4wav?$AA@ 2009745c     m_medic.obj
 0002:00005470       ??_C@_0BD@GDMPOGF@medic?1medsght1?4wav?$AA@ 20097470     m_medic.obj
 0002:00005484       ??_C@_0BD@GGNCJOKM@medic?1meddeth1?4wav?$AA@ 20097484     m_medic.obj
 0002:00005498       ??_C@_0BD@BHIBINFM@medic?1medpain2?4wav?$AA@ 20097498     m_medic.obj
 0002:000054ac       ??_C@_0BD@JBBFPPPC@medic?1medpain1?4wav?$AA@ 200974ac     m_medic.obj
 0002:000054c0       ??_C@_0P@JKJEDDGH@medic?1idle?4wav?$AA@ 200974c0     m_medic.obj
 0002:000054d0       __real@4032000000000000    200974d0     m_move.obj
 0002:000054d8       __real@4042000000000000    200974d8     m_move.obj
 0002:000054e0       __real@41900000            200974e0     m_move.obj
 0002:000054e8       __real@c020000000000000    200974e8     m_move.obj
 0002:000054f0       __real@4044000000000000    200974f0     m_move.obj
 0002:000054f8       __real@439d8000            200974f8     m_move.obj
 0002:00005500       __real@4056800000000000    20097500     m_move.obj
 0002:00005508       __real@43340000            20097508     m_move.obj
 0002:00005510       __real@c024000000000000    20097510     m_move.obj
 0002:00005518       __real@4079000000000000    20097518     m_mutant.obj
 0002:00005520       __real@437a0000            20097520     m_mutant.obj
 0002:00005524       __real@44160000            20097524     m_mutant.obj
 0002:00005528       ??_C@_0CA@PCNABIKF@models?1monsters?1mutant?1tris?4md2?$AA@ 20097528     m_mutant.obj
 0002:00005548       ??_C@_0BB@FNKEABMG@mutant?1thud1?4wav?$AA@ 20097548     m_mutant.obj
 0002:0000555c       ??_C@_0BB@FHGOIDCH@mutant?1step3?4wav?$AA@ 2009755c     m_mutant.obj
 0002:00005570       ??_C@_0BB@JMDCFAIC@mutant?1step2?4wav?$AA@ 20097570     m_mutant.obj
 0002:00005584       ??_C@_0BB@BKKGCCCM@mutant?1step1?4wav?$AA@ 20097584     m_mutant.obj
 0002:00005598       ??_C@_0BE@PODPNGAI@mutant?1mutsrch1?4wav?$AA@ 20097598     m_mutant.obj
 0002:000055ac       ??_C@_0BE@OFHMDLNK@mutant?1mutsght1?4wav?$AA@ 200975ac     m_mutant.obj
 0002:000055c0       ??_C@_0BE@PEMBEIOD@mutant?1mutpain2?4wav?$AA@ 200975c0     m_mutant.obj
 0002:000055d4       ??_C@_0BE@HCFFDKEN@mutant?1mutpain1?4wav?$AA@ 200975d4     m_mutant.obj
 0002:000055e8       ??_C@_0BE@KJJOIPLO@mutant?1mutidle1?4wav?$AA@ 200975e8     m_mutant.obj
 0002:000055fc       ??_C@_0BE@IFJCFLBD@mutant?1mutdeth1?4wav?$AA@ 200975fc     m_mutant.obj
 0002:00005610       ??_C@_0BE@NCFOEFMB@mutant?1mutatck3?4wav?$AA@ 20097610     m_mutant.obj
 0002:00005624       ??_C@_0BE@BJACJGGE@mutant?1mutatck2?4wav?$AA@ 20097624     m_mutant.obj
 0002:00005638       ??_C@_0BE@JPJGOEMK@mutant?1mutatck1?4wav?$AA@ 20097638     m_mutant.obj
 0002:0000564c       ??_C@_0CC@GMBCOBNI@models?1monsters?1parasite?1tris?4md@ 2009764c     m_parasite.obj
 0002:00005670       ??_C@_0BG@NENGFOPA@parasite?1parsrch1?4wav?$AA@ 20097670     m_parasite.obj
 0002:00005688       ??_C@_0BG@FODHFOI@parasite?1paridle2?4wav?$AA@ 20097688     m_parasite.obj
 0002:000056a0       ??_C@_0BG@IDHHAHEG@parasite?1paridle1?4wav?$AA@ 200976a0     m_parasite.obj
 0002:000056b8       ??_C@_0BG@MPJFLDCC@parasite?1parsght1?4wav?$AA@ 200976b8     m_parasite.obj
 0002:000056d0       ??_C@_0BG@OFLCPNIB@parasite?1paratck4?4wav?$AA@ 200976d0     m_parasite.obj
 0002:000056e8       ??_C@_0BG@PILHMNDJ@parasite?1paratck3?4wav?$AA@ 200976e8     m_parasite.obj
 0002:00005700       ??_C@_0BG@DDOLBOJM@parasite?1paratck2?4wav?$AA@ 20097700     m_parasite.obj
 0002:00005718       ??_C@_0BG@LFHPGMDC@parasite?1paratck1?4wav?$AA@ 20097718     m_parasite.obj
 0002:00005730       ??_C@_0BG@KPHLNDOL@parasite?1pardeth1?4wav?$AA@ 20097730     m_parasite.obj
 0002:00005748       ??_C@_0BG@NOCIMABL@parasite?1parpain2?4wav?$AA@ 20097748     m_parasite.obj
 0002:00005760       ??_C@_0BG@FILMLCLF@parasite?1parpain1?4wav?$AA@ 20097760     m_parasite.obj
 0002:00005778       ??_C@_0BF@OIJLMGMD@soldier?1solsrch1?4wav?$AA@ 20097778     m_soldier.obj
 0002:00005790       ??_C@_0BF@PDNICLBB@soldier?1solsght1?4wav?$AA@ 20097790     m_soldier.obj
 0002:000057a8       ??_C@_0BF@LPDKJPHF@soldier?1solidle1?4wav?$AA@ 200977a8     m_soldier.obj
 0002:000057c0       ??_C@_0CB@DDJIPCOK@models?1monsters?1soldier?1tris?4md2@ 200977c0     m_soldier.obj
 0002:000057e4       ??_C@_0BF@PKGIGKP@soldier?1solatck2?4wav?$AA@ 200977e4     m_soldier.obj
 0002:000057fc       ??_C@_0BF@BFKCDJHG@soldier?1soldeth2?4wav?$AA@ 200977fc     m_soldier.obj
 0002:00005814       ??_C@_0BF@OCGFFICI@soldier?1solpain2?4wav?$AA@ 20097814     m_soldier.obj
 0002:0000582c       ??_C@_0BF@IJDCPEAB@soldier?1solatck1?4wav?$AA@ 2009782c     m_soldier.obj
 0002:00005844       ??_C@_0BF@JDDGELNI@soldier?1soldeth1?4wav?$AA@ 20097844     m_soldier.obj
 0002:0000585c       ??_C@_0BF@GEPBCKIG@soldier?1solpain1?4wav?$AA@ 2009785c     m_soldier.obj
 0002:00005874       ??_C@_0BF@MEPKFFAK@soldier?1solatck3?4wav?$AA@ 20097874     m_soldier.obj
 0002:0000588c       ??_C@_0BF@NOPOOKND@soldier?1soldeth3?4wav?$AA@ 2009788c     m_soldier.obj
 0002:000058a4       ??_C@_0BF@CJDJILIN@soldier?1solpain3?4wav?$AA@ 200978a4     m_soldier.obj
 0002:000058c0       __real@4064000000000000    200978c0     m_supertank.obj
 0002:000058c8       __real@4048000000000000    200978c8     m_supertank.obj
 0002:000058d0       __real@4038000000000000    200978d0     m_supertank.obj
 0002:000058d8       __real@42e00000            200978d8     m_supertank.obj
 0002:000058dc       ??_C@_0BP@PGMOLMMO@models?1monsters?1boss1?1tris?4md2?$AA@ 200978dc     m_supertank.obj
 0002:000058fc       ??_C@_0BG@GIHDAGDI@bosstank?1btkengn1?4wav?$AA@ 200978fc     m_supertank.obj
 0002:00005914       ??_C@_0BG@CHKMBPHL@bosstank?1btkunqv2?4wav?$AA@ 20097914     m_supertank.obj
 0002:0000592c       ??_C@_0BG@KBDIGNNF@bosstank?1btkunqv1?4wav?$AA@ 2009792c     m_supertank.obj
 0002:00005944       ??_C@_0BG@JEAAPACJ@bosstank?1btkdeth1?4wav?$AA@ 20097944     m_supertank.obj
 0002:0000595c       ??_C@_0BG@COAPDAHM@bosstank?1btkpain3?4wav?$AA@ 2009795c     m_supertank.obj
 0002:00005974       ??_C@_0BG@OFFDODNJ@bosstank?1btkpain2?4wav?$AA@ 20097974     m_supertank.obj
 0002:0000598c       ??_C@_0BG@GDMHJBHH@bosstank?1btkpain1?4wav?$AA@ 2009798c     m_supertank.obj
 0002:000059a8       __real@406f400000000000    200979a8     m_tank.obj
 0002:000059b0       ??_C@_0BC@GHNECCC@tank?1tnkatck3?4wav?$AA@ 200979b0     m_tank.obj
 0002:000059c4       ??_C@_0BC@LJACBOBJ@tank?1tnkatk2e?4wav?$AA@ 200979c4     m_tank.obj
 0002:000059d8       ??_C@_0BC@HCFOMNLM@tank?1tnkatk2d?4wav?$AA@ 200979d8     m_tank.obj
 0002:000059ec       ??_C@_0BC@GPFLPNAE@tank?1tnkatk2c?4wav?$AA@ 200979ec     m_tank.obj
 0002:00005a00       ??_C@_0BC@KEAHCOKB@tank?1tnkatk2b?4wav?$AA@ 20097a00     m_tank.obj
 0002:00005a14       ??_C@_0BC@CCJDFMAP@tank?1tnkatk2a?4wav?$AA@ 20097a14     m_tank.obj
 0002:00005a28       ??_C@_0BC@ELLFODCJ@tank?1tnkatck1?4wav?$AA@ 20097a28     m_tank.obj
 0002:00005a3c       ??_C@_0BA@DJFJDENO@tank?1sight1?4wav?$AA@ 20097a3c     m_tank.obj
 0002:00005a4c       ??_C@_0BC@NACEKBDP@tank?1tnkatck5?4wav?$AA@ 20097a4c     m_tank.obj
 0002:00005a60       ??_C@_0BC@BLHIHCJK@tank?1tnkatck4?4wav?$AA@ 20097a60     m_tank.obj
 0002:00005a74       ??_C@_0O@IJNDDHFE@tank?1step?4wav?$AA@ 20097a74     m_tank.obj
 0002:00005a84       ??_C@_0P@JLDPIHJN@tank?1death?4wav?$AA@ 20097a84     m_tank.obj
 0002:00005a94       ??_C@_0BC@HNLNIIFN@tank?1tnkidle1?4wav?$AA@ 20097a94     m_tank.obj
 0002:00005aa8       ??_C@_0BC@NHCFCOFO@tank?1tnkdeth2?4wav?$AA@ 20097aa8     m_tank.obj
 0002:00005abc       ??_C@_0BC@CAOCEPAA@tank?1tnkpain2?4wav?$AA@ 20097abc     m_tank.obj
 0002:00005ad0       ??_C@_08MBFLHJIB@security?$AA@ 20097ad0     p_client.obj
 0002:00005adc       __real@439e0000            20097adc     p_client.obj
 0002:00005ae0       __real@437c0000            20097ae0     p_client.obj
 0002:00005ae4       ??_C@_05LAIIMDGA@jail3?$AA@ 20097ae4     p_client.obj
 0002:00005aec       __real@c3240000            20097aec     p_client.obj
 0002:00005af0       __real@42f80000            20097af0     p_client.obj
 0002:00005af4       ??_C@_06LGJEBFOF@strike?$AA@ 20097af4     p_client.obj
 0002:00005afc       ??_C@_06IKFGJOIE@power2?$AA@ 20097afc     p_client.obj
 0002:00005b04       ??_C@_05OLNILLAB@space?$AA@ 20097b04     p_client.obj
 0002:00005b0c       ??_C@_06HFOGKLKK@biggun?$AA@ 20097b0c     p_client.obj
 0002:00005b14       ??_C@_05PJADMOFI@boss1?$AA@ 20097b14     p_client.obj
 0002:00005b1c       ??_C@_03LBJFMAGK@lab?$AA@  20097b1c     p_client.obj
 0002:00005b20       ??_C@_05EALKCNOI@mine4?$AA@ 20097b20     p_client.obj
 0002:00005b28       ??_C@_05BGOAIKGO@mine2?$AA@ 20097b28     p_client.obj
 0002:00005b30       ??_C@_05DNMNNJKN@mine1?$AA@ 20097b30     p_client.obj
 0002:00005b38       ??_C@_05PPMJFFKH@jail4?$AA@ 20097b38     p_client.obj
 0002:00005b40       ??_C@_05KJJDPCCB@jail2?$AA@ 20097b40     p_client.obj
 0002:00005b48       __real@4078000000000000    20097b48     p_client.obj
 0002:00005b50       ??_C@_06LFOIHHME@gender?$AA@ 20097b50     p_client.obj
 0002:00005b58       ??_C@_09PIPBOPDG@?$CFs?5died?4?6?$AA@ 20097b58     p_client.obj
 0002:00005b64       ??_C@_0M@NLIGKFEM@?$CFs?5?$CFs?5?$CFs?$CFs?6?$AA@ 20097b64     p_client.obj
 0002:00005b70       ??_C@_0BC@CJMFGHKA@?8s?5personal?5space?$AA@ 20097b70     p_client.obj
 0002:00005b84       ??_C@_0BA@CBNEPGEH@tried?5to?5invade?$AA@ 20097b84     p_client.obj
 0002:00005b94       ??_C@_07HFHCECHG@?8s?5pain?$AA@ 20097b94     p_client.obj
 0002:00005b9c       ??_C@_05IIGFFFGG@feels?$AA@ 20097b9c     p_client.obj
 0002:00005ba4       ??_C@_0L@OJBNBIKI@didn?8t?5see?$AA@ 20097ba4     p_client.obj
 0002:00005bb0       ??_C@_0P@GEBBPEIP@?8s?5handgrenade?$AA@ 20097bb0     p_client.obj
 0002:00005bc0       ??_C@_06IBDBCMGJ@caught?$AA@ 20097bc0     p_client.obj
 0002:00005bc8       ??_C@_0BD@OONGHABG@couldn?8t?5hide?5from?$AA@ 20097bc8     p_client.obj
 0002:00005bdc       ??_C@_0N@LHGMLJPL@?8s?5BFG?5blast?$AA@ 20097bdc     p_client.obj
 0002:00005bec       ??_C@_0BF@NINEGKMK@was?5disintegrated?5by?$AA@ 20097bec     p_client.obj
 0002:00005c04       ??_C@_06NOMMMPPO@?8s?5BFG?$AA@ 20097c04     p_client.obj
 0002:00005c0c       ??_C@_0BL@PHCIHJDF@saw?5the?5pretty?5lights?5from?$AA@ 20097c0c     p_client.obj
 0002:00005c28       ??_C@_0O@LMMKCAFN@was?5railed?5by?$AA@ 20097c28     p_client.obj
 0002:00005c38       ??_C@_0BA@MNCHNJKO@?8s?5hyperblaster?$AA@ 20097c38     p_client.obj
 0002:00005c48       ??_C@_0O@CLFCHHPJ@was?5melted?5by?$AA@ 20097c48     p_client.obj
 0002:00005c58       ??_C@_0O@JENMCGOI@almost?5dodged?$AA@ 20097c58     p_client.obj
 0002:00005c68       ??_C@_09DEADKGEN@?8s?5rocket?$AA@ 20097c68     p_client.obj
 0002:00005c74       ??_C@_03BGFDOPOL@ate?$AA@  20097c74     p_client.obj
 0002:00005c78       ??_C@_0M@BHBOCILJ@?8s?5shrapnel?$AA@ 20097c78     p_client.obj
 0002:00005c84       ??_C@_0BA@LIKKPCIN@was?5shredded?5by?$AA@ 20097c84     p_client.obj
 0002:00005c94       ??_C@_0L@KPHMDLGC@?8s?5grenade?$AA@ 20097c94     p_client.obj
 0002:00005ca0       ??_C@_0O@LDHHPHEI@was?5popped?5by?$AA@ 20097ca0     p_client.obj
 0002:00005cb0       ??_C@_0M@INHDMJGN@?8s?5chaingun?$AA@ 20097cb0     p_client.obj
 0002:00005cbc       ??_C@_0BD@FECNGOAP@was?5cut?5in?5half?5by?$AA@ 20097cbc     p_client.obj
 0002:00005cd0       ??_C@_0BF@PGKPLAEB@was?5machinegunned?5by?$AA@ 20097cd0     p_client.obj
 0002:00005ce8       ??_C@_0BB@GCNIAAFO@?8s?5super?5shotgun?$AA@ 20097ce8     p_client.obj
 0002:00005cfc       ??_C@_0BC@BEAIEDOA@was?5blown?5away?5by?$AA@ 20097cfc     p_client.obj
 0002:00005d10       ??_C@_0BD@MKJCHKPL@was?5gunned?5down?5by?$AA@ 20097d10     p_client.obj
 0002:00005d24       ??_C@_0P@CIDIINED@was?5blasted?5by?$AA@ 20097d24     p_client.obj
 0002:00005d34       ??_C@_07EJPAKPEC@?$CFs?5?$CFs?4?6?$AA@ 20097d34     p_client.obj
 0002:00005d3c       ??_C@_0P@DNKIPMGE@killed?5himself?$AA@ 20097d3c     p_client.obj
 0002:00005d4c       ??_C@_0P@IIICGFO@killed?5herself?$AA@ 20097d4c     p_client.obj
 0002:00005d5c       ??_C@_0O@JCBLJPFM@killed?5itself?$AA@ 20097d5c     p_client.obj
 0002:00005d6c       ??_C@_0BP@DBEBPALD@should?5have?5used?5a?5smaller?5gun?$AA@ 20097d6c     p_client.obj
 0002:00005d8c       ??_C@_0BA@FIENEKJD@blew?5himself?5up?$AA@ 20097d8c     p_client.obj
 0002:00005d9c       ??_C@_0BA@DBAICHLN@blew?5herself?5up?$AA@ 20097d9c     p_client.obj
 0002:00005dac       ??_C@_0P@GOLBOBGC@blew?5itself?5up?$AA@ 20097dac     p_client.obj
 0002:00005dbc       ??_C@_0BL@BJDCDLDL@tripped?5on?5his?5own?5grenade?$AA@ 20097dbc     p_client.obj
 0002:00005dd8       ??_C@_0BL@MBMIHDKJ@tripped?5on?5her?5own?5grenade?$AA@ 20097dd8     p_client.obj
 0002:00005df4       ??_C@_0BL@PDGEHOJ@tripped?5on?5its?5own?5grenade?$AA@ 20097df4     p_client.obj
 0002:00005e10       ??_C@_0BN@CKEOLHJO@tried?5to?5put?5the?5pin?5back?5in?$AA@ 20097e10     p_client.obj
 0002:00005e30       ??_C@_0BH@GICEGFFN@was?5in?5the?5wrong?5place?$AA@ 20097e30     p_client.obj
 0002:00005e48       ??_C@_0M@GOENCOLM@got?5blasted?$AA@ 20097e48     p_client.obj
 0002:00005e54       ??_C@_0O@LCLMFGAB@saw?5the?5light?$AA@ 20097e54     p_client.obj
 0002:00005e64       ??_C@_0BA@PIHDLFPF@found?5a?5way?5out?$AA@ 20097e64     p_client.obj
 0002:00005e74       ??_C@_07IKPJHPIE@blew?5up?$AA@ 20097e74     p_client.obj
 0002:00005e7c       ??_C@_0BP@NAHBLPBA@does?5a?5back?5flip?5into?5the?5lava?$AA@ 20097e7c     p_client.obj
 0002:00005e9c       ??_C@_06CHNJJJKC@melted?$AA@ 20097e9c     p_client.obj
 0002:00005ea4       ??_C@_0BB@IPCHCEIC@sank?5like?5a?5rock?$AA@ 20097ea4     p_client.obj
 0002:00005eb8       ??_C@_0N@JLHEPJHP@was?5squished?$AA@ 20097eb8     p_client.obj
 0002:00005ec8       ??_C@_08PAHGPPBJ@cratered?$AA@ 20097ec8     p_client.obj
 0002:00005ed4       ??_C@_08MOEOKJOB@suicides?$AA@ 20097ed4     p_client.obj
 0002:00005ee0       __real@41b40000            20097ee0     p_client.obj
 0002:00005ee8       __real@404ca5dc1a63c1f8    20097ee8     p_client.obj
 0002:00005ef0       ??_C@_0N@OJAOIBLE@?$CKdeath?$CFi?4wav?$AA@ 20097ef0     p_client.obj
 0002:00005f00       __real@4b18967f            20097f00     p_client.obj
 0002:00005f04       __real@47c34f80            20097f04     p_client.obj
 0002:00005f08       ??_C@_0BO@NMKBOMOM@Couldn?8t?5find?5spawn?5point?5?$CFs?6?$AA@ 20097f08     p_client.obj
 0002:00005f28       ??_C@_07ILHJIGAO@bodyque?$AA@ 20097f28     p_client.obj
 0002:00005f30       ??_C@_0P@NKHNOOID@menu_loadgame?6?$AA@ 20097f30     p_client.obj
 0002:00005f40       ??_C@_0BE@PPENBOHG@?$CFs?5joined?5the?5game?6?$AA@ 20097f40     p_client.obj
 0002:00005f54       ??_C@_0BP@PHKIEJAA@?$CFs?5has?5moved?5to?5the?5sidelines?6?$AA@ 20097f54     p_client.obj
 0002:00005f74       ??_C@_0N@GEEBKNDN@spectator?51?6?$AA@ 20097f74     p_client.obj
 0002:00005f84       ??_C@_0BF@PJKINCGJ@Password?5incorrect?4?6?$AA@ 20097f84     p_client.obj
 0002:00005f9c       ??_C@_0CA@BCKBDJJF@Server?5spectator?5limit?5is?5full?4?$AA@ 20097f9c     p_client.obj
 0002:00005fbc       ??_C@_0N@GFIDMHAK@spectator?50?6?$AA@ 20097fbc     p_client.obj
 0002:00005fcc       ??_C@_0BP@INHPPDBI@Spectator?5password?5incorrect?4?6?$AA@ 20097fcc     p_client.obj
 0002:00005fec       ??_C@_09FNMDCDOI@spectator?$AA@ 20097fec     p_client.obj
 0002:00005ff8       __real@43200000            20097ff8     p_client.obj
 0002:00005ffc       ??_C@_03PKBINKFB@fov?$AA@  20097ffc     p_client.obj
 0002:00006000       ??_C@_06BALNJMNP@player?$AA@ 20098000     p_client.obj
 0002:00006008       ??_C@_0BF@JPEHACCO@?$CFs?5entered?5the?5game?6?$AA@ 20098008     p_client.obj
 0002:00006020       ??_C@_04FANNOMIB@hand?$AA@ 20098020     p_client.obj
 0002:00006028       ??_C@_05BMGBEOOC@?$CFs?2?$CFs?$AA@ 20098028     p_client.obj
 0002:00006030       ??_C@_04MEMAJGDJ@name?$AA@ 20098030     p_client.obj
 0002:00006038       ??_C@_0BO@FGOBLJCL@?2name?2badinfo?2skin?2male?1grunt?$AA@ 20098038     p_client.obj
 0002:00006058       ??_C@_0O@CCODMILK@?$CFs?5connected?6?$AA@ 20098058     p_client.obj
 0002:00006068       ??_C@_0CA@NBCLJLOF@Password?5required?5or?5incorrect?4?$AA@ 20098068     p_client.obj
 0002:00006088       ??_C@_0CK@BGGEMNKC@Spectator?5password?5required?5or?5i@ 20098088     p_client.obj
 0002:000060b4       ??_C@_06CHJIBEDB@rejmsg?$AA@ 200980b4     p_client.obj
 0002:000060bc       ??_C@_07IAHJGILA@Banned?4?$AA@ 200980bc     p_client.obj
 0002:000060c4       ??_C@_02GIIHKPLE@ip?$AA@   200980c4     p_client.obj
 0002:000060c8       ??_C@_0N@GGGDBMDO@disconnected?$AA@ 200980c8     p_client.obj
 0002:000060d8       ??_C@_0BB@IHNKPJEE@?$CFs?5disconnected?6?$AA@ 200980d8     p_client.obj
 0002:000060ec       ??_C@_0O@HDBCCKGH@sv?5?$CF3i?3?$CFi?5?$CFi?6?$AA@ 200980ec     p_client.obj
 0002:00006100       __real@3f76800000000000    20098100     p_client.obj
 0002:00006108       ??_C@_0BK@DNHJFCGJ@client?5?$CFi?5?$CFi?5?$CFi?5?$CFi?5?$CFi?5?$CFi?5?$AA@ 20098108     p_hud.obj
 0002:00006124       ??_C@_0BF@HFGDDDLD@xv?5?$CFi?5yv?5?$CFi?5picn?5?$CFs?5?$AA@ 20098124     p_hud.obj
 0002:0000613c       ??_C@_04BGPNFHFP@tag2?$AA@ 2009813c     p_hud.obj
 0002:00006144       ??_C@_04DNNAAEJM@tag1?$AA@ 20098144     p_hud.obj
 0002:00006150       ??_C@_0OE@DLDMEOHM@xv?532?5yv?58?5picn?5help?5xv?5202?5yv?51@ 20098150     p_hud.obj
 0002:00006234       ??_C@_05PGFAHLBE@hard?$CL?$AA@ 20098234     p_hud.obj
 0002:0000623c       ??_C@_04EFOBLGJF@hard?$AA@ 2009823c     p_hud.obj
 0002:00006244       ??_C@_06HIDOEFBI@medium?$AA@ 20098244     p_hud.obj
 0002:0000624c       ??_C@_04EDNPHEAP@easy?$AA@ 2009824c     p_hud.obj
 0002:00006258       __real@4056c00000000000    20098258     p_hud.obj
 0002:00006260       ??_C@_0N@MPEIHAJI@player_trail?$AA@ 20098260     p_trail.obj
 0002:00006270       __real@3f19999a            20098270     p_view.obj
 0002:00006278       __real@3f847ae147ae147b    20098278     p_view.obj
 0002:00006280       ??_C@_0P@JGBAMECG@?$CKpain?$CFi_?$CFi?4wav?$AA@ 20098280     p_view.obj
 0002:00006290       __real@c1b00000            20098290     p_view.obj
 0002:00006298       __real@c036000000000000    20098298     p_view.obj
 0002:000062a0       __real@41600000            200982a0     p_view.obj
 0002:000062a8       __real@402c000000000000    200982a8     p_view.obj
 0002:000062b0       __real@c1600000            200982b0     p_view.obj
 0002:000062b8       __real@c02c000000000000    200982b8     p_view.obj
 0002:000062c0       __real@c2340000            200982c0     p_view.obj
 0002:000062c8       __real@c046800000000000    200982c8     p_view.obj
 0002:000062d0       __real@42340000            200982d0     p_view.obj
 0002:000062d8       __real@3faeb851eb851eb8    200982d8     p_view.obj
 0002:000062e0       __real@3f59999a            200982e0     p_view.obj
 0002:000062e4       __real@3d23d70a            200982e4     p_view.obj
 0002:000062e8       ??_C@_0BD@IGAOBJGB@items?1protect2?4wav?$AA@ 200982e8     p_view.obj
 0002:000062fc       __real@3da3d70a            200982fc     p_view.obj
 0002:00006300       ??_C@_0BC@EIMMHIFK@items?1damage2?4wav?$AA@ 20098300     p_view.obj
 0002:00006314       __real@3d4ccccd            20098314     p_view.obj
 0002:00006318       __real@3e99999a            20098318     p_view.obj
 0002:00006320       __real@404b800000000000    20098320     p_view.obj
 0002:00006328       __real@3f1a36e2eb1c432d    20098328     p_view.obj
 0002:00006330       ??_C@_0BB@BGPDGCEE@player?1burn2?4wav?$AA@ 20098330     p_view.obj
 0002:00006344       ??_C@_0BB@JAGHBAOK@player?1burn1?4wav?$AA@ 20098344     p_view.obj
 0002:00006358       ??_C@_0BC@HDDNNFAG@player?1drown1?4wav?$AA@ 20098358     p_view.obj
 0002:00006370       __real@4026000000000000    20098370     p_view.obj
 0002:00006378       ??_C@_0BD@KKBBONCO@player?1lava_in?4wav?$AA@ 20098378     p_view.obj
 0002:00006390       __real@406c200000000000    20098390     p_view.obj
 0002:00006398       ??_C@_0BE@KOOEJAIL@weapons?1bfg_hum?4wav?$AA@ 20098398     p_view.obj
 0002:000063ac       __real@3d800000            200983ac     p_view.obj
 0002:000063b0       __real@3e000000            200983b0     p_view.obj
 0002:000063b8       __real@406a400000000000    200983b8     p_view.obj
 0002:000063c0       __real@c076800000000000    200983c0     p_view.obj
 0002:000063c8       ??_C@_07PKBOGMMP@shotgun?$AA@ 200983c8     p_weapon.obj
 0002:000063d0       ??_C@_0O@KNGPPOA@super?5shotgun?$AA@ 200983d0     p_weapon.obj
 0002:000063e0       ??_C@_06DOEJMPPH@shells?$AA@ 200983e0     p_weapon.obj
 0002:000063e8       ??_C@_0L@CFEKEAAE@machinegun?$AA@ 200983e8     p_weapon.obj
 0002:000063f4       ??_C@_08FEJLBOPJ@chaingun?$AA@ 200983f4     p_weapon.obj
 0002:00006400       ??_C@_07MOKFMADJ@bullets?$AA@ 20098400     p_weapon.obj
 0002:00006408       ??_C@_0N@BOGLJPHM@hyperblaster?$AA@ 20098408     p_weapon.obj
 0002:00006418       ??_C@_07CFOFBGNM@railgun?$AA@ 20098418     p_weapon.obj
 0002:00006420       ??_C@_05IKCCBMEB@slugs?$AA@ 20098420     p_weapon.obj
 0002:00006428       ??_C@_0BH@PPGJBKNP@Not?5enough?5?$CFs?5for?5?$CFs?4?6?$AA@ 20098428     p_weapon.obj
 0002:00006440       ??_C@_0P@CMOCNGJL@No?5?$CFs?5for?5?$CFs?4?6?$AA@ 20098440     p_weapon.obj
 0002:00006450       ??_C@_0BC@IDJAKLPP@items?1damage3?4wav?$AA@ 20098450     p_weapon.obj
 0002:00006468       __real@4060aaaaaaaaaaab    20098468     p_weapon.obj
 0002:00006470       ??_C@_0BF@EMDHCPPK@weapons?1hgrena1b?4wav?$AA@ 20098470     p_weapon.obj
 0002:00006488       ??_C@_0BF@BMEALNJG@weapons?1hyprbd1a?4wav?$AA@ 20098488     p_weapon.obj
 0002:000064a0       __real@c010000000000000    200984a0     p_weapon.obj
 0002:000064a8       ??_C@_0BF@MPKFKGCD@weapons?1hyprbl1a?4wav?$AA@ 200984a8     p_weapon.obj
 0002:000064c0       __real@bff8000000000000    200984c0     p_weapon.obj
 0002:000064c8       __real@401c000000000000    200984c8     p_weapon.obj
 0002:000064d0       ??_C@_0BF@GEOCOOGG@weapons?1chngnl1a?4wav?$AA@ 200984d0     p_weapon.obj
 0002:000064e8       ??_C@_0BF@LHAHPFND@weapons?1chngnd1a?4wav?$AA@ 200984e8     p_weapon.obj
 0002:00006500       ??_C@_0BF@HBGMEGG@weapons?1chngnu1a?4wav?$AA@ 20098500     p_weapon.obj
 0002:00006518       __real@40e00000            20098518     p_weapon.obj
 0002:0000651c       __real@c0400000            2009851c     p_weapon.obj
 0002:00006520       __real@c2200000            20098520     p_weapon.obj
 0002:00006528       __real@4066c16c16c16c17    20098528     q_shared.obj
 0002:00006530       __real@c7c34f80            20098530     q_shared.obj
 0002:00006534       ??_C@_0CD@GIPJKOOD@Com_sprintf?3?5overflow?5of?5?$CFi?5in?5?$CF@ 20098534     q_shared.obj
 0002:00006558       ??_C@_01KICIPPFI@?2?$AA@   20098558     q_shared.obj
 0002:0000655c       ??_C@_01ICJEACDI@?$DL?$AA@ 2009855c     q_shared.obj
 0002:00006560       ??_C@_01BJJEKLCA@?$CC?$AA@ 20098560     q_shared.obj
 0002:00006564       ??_C@_0BN@CAOBGKLE@Info?5string?5length?5exceeded?6?$AA@ 20098564     q_shared.obj
 0002:00006584       ??_C@_06NELKLDPM@?2?$CFs?2?$CFs?$AA@ 20098584     q_shared.obj
 0002:0000658c       ??_C@_0CK@NHFLKFAE@Keys?5and?5values?5must?5be?5?$DM?564?5cha@ 2009858c     q_shared.obj
 0002:000065b8       ??_C@_0CD@MGFMEBLE@Can?8t?5use?5keys?5or?5values?5with?5a?5@ 200985b8     q_shared.obj
 0002:000065dc       ??_C@_0CL@JCFAGLFD@Can?8t?5use?5keys?5or?5values?5with?5a?5@ 200985dc     q_shared.obj
 0002:00006608       ??_C@_0CD@JIDDAEOO@Can?8t?5use?5keys?5or?5values?5with?5a?5@ 20098608     q_shared.obj
 0002:0000662c       __FPinit                   2009862c     LIBCMTD:_fpinit_.obj
 0002:00006630       ??_C@_1BK@HJGMBFLF@?$AAc?$AAo?$AAm?$AAp?$AA?5?$AA?$CB?$AA?$DN?$AA?5?$AAN?$AAU?$AAL?$AAL?$AA?$AA@ 20098630     LIBCMTD:qsort.obj
 0002:0000664c       ??_C@_1BE@NJBEBBME@?$AAw?$AAi?$AAd?$AAt?$AAh?$AA?5?$AA?$DO?$AA?5?$AA0?$AA?$AA@ 2009864c     LIBCMTD:qsort.obj
 0002:00006660       ??_C@_1M@INMHODIG@?$AAq?$AAs?$AAo?$AAr?$AAt?$AA?$AA@ 20098660     LIBCMTD:qsort.obj
 0002:00006670       ??_C@_1FO@NDBPJPLL@?$AAf?$AA?3?$AA?2?$AAd?$AAd?$AA?2?$AAv?$AAc?$AAt?$AAo?$AAo?$AAl?$AAs?$AA?2?$AAc?$AAr?$AAt?$AA_?$AAb?$AAl?$AAd?$AA?2?$AAs?$AAe?$AAl?$AAf?$AA_?$AAx?$AA8?$AA6?$AA?2?$AAc@ 20098670     LIBCMTD:qsort.obj
 0002:000066d0       ??_C@_1DC@HAGCIKOA@?$AAb?$AAa?$AAs?$AAe?$AA?5?$AA?$CB?$AA?$DN?$AA?5?$AAN?$AAU?$AAL?$AAL?$AA?5?$AA?$HM?$AA?$HM?$AA?5?$AAn?$AAu?$AAm?$AA?5?$AA?$DN?$AA?$DN?$AA?5?$AA0?$AA?$AA@ 200986d0     LIBCMTD:qsort.obj
 0002:00006704       ??_C@_1CC@OLIJCKA@?$AA?$CI?$AAs?$AAt?$AAr?$AAi?$AAn?$AAg?$AA?5?$AA?$CB?$AA?$DN?$AA?5?$AAN?$AAU?$AAL?$AAL?$AA?$CJ?$AA?$AA@ 20098704     LIBCMTD:sprintf.obj
 0002:00006728       ??_C@_1BA@KBJJGFFE@?$AAs?$AAp?$AAr?$AAi?$AAn?$AAt?$AAf?$AA?$AA@ 20098728     LIBCMTD:sprintf.obj
 0002:00006738       ??_C@_1GC@BMNPEKNN@?$AAf?$AA?3?$AA?2?$AAd?$AAd?$AA?2?$AAv?$AAc?$AAt?$AAo?$AAo?$AAl?$AAs?$AA?2?$AAc?$AAr?$AAt?$AA_?$AAb?$AAl?$AAd?$AA?2?$AAs?$AAe?$AAl?$AAf?$AA_?$AAx?$AA8?$AA6?$AA?2?$AAc@ 20098738     LIBCMTD:sprintf.obj
 0002:0000679c       ??_C@_1CC@MGIEJOME@?$AA?$CI?$AAf?$AAo?$AAr?$AAm?$AAa?$AAt?$AA?5?$AA?$CB?$AA?$DN?$AA?5?$AAN?$AAU?$AAL?$AAL?$AA?$CJ?$AA?$AA@ 2009879c     LIBCMTD:sprintf.obj
 0002:00006860       ??_C@_1BI@IGILPKD@?$AA_?$AAv?$AAs?$AAp?$AAr?$AAi?$AAn?$AAt?$AAf?$AA_?$AAl?$AA?$AA@ 20098860     LIBCMTD:vsprintf.obj
 0002:00006878       ??_C@_1GE@DPADKNCG@?$AAf?$AA?3?$AA?2?$AAd?$AAd?$AA?2?$AAv?$AAc?$AAt?$AAo?$AAo?$AAl?$AAs?$AA?2?$AAc?$AAr?$AAt?$AA_?$AAb?$AAl?$AAd?$AA?2?$AAs?$AAe?$AAl?$AAf?$AA_?$AAx?$AA8?$AA6?$AA?2?$AAc@ 20098878     LIBCMTD:vsprintf.obj
 0002:000068dc       ??_C@_1CE@HMKDJHB@?$AA_?$AAv?$AAs?$AAc?$AAp?$AAr?$AAi?$AAn?$AAt?$AAf?$AA_?$AAh?$AAe?$AAl?$AAp?$AAe?$AAr?$AA?$AA@ 200988dc     LIBCMTD:vsprintf.obj
 0002:00006900       ?ProcessDetach@NativeDll@<CrtImplementationDetails>@@0IB 20098900     LIBCMTD:dbgfree.obj
 0002:00006904       ?ProcessAttach@NativeDll@<CrtImplementationDetails>@@0IB 20098904     LIBCMTD:dbgfree.obj
 0002:00006908       ?ThreadAttach@NativeDll@<CrtImplementationDetails>@@0IB 20098908     LIBCMTD:dbgfree.obj
 0002:0000690c       ?ThreadDetach@NativeDll@<CrtImplementationDetails>@@0IB 2009890c     LIBCMTD:dbgfree.obj
 0002:00006910       ?ProcessVerifier@NativeDll@<CrtImplementationDetails>@@0IB 20098910     LIBCMTD:dbgfree.obj
 0002:00006914       ??_C@_1DC@CMKCHHFC@?$AA_?$AAg?$AAe?$AAt?$AA_?$AAt?$AAi?$AAm?$AAe?$AAz?$AAo?$AAn?$AAe?$AA?$CI?$AA?$CG?$AAt?$AAi?$AAm?$AAe?$AAz?$AAo?$AAn?$AAe?$AA?$CJ?$AA?$AA@ 20098914     LIBCMTD:loctim64.obj
 0002:00006948       ??_C@_1CO@IMMOMMCB@?$AA_?$AAg?$AAe?$AAt?$AA_?$AAd?$AAs?$AAt?$AAb?$AAi?$AAa?$AAs?$AA?$CI?$AA?$CG?$AAd?$AAs?$AAt?$AAb?$AAi?$AAa?$AAs?$AA?$CJ?$AA?$AA@ 20098948     LIBCMTD:loctim64.obj
 0002:00006978       ??_C@_1DC@MEHEMOPB@?$AA_?$AAg?$AAe?$AAt?$AA_?$AAd?$AAa?$AAy?$AAl?$AAi?$AAg?$AAh?$AAt?$AA?$CI?$AA?$CG?$AAd?$AAa?$AAy?$AAl?$AAi?$AAg?$AAh?$AAt?$AA?$CJ?$AA?$AA@ 20098978     LIBCMTD:loctim64.obj
 0002:000069ac       ??_C@_1CE@EHHPAMNN@?$AA?$CI?$AA?5?$AAp?$AAt?$AAi?$AAm?$AAe?$AA?5?$AA?$CB?$AA?$DN?$AA?5?$AAN?$AAU?$AAL?$AAL?$AA?5?$AA?$CJ?$AA?$AA@ 200989ac     LIBCMTD:loctim64.obj
 0002:000069d0       ??_C@_1BO@OIBEEOEM@?$AA_?$AAl?$AAo?$AAc?$AAa?$AAl?$AAt?$AAi?$AAm?$AAe?$AA6?$AA4?$AA_?$AAs?$AA?$AA@ 200989d0     LIBCMTD:loctim64.obj
 0002:000069f0       ??_C@_1GE@FPHBIHGB@?$AAf?$AA?3?$AA?2?$AAd?$AAd?$AA?2?$AAv?$AAc?$AAt?$AAo?$AAo?$AAl?$AAs?$AA?2?$AAc?$AAr?$AAt?$AA_?$AAb?$AAl?$AAd?$AA?2?$AAs?$AAe?$AAl?$AAf?$AA_?$AAx?$AA8?$AA6?$AA?2?$AAc@ 200989f0     LIBCMTD:loctim64.obj
 0002:00006a54       ??_C@_1CA@NJFECEIO@?$AA?$CI?$AA?5?$AAp?$AAt?$AAm?$AA?5?$AA?$CB?$AA?$DN?$AA?5?$AAN?$AAU?$AAL?$AAL?$AA?5?$AA?$CJ?$AA?$AA@ 20098a54     LIBCMTD:loctim64.obj
 0002:00006a74       ??_C@_1O@KLNKIMAP@?$AAf?$AAw?$AAr?$AAi?$AAt?$AAe?$AA?$AA@ 20098a74     LIBCMTD:fwrite.obj
 0002:00006a88       ??_C@_1GA@DOFNKKGD@?$AAf?$AA?3?$AA?2?$AAd?$AAd?$AA?2?$AAv?$AAc?$AAt?$AAo?$AAo?$AAl?$AAs?$AA?2?$AAc?$AAr?$AAt?$AA_?$AAb?$AAl?$AAd?$AA?2?$AAs?$AAe?$AAl?$AAf?$AA_?$AAx?$AA8?$AA6?$AA?2?$AAc@ 20098a88     LIBCMTD:fwrite.obj
 0002:00006ae8       ??_C@_1CC@FADMNIL@?$AA?$CI?$AAs?$AAt?$AAr?$AAe?$AAa?$AAm?$AA?5?$AA?$CB?$AA?$DN?$AA?5?$AAN?$AAU?$AAL?$AAL?$AA?$CJ?$AA?$AA@ 20098ae8     LIBCMTD:fwrite.obj
 0002:00006b10       ??_C@_1LG@DCNDJCHK@?$AA?$CI?$AA?$CC?$AAI?$AAn?$AAc?$AAo?$AAn?$AAs?$AAi?$AAs?$AAt?$AAe?$AAn?$AAt?$AA?5?$AAS?$AAt?$AAr?$AAe?$AAa?$AAm?$AA?5?$AAC?$AAo?$AAu?$AAn?$AAt?$AA?4?$AA?5?$AAF?$AAl?$AAu@ 20098b10     LIBCMTD:fwrite.obj
 0002:00006bc8       ??_C@_1DC@FHEPNAPF@?$AAn?$AAu?$AAm?$AA?5?$AA?$DM?$AA?$DN?$AA?5?$AA?$CI?$AAS?$AAI?$AAZ?$AAE?$AA_?$AAM?$AAA?$AAX?$AA?5?$AA?1?$AA?5?$AAs?$AAi?$AAz?$AAe?$AA?$CJ?$AA?$AA@ 20098bc8     LIBCMTD:fwrite.obj
 0002:00006bfc       ??_C@_1CC@CGFEEBMC@?$AA?$CI?$AAb?$AAu?$AAf?$AAf?$AAe?$AAr?$AA?5?$AA?$CB?$AA?$DN?$AA?5?$AAN?$AAU?$AAL?$AAL?$AA?$CJ?$AA?$AA@ 20098bfc     LIBCMTD:fwrite.obj
 0002:00006c20       ??_C@_1BO@JGPKCBCE@?$AA_?$AAf?$AAw?$AAr?$AAi?$AAt?$AAe?$AA_?$AAn?$AAo?$AAl?$AAo?$AAc?$AAk?$AA?$AA@ 20098c20     LIBCMTD:fwrite.obj
 0002:00006c40       ??_C@_1BA@CMLCEIGG@?$AAf?$AAr?$AAe?$AAa?$AAd?$AA_?$AAs?$AA?$AA@ 20098c40     LIBCMTD:fread.obj
 0002:00006c50       ??_C@_1FO@PNLFLIH@?$AAf?$AA?3?$AA?2?$AAd?$AAd?$AA?2?$AAv?$AAc?$AAt?$AAo?$AAo?$AAl?$AAs?$AA?2?$AAc?$AAr?$AAt?$AA_?$AAb?$AAl?$AAd?$AA?2?$AAs?$AAe?$AAl?$AAf?$AA_?$AAx?$AA8?$AA6?$AA?2?$AAc@ 20098c50     LIBCMTD:fread.obj
 0002:00006cb0       ??_C@_1DA@DKEFLDMG@?$AA?$CI?$AA?$CC?$AAb?$AAu?$AAf?$AAf?$AAe?$AAr?$AA?5?$AAt?$AAo?$AAo?$AA?5?$AAs?$AAm?$AAa?$AAl?$AAl?$AA?$CC?$AA?0?$AA?5?$AA0?$AA?$CJ?$AA?$AA@ 20098cb0     LIBCMTD:fread.obj
 0002:00006ce0       ??_C@_1EA@FAMECDND@?$AAn?$AAu?$AAm?$AA?5?$AA?$DM?$AA?$DN?$AA?5?$AA?$CI?$AAS?$AAI?$AAZ?$AAE?$AA_?$AAM?$AAA?$AAX?$AA?5?$AA?1?$AA?5?$AAe?$AAl?$AAe?$AAm?$AAe?$AAn?$AAt?$AAS?$AAi?$AAz?$AAe?$AA?$CJ?$AA?$AA@ 20098ce0     LIBCMTD:fread.obj
 0002:00006d20       ??_C@_1CA@IDPOGFL@?$AA_?$AAf?$AAr?$AAe?$AAa?$AAd?$AA_?$AAn?$AAo?$AAl?$AAo?$AAc?$AAk?$AA_?$AAs?$AA?$AA@ 20098d20     LIBCMTD:fread.obj
 0002:00006d40       ??_C@_1O@EGMJNCOI@?$AAf?$AAc?$AAl?$AAo?$AAs?$AAe?$AA?$AA@ 20098d40     LIBCMTD:fclose.obj
 0002:00006d50       ??_C@_1GA@KMIDAPAP@?$AAf?$AA?3?$AA?2?$AAd?$AAd?$AA?2?$AAv?$AAc?$AAt?$AAo?$AAo?$AAl?$AAs?$AA?2?$AAc?$AAr?$AAt?$AA_?$AAb?$AAl?$AAd?$AA?2?$AAs?$AAe?$AAl?$AAf?$AA_?$AAx?$AA8?$AA6?$AA?2?$AAc@ 20098d50     LIBCMTD:fclose.obj
 0002:00006db0       ??_C@_1BO@JINCABEC@?$AA_?$AAf?$AAc?$AAl?$AAo?$AAs?$AAe?$AA_?$AAn?$AAo?$AAl?$AAo?$AAc?$AAk?$AA?$AA@ 20098db0     LIBCMTD:fclose.obj
 0002:00006dd0       ??_C@_1BM@JMKHIAHP@?$AA?$CI?$AAs?$AAt?$AAr?$AA?5?$AA?$CB?$AA?$DN?$AA?5?$AAN?$AAU?$AAL?$AAL?$AA?$CJ?$AA?$AA@ 20098dd0     LIBCMTD:fclose.obj
 0002:00006dec       ??_C@_1CI@HBNALCBB@?$AA?$CI?$AA?$CK?$AAm?$AAo?$AAd?$AAe?$AA?5?$AA?$CB?$AA?$DN?$AA?5?$AA_?$AAT?$AA?$CI?$AA?8?$AA?2?$AA0?$AA?8?$AA?$CJ?$AA?$CJ?$AA?$AA@ 20098dec     LIBCMTD:fopen.obj
 0002:00006e14       ??_C@_1BO@MJMKAKCJ@?$AA?$CI?$AAm?$AAo?$AAd?$AAe?$AA?5?$AA?$CB?$AA?$DN?$AA?5?$AAN?$AAU?$AAL?$AAL?$AA?$CJ?$AA?$AA@ 20098e14     LIBCMTD:fopen.obj
 0002:00006e34       ??_C@_1BA@HNEAFMNL@?$AA_?$AAf?$AAs?$AAo?$AAp?$AAe?$AAn?$AA?$AA@ 20098e34     LIBCMTD:fopen.obj
 0002:00006e48       ??_C@_1FO@NCADDBOO@?$AAf?$AA?3?$AA?2?$AAd?$AAd?$AA?2?$AAv?$AAc?$AAt?$AAo?$AAo?$AAl?$AAs?$AA?2?$AAc?$AAr?$AAt?$AA_?$AAb?$AAl?$AAd?$AA?2?$AAs?$AAe?$AAl?$AAf?$AA_?$AAx?$AA8?$AA6?$AA?2?$AAc@ 20098e48     LIBCMTD:fopen.obj
 0002:00006ea8       ??_C@_1BO@CLGIAEOJ@?$AA?$CI?$AAf?$AAi?$AAl?$AAe?$AA?5?$AA?$CB?$AA?$DN?$AA?5?$AAN?$AAU?$AAL?$AAL?$AA?$CJ?$AA?$AA@ 20098ea8     LIBCMTD:fopen.obj
 0002:00006ec8       ??_C@_1BA@PBGKCCAP@?$AAf?$AAo?$AAp?$AAe?$AAn?$AA_?$AAs?$AA?$AA@ 20098ec8     LIBCMTD:fopen.obj
 0002:00006ed8       ??_C@_1CA@LLJLFCDN@?$AA?$CI?$AAp?$AAf?$AAi?$AAl?$AAe?$AA?5?$AA?$CB?$AA?$DN?$AA?5?$AAN?$AAU?$AAL?$AAL?$AA?$CJ?$AA?$AA@ 20098ed8     LIBCMTD:fopen.obj
 0002:00006ef8       ??_C@_1BA@NJCJMLHI@?$AA_?$AAa?$AAt?$AAo?$AAf?$AA_?$AAl?$AA?$AA@ 20098ef8     LIBCMTD:atof.obj
 0002:00006f08       ??_C@_1FM@HAAJIFE@?$AAf?$AA?3?$AA?2?$AAd?$AAd?$AA?2?$AAv?$AAc?$AAt?$AAo?$AAo?$AAl?$AAs?$AA?2?$AAc?$AAr?$AAt?$AA_?$AAb?$AAl?$AAd?$AA?2?$AAs?$AAe?$AAl?$AAf?$AA_?$AAx?$AA8?$AA6?$AA?2?$AAc@ 20098f08     LIBCMTD:atof.obj
 0002:00006f64       ??_C@_1BK@LAOAACLJ@?$AAn?$AAp?$AAt?$AAr?$AA?5?$AA?$CB?$AA?$DN?$AA?5?$AAN?$AAU?$AAL?$AAL?$AA?$AA@ 20098f64     LIBCMTD:atof.obj
 0002:00006f80       ??_C@_1BC@KMGJCMNP@?$AAv?$AAs?$AAc?$AAa?$AAn?$AA_?$AAf?$AAn?$AA?$AA@ 20098f80     LIBCMTD:sscanf.obj
 0002:00006f98       ??_C@_1GA@GDIHGGDN@?$AAf?$AA?3?$AA?2?$AAd?$AAd?$AA?2?$AAv?$AAc?$AAt?$AAo?$AAo?$AAl?$AAs?$AA?2?$AAc?$AAr?$AAt?$AA_?$AAb?$AAl?$AAd?$AA?2?$AAs?$AAe?$AAl?$AAf?$AA_?$AAx?$AA8?$AA6?$AA?2?$AAc@ 20098f98     LIBCMTD:sscanf.obj
 0002:00006ff8       ??_C@_1BAA@ODEGEDCK@?$AA?$CI?$AA?5?$AA?$CI?$AA_?$AAS?$AAt?$AAr?$AAe?$AAa?$AAm?$AA?9?$AA?$DO?$AA_?$AAf?$AAl?$AAa?$AAg?$AA?5?$AA?$CG?$AA?5?$AA_?$AAI?$AAO?$AAS?$AAT?$AAR?$AAG?$AA?$CJ?$AA?5?$AA?$HM?$AA?$HM?$AA?5@ 20098ff8     LIBCMTD:fprintf.obj
 0002:000070f8       ??_C@_1BA@DNOHIGNM@?$AAf?$AAp?$AAr?$AAi?$AAn?$AAt?$AAf?$AA?$AA@ 200990f8     LIBCMTD:fprintf.obj
 0002:00007108       ??_C@_1GC@NHJDDBOH@?$AAf?$AA?3?$AA?2?$AAd?$AAd?$AA?2?$AAv?$AAc?$AAt?$AAo?$AAo?$AAl?$AAs?$AA?2?$AAc?$AAr?$AAt?$AA_?$AAb?$AAl?$AAd?$AA?2?$AAs?$AAe?$AAl?$AAf?$AA_?$AAx?$AA8?$AA6?$AA?2?$AAc@ 20099108     LIBCMTD:fprintf.obj
 0002:0000716c       ??_C@_1BI@DCHLDCPP@?$AAs?$AAr?$AAc?$AA?5?$AA?$CB?$AA?$DN?$AA?5?$AAN?$AAU?$AAL?$AAL?$AA?$AA@ 2009916c     LIBCMTD:stricmp.obj
 0002:00007184       ??_C@_1BG@GLLONOEH@?$AA_?$AAs?$AAt?$AAr?$AAi?$AAc?$AAm?$AAp?$AA_?$AAl?$AA?$AA@ 20099184     LIBCMTD:stricmp.obj
 0002:000071a0       ??_C@_1GC@OILHAOLL@?$AAf?$AA?3?$AA?2?$AAd?$AAd?$AA?2?$AAv?$AAc?$AAt?$AAo?$AAo?$AAl?$AAs?$AA?2?$AAc?$AAr?$AAt?$AA_?$AAb?$AAl?$AAd?$AA?2?$AAs?$AAe?$AAl?$AAf?$AA_?$AAx?$AA8?$AA6?$AA?2?$AAc@ 200991a0     LIBCMTD:stricmp.obj
 0002:00007204       ??_C@_1BI@GKKCBDMD@?$AAd?$AAs?$AAt?$AA?5?$AA?$CB?$AA?$DN?$AA?5?$AAN?$AAU?$AAL?$AAL?$AA?$AA@ 20099204     LIBCMTD:stricmp.obj
 0002:0000721c       ??_C@_1BC@JLGKKIIG@?$AA_?$AAs?$AAt?$AAr?$AAi?$AAc?$AAm?$AAp?$AA?$AA@ 2009921c     LIBCMTD:stricmp.obj
 0002:00007230       __pRawDllMain              20099230     LIBCMTD:dllcrt0.obj
 0002:00007230       __pDefaultRawDllMain       20099230     LIBCMTD:dllcrt0.obj
 0002:00007234       ??_C@_0DB@OLNOAEGF@f?3?2dd?2vctools?2crt_bld?2self_x86?2c@ 20099234     LIBCMTD:dllcrt0.obj
 0002:00007268       ??_C@_1GE@KOCFNGPB@?$AA_?$AAc?$AAo?$AAn?$AAt?$AAr?$AAo?$AAl?$AAf?$AAp?$AA_?$AAs?$AA?$CI?$AA?$CI?$AA?$CI?$AAv?$AAo?$AAi?$AAd?$AA?5?$AA?$CK?$AA?$CJ?$AA0?$AA?$CJ?$AA?0?$AA?5?$AA0?$AAx?$AA0?$AA0?$AA0?$AA1@ 20099268     LIBCMTD:fp8.obj
 0002:000072cc       ??_C@_1CK@JMKHCBEI@?$AA_?$AAs?$AAe?$AAt?$AAd?$AAe?$AAf?$AAa?$AAu?$AAl?$AAt?$AAp?$AAr?$AAe?$AAc?$AAi?$AAs?$AAi?$AAo?$AAn?$AA?$AA@ 200992cc     LIBCMTD:fp8.obj
 0002:000072f8       ??_C@_1GG@PHGJJHBC@?$AAf?$AA?3?$AA?2?$AAd?$AAd?$AA?2?$AAv?$AAc?$AAt?$AAo?$AAo?$AAl?$AAs?$AA?2?$AAc?$AAr?$AAt?$AA_?$AAb?$AAl?$AAd?$AA?2?$AAs?$AAe?$AAl?$AAf?$AA_?$AAx?$AA8?$AA6?$AA?2?$AAc@ 200992f8     LIBCMTD:fp8.obj
 0002:00007360       ??_C@_1CA@CBMNPEO@?$AAs?$AAi?$AAz?$AAe?$AAI?$AAn?$AAB?$AAy?$AAt?$AAe?$AAs?$AA?5?$AA?$DO?$AA?5?$AA0?$AA?$AA@ 20099360     LIBCMTD:cvt.obj
 0002:00007380       ??_C@_1BC@INKAPMHI@?$AA_?$AAc?$AAf?$AAt?$AAo?$AAe?$AA_?$AAl?$AA?$AA@ 20099380     LIBCMTD:cvt.obj
 0002:00007398       ??_C@_1GO@NCCGBNKI@?$AAf?$AA?3?$AA?2?$AAd?$AAd?$AA?2?$AAv?$AAc?$AAt?$AAo?$AAo?$AAl?$AAs?$AA?2?$AAc?$AAr?$AAt?$AA_?$AAb?$AAl?$AAd?$AA?2?$AAs?$AAe?$AAl?$AAf?$AA_?$AAx?$AA8?$AA6?$AA?2?$AAc@ 20099398     LIBCMTD:cvt.obj
 0002:00007408       ??_C@_1BI@ICGGMGLK@?$AAb?$AAu?$AAf?$AA?5?$AA?$CB?$AA?$DN?$AA?5?$AAN?$AAU?$AAL?$AAL?$AA?$AA@ 20099408     LIBCMTD:cvt.obj
 0002:00007420       ??_C@_05KLBDPFGC@e?$CL000?$AA@ 20099420     LIBCMTD:cvt.obj
 0002:00007428       ??_C@_1LE@EOIFGNCJ@?$AAs?$AAt?$AAr?$AAc?$AAp?$AAy?$AA_?$AAs?$AA?$CI?$AAp?$AA?0?$AA?5?$AA?$CI?$AAs?$AAi?$AAz?$AAe?$AAI?$AAn?$AAB?$AAy?$AAt?$AAe?$AAs?$AA?5?$AA?$DN?$AA?$DN?$AA?5?$AA?$CI?$AAs?$AAi?$AAz@ 20099428     LIBCMTD:cvt.obj
 0002:000074e0       ??_C@_1HE@NACBNDPP@?$AAs?$AAi?$AAz?$AAe?$AAI?$AAn?$AAB?$AAy?$AAt?$AAe?$AAs?$AA?5?$AA?$DO?$AA?5?$AA?$CI?$AAs?$AAi?$AAz?$AAe?$AA_?$AAt?$AA?$CJ?$AA?$CI?$AA3?$AA?5?$AA?$CL?$AA?5?$AA?$CI?$AAn?$AAd?$AAe?$AAc@ 200994e0     LIBCMTD:cvt.obj
 0002:00007554       ??_C@_1BE@OLBNEILL@?$AA_?$AAc?$AAf?$AAt?$AAo?$AAe?$AA2?$AA_?$AAl?$AA?$AA@ 20099554     LIBCMTD:cvt.obj
 0002:00007568       ??_C@_1FC@IKIMAMJB@?$AAs?$AAi?$AAz?$AAe?$AAI?$AAn?$AAB?$AAy?$AAt?$AAe?$AAs?$AA?5?$AA?$DO?$AA?5?$AA?$CI?$AAs?$AAi?$AAz?$AAe?$AA_?$AAt?$AA?$CJ?$AA?$CI?$AA1?$AA?5?$AA?$CL?$AA?5?$AA4?$AA?5?$AA?$CL?$AA?5?$AAn@ 20099568     LIBCMTD:cvt.obj
 0002:000075bc       ??_C@_1BC@JOKPCIC@?$AA_?$AAc?$AAf?$AAt?$AAo?$AAa?$AA_?$AAl?$AA?$AA@ 200995bc     LIBCMTD:cvt.obj
 0002:000075d0       ??_C@_1BC@DCPPLJL@?$AA_?$AAc?$AAf?$AAt?$AAo?$AAf?$AA_?$AAl?$AA?$AA@ 200995d0     LIBCMTD:cvt.obj
 0002:000075e4       ??_C@_1BE@CKPDLI@?$AA_?$AAc?$AAf?$AAt?$AAo?$AAf?$AA2?$AA_?$AAl?$AA?$AA@ 200995e4     LIBCMTD:cvt.obj
 0002:000075f8       ??_C@_1BC@MPIFPLAF@?$AA_?$AAc?$AAf?$AAt?$AAo?$AAg?$AA_?$AAl?$AA?$AA@ 200995f8     LIBCMTD:cvt.obj
 0002:0000760c       ??_C@_0DC@LMJHGCKC@f?3?2dd?2vctools?2crt_bld?2self_x86?2c@ 2009960c     LIBCMTD:tidtable.obj
 0002:00007640       ??_C@_07PEJMOBNF@FlsFree?$AA@ 20099640     LIBCMTD:tidtable.obj
 0002:00007648       ??_C@_0M@JCPCPOEF@FlsSetValue?$AA@ 20099648     LIBCMTD:tidtable.obj
 0002:00007654       ??_C@_0M@GDNOONDI@FlsGetValue?$AA@ 20099654     LIBCMTD:tidtable.obj
 0002:00007660       ??_C@_08KNHFBNJ@FlsAlloc?$AA@ 20099660     LIBCMTD:tidtable.obj
 0002:0000766c       ??_C@_1BK@DBDEIDLH@?$AAK?$AAE?$AAR?$AAN?$AAE?$AAL?$AA3?$AA2?$AA?4?$AAD?$AAL?$AAL?$AA?$AA@ 2009966c     LIBCMTD:tidtable.obj
 0002:00007690       ??_C@_1FE@CEHLKAHD@?$AAi?$AAb?$AAa?$AAs?$AAe?$AA?5?$AA?$DN?$AA?$DN?$AA?5?$AA0?$AA?5?$AA?$HM?$AA?$HM?$AA?5?$AA?$CI?$AA2?$AA?5?$AA?$DM?$AA?$DN?$AA?5?$AAi?$AAb?$AAa?$AAs?$AAe?$AA?5?$AA?$CG?$AA?$CG?$AA?5?$AAi?$AAb?$AAa@ 20099690     LIBCMTD:strtol.obj
 0002:000076e4       ??_C@_1BA@LOLAMAJG@?$AAs?$AAt?$AAr?$AAt?$AAo?$AAx?$AAl?$AA?$AA@ 200996e4     LIBCMTD:strtol.obj
 0002:000076f8       ??_C@_1GA@IPHKKOEI@?$AAf?$AA?3?$AA?2?$AAd?$AAd?$AA?2?$AAv?$AAc?$AAt?$AAo?$AAo?$AAl?$AAs?$AA?2?$AAc?$AAr?$AAt?$AA_?$AAb?$AAl?$AAd?$AA?2?$AAs?$AAe?$AAl?$AAf?$AA_?$AAx?$AA8?$AA6?$AA?2?$AAc@ 200996f8     LIBCMTD:strtol.obj
 0002:00007758       ??_C@_1BA@BMMDEPNE@?$AAs?$AAt?$AAr?$AAt?$AAo?$AAx?$AAq?$AA?$AA@ 20099758     LIBCMTD:strtoq.obj
 0002:00007768       ??_C@_1GA@GIMEIKLC@?$AAf?$AA?3?$AA?2?$AAd?$AAd?$AA?2?$AAv?$AAc?$AAt?$AAo?$AAo?$AAl?$AAs?$AA?2?$AAc?$AAr?$AAt?$AA_?$AAb?$AAl?$AAd?$AA?2?$AAs?$AAe?$AAl?$AAf?$AA_?$AAx?$AA8?$AA6?$AA?2?$AAc@ 20099768     LIBCMTD:strtoq.obj
 0002:000077c8       ??_C@_1BG@KCMPBBDK@?$AA_?$AAg?$AAe?$AAt?$AA_?$AAe?$AAr?$AAr?$AAn?$AAo?$AA?$AA@ 200997c8     LIBCMTD:dosmap.obj
 0002:000077e0       ??_C@_1GA@MFGIMPNL@?$AAf?$AA?3?$AA?2?$AAd?$AAd?$AA?2?$AAv?$AAc?$AAt?$AAo?$AAo?$AAl?$AAs?$AA?2?$AAc?$AAr?$AAt?$AA_?$AAb?$AAl?$AAd?$AA?2?$AAs?$AAe?$AAl?$AAf?$AA_?$AAx?$AA8?$AA6?$AA?2?$AAc@ 200997e0     LIBCMTD:dosmap.obj
 0002:00007840       ??_C@_1BO@LKEBEKJP@?$AAp?$AAV?$AAa?$AAl?$AAu?$AAe?$AA?5?$AA?$CB?$AA?$DN?$AA?5?$AAN?$AAU?$AAL?$AAL?$AA?$AA@ 20099840     LIBCMTD:dosmap.obj
 0002:00007860       ??_C@_1BM@INIPHHDD@?$AA_?$AAg?$AAe?$AAt?$AA_?$AAd?$AAo?$AAs?$AAe?$AAr?$AAr?$AAn?$AAo?$AA?$AA@ 20099860     LIBCMTD:dosmap.obj
 0002:0000787c       ??_C@_17LGKOMLJ@?$AA?4?$AA?4?$AA?4?$AA?$AA@ 2009987c     LIBCMTD:dbgrptw.obj
 0002:00007884       ??_C@_1CC@CGHMNGDG@?$AAA?$AAs?$AAs?$AAe?$AAr?$AAt?$AAi?$AAo?$AAn?$AA?5?$AAF?$AAa?$AAi?$AAl?$AAe?$AAd?$AA?$AA@ 20099884     LIBCMTD:dbgrptw.obj
 0002:000078a8       ??_C@_1M@ILHOPKA@?$AAE?$AAr?$AAr?$AAo?$AAr?$AA?$AA@ 200998a8     LIBCMTD:dbgrptw.obj
 0002:000078b4       ??_C@_1BA@GLMCNLEM@?$AAW?$AAa?$AAr?$AAn?$AAi?$AAn?$AAg?$AA?$AA@ 200998b4     LIBCMTD:dbgrptw.obj
 0002:000078d0       ??_C@_0DA@PCCBBBID@f?3?2dd?2vctools?2crt_bld?2self_x86?2c@ 200998d0     LIBCMTD:dbgrptw.obj
 0002:00007900       ??_C@_1FI@PHIAFFHM@?$AA?$CI?$AA?$CC?$AAT?$AAh?$AAe?$AA?5?$AAh?$AAo?$AAo?$AAk?$AA?5?$AAf?$AAu?$AAn?$AAc?$AAt?$AAi?$AAo?$AAn?$AA?5?$AAi?$AAs?$AA?5?$AAn?$AAo?$AAt?$AA?5?$AAi?$AAn?$AA?5?$AAt?$AAh@ 20099900     LIBCMTD:dbgrptw.obj
 0002:00007958       ??_C@_1CG@JBJEFOCM@?$AAp?$AAf?$AAn?$AAN?$AAe?$AAw?$AAH?$AAo?$AAo?$AAk?$AA?5?$AA?$CB?$AA?$DN?$AA?5?$AAN?$AAU?$AAL?$AAL?$AA?$AA@ 20099958     LIBCMTD:dbgrptw.obj
 0002:00007980       ??_C@_1CI@IIHEAKEI@?$AA_?$AAC?$AAr?$AAt?$AAS?$AAe?$AAt?$AAR?$AAe?$AAp?$AAo?$AAr?$AAt?$AAH?$AAo?$AAo?$AAk?$AAW?$AA2?$AA?$AA@ 20099980     LIBCMTD:dbgrptw.obj
 0002:000079a8       ??_C@_1GA@IBJGKIFE@?$AAf?$AA?3?$AA?2?$AAd?$AAd?$AA?2?$AAv?$AAc?$AAt?$AAo?$AAo?$AAl?$AAs?$AA?2?$AAc?$AAr?$AAt?$AA_?$AAb?$AAl?$AAd?$AA?2?$AAs?$AAe?$AAl?$AAf?$AA_?$AAx?$AA8?$AA6?$AA?2?$AAc@ 200999a8     LIBCMTD:dbgrptw.obj
 0002:00007a08       ??_C@_1HI@OFEHGPPC@?$AAm?$AAo?$AAd?$AAe?$AA?5?$AA?$DN?$AA?$DN?$AA?5?$AA_?$AAC?$AAR?$AAT?$AA_?$AAR?$AAP?$AAT?$AAH?$AAO?$AAO?$AAK?$AA_?$AAI?$AAN?$AAS?$AAT?$AAA?$AAL?$AAL?$AA?5?$AA?$HM?$AA?$HM?$AA?5@ 20099a08     LIBCMTD:dbgrptw.obj
 0002:00007a80       ??_C@_1EG@PEOEAKBB@?$AAM?$AAi?$AAc?$AAr?$AAo?$AAs?$AAo?$AAf?$AAt?$AA?5?$AAV?$AAi?$AAs?$AAu?$AAa?$AAl?$AA?5?$AAC?$AA?$CL?$AA?$CL?$AA?5?$AAD?$AAe?$AAb?$AAu?$AAg?$AA?5?$AAL?$AAi?$AAb?$AAr?$AAa@ 20099a80     LIBCMTD:dbgrptw.obj
 0002:00007ac8       ??_C@_1FG@BBOLDHGF@?$AA_?$AAC?$AAr?$AAt?$AAD?$AAb?$AAg?$AAR?$AAe?$AAp?$AAo?$AAr?$AAt?$AA?3?$AA?5?$AAS?$AAt?$AAr?$AAi?$AAn?$AAg?$AA?5?$AAt?$AAo?$AAo?$AA?5?$AAl?$AAo?$AAn?$AAg?$AA?5?$AAo@ 20099ac8     LIBCMTD:dbgrptw.obj
 0002:00007b20       ??_C@_1JI@EACPGHID@?$AAw?$AAc?$AAs?$AAc?$AAp?$AAy?$AA_?$AAs?$AA?$CI?$AAs?$AAz?$AAO?$AAu?$AAt?$AAM?$AAe?$AAs?$AAs?$AAa?$AAg?$AAe?$AA?0?$AA?5?$AA4?$AA0?$AA9?$AA6?$AA?0?$AA?5?$AAL?$AA?$CC?$AA_@ 20099b20     LIBCMTD:dbgrptw.obj
 0002:00007bb8       ??_C@_1BI@KALLJECN@?$AA?$CI?$AA?$CK?$AA_?$AAe?$AAr?$AAr?$AAn?$AAo?$AA?$CI?$AA?$CJ?$AA?$CJ?$AA?$AA@ 20099bb8     LIBCMTD:dbgrptw.obj
 0002:00007bd0       ??_C@_1KK@MEFMPOLM@?$AAD?$AAe?$AAb?$AAu?$AAg?$AA?5?$AA?$CF?$AAs?$AA?$CB?$AA?6?$AA?6?$AAP?$AAr?$AAo?$AAg?$AAr?$AAa?$AAm?$AA?3?$AA?5?$AA?$CF?$AAs?$AA?$CF?$AAs?$AA?$CF?$AAs?$AA?$CF?$AAs?$AA?$CF?$AAs?$AA?$CF?$AAs@ 20099bd0     LIBCMTD:dbgrptw.obj
 0002:00007c7c       ??_C@_1BE@CGCJKGHI@?$AA?6?$AAM?$AAo?$AAd?$AAu?$AAl?$AAe?$AA?3?$AA?5?$AA?$AA@ 20099c7c     LIBCMTD:dbgrptw.obj
 0002:00007c90       ??_C@_1BA@LNHECFIM@?$AA?6?$AAF?$AAi?$AAl?$AAe?$AA?3?$AA?5?$AA?$AA@ 20099c90     LIBCMTD:dbgrptw.obj
 0002:00007ca0       ??_C@_1BA@GLLGCPCK@?$AA?6?$AAL?$AAi?$AAn?$AAe?$AA?3?$AA?5?$AA?$AA@ 20099ca0     LIBCMTD:dbgrptw.obj
 0002:00007cb0       ??_C@_15IABLJNFO@?$AA?6?$AA?6?$AA?$AA@ 20099cb0     LIBCMTD:dbgrptw.obj
 0002:00007cb8       ??_C@_1BK@PEDCIPMA@?$AAE?$AAx?$AAp?$AAr?$AAe?$AAs?$AAs?$AAi?$AAo?$AAn?$AA?3?$AA?5?$AA?$AA@ 20099cb8     LIBCMTD:dbgrptw.obj
 0002:00007cd4       ??_C@_11LOCGONAA@?$AA?$AA@ 20099cd4     LIBCMTD:dbgrptw.obj
 0002:00007cd8       ??_C@_1OG@PMPPFHAF@?$AA?6?$AA?6?$AAF?$AAo?$AAr?$AA?5?$AAi?$AAn?$AAf?$AAo?$AAr?$AAm?$AAa?$AAt?$AAi?$AAo?$AAn?$AA?5?$AAo?$AAn?$AA?5?$AAh?$AAo?$AAw?$AA?5?$AAy?$AAo?$AAu?$AAr?$AA?5?$AAp?$AAr@ 20099cd8     LIBCMTD:dbgrptw.obj
 0002:00007dc0       ??_C@_1NO@LECLLHOL@?$AAm?$AAe?$AAm?$AAc?$AAp?$AAy?$AA_?$AAs?$AA?$CI?$AAs?$AAz?$AAS?$AAh?$AAo?$AAr?$AAt?$AAP?$AAr?$AAo?$AAg?$AAN?$AAa?$AAm?$AAe?$AA?0?$AA?5?$AAs?$AAi?$AAz?$AAe?$AAo?$AAf@ 20099dc0     LIBCMTD:dbgrptw.obj
 0002:00007ea0       ??_C@_1CO@EAEJAADC@?$AA?$DM?$AAp?$AAr?$AAo?$AAg?$AAr?$AAa?$AAm?$AA?5?$AAn?$AAa?$AAm?$AAe?$AA?5?$AAu?$AAn?$AAk?$AAn?$AAo?$AAw?$AAn?$AA?$DO?$AA?$AA@ 20099ea0     LIBCMTD:dbgrptw.obj
 0002:00007ed0       ??_C@_1GI@DEDNNLCI@?$AAw?$AAc?$AAs?$AAc?$AAp?$AAy?$AA_?$AAs?$AA?$CI?$AAs?$AAz?$AAE?$AAx?$AAe?$AAN?$AAa?$AAm?$AAe?$AA?0?$AA?5?$AA2?$AA6?$AA0?$AA?0?$AA?5?$AAL?$AA?$CC?$AA?$DM?$AAp?$AAr?$AAo?$AAg@ 20099ed0     LIBCMTD:dbgrptw.obj
 0002:00007f38       ??_C@_1CI@PGJIFDEK@?$AA_?$AA_?$AAc?$AAr?$AAt?$AAM?$AAe?$AAs?$AAs?$AAa?$AAg?$AAe?$AAW?$AAi?$AAn?$AAd?$AAo?$AAw?$AAW?$AA?$AA@ 20099f38     LIBCMTD:dbgrptw.obj
 0002:00007f60       ??_C@_1HO@MLMGPAFH@?$AA?$CI?$AA?$CC?$AAi?$AAn?$AAc?$AAo?$AAn?$AAs?$AAi?$AAs?$AAt?$AAe?$AAn?$AAt?$AA?5?$AAI?$AAO?$AAB?$AA?5?$AAf?$AAi?$AAe?$AAl?$AAd?$AAs?$AA?$CC?$AA?0?$AA?5?$AAs?$AAt?$AAr?$AAe@ 20099f60     LIBCMTD:_flsbuf.obj
 0002:00007fe0       ??_C@_1GC@GNCCMPNN@?$AAf?$AA?3?$AA?2?$AAd?$AAd?$AA?2?$AAv?$AAc?$AAt?$AAo?$AAo?$AAl?$AAs?$AA?2?$AAc?$AAr?$AAt?$AA_?$AAb?$AAl?$AAd?$AA?2?$AAs?$AAe?$AAl?$AAf?$AA_?$AAx?$AA8?$AA6?$AA?2?$AAc@ 20099fe0     LIBCMTD:_flsbuf.obj
 0002:00008044       ??_C@_1BI@MFCLPIBM@?$AAs?$AAt?$AAr?$AA?5?$AA?$CB?$AA?$DN?$AA?5?$AAN?$AAU?$AAL?$AAL?$AA?$AA@ 2009a044     LIBCMTD:_flsbuf.obj
 0002:0000805c       ??_C@_1O@CEDCILHN@?$AA?$CI?$AAn?$AAu?$AAl?$AAl?$AA?$CJ?$AA?$AA@ 2009a05c     LIBCMTD:output.obj
 0002:0000806c       ??_C@_06OJHGLDPL@?$CInull?$CJ?$AA@ 2009a06c     LIBCMTD:output.obj
 0002:00008078       ___lookuptable             2009a078     LIBCMTD:output.obj
 0002:000080d4       ??_C@_0DA@NFBEBPEE@f?3?2dd?2vctools?2crt_bld?2self_x86?2c@ 2009a0d4     LIBCMTD:output.obj
 0002:00008108       ??_C@_1EK@PNGFDECN@?$AA?$CI?$AA?$CC?$AA?8?$AAn?$AA?8?$AA?5?$AAf?$AAo?$AAr?$AAm?$AAa?$AAt?$AA?5?$AAs?$AAp?$AAe?$AAc?$AAi?$AAf?$AAi?$AAe?$AAr?$AA?5?$AAd?$AAi?$AAs?$AAa?$AAb?$AAl?$AAe?$AAd?$AA?$CC@ 2009a108     LIBCMTD:output.obj
 0002:00008154       ??_C@_1CC@IFFHEMNF@?$AA?$CI?$AAc?$AAh?$AA?5?$AA?$CB?$AA?$DN?$AA?5?$AA_?$AAT?$AA?$CI?$AA?8?$AA?2?$AA0?$AA?8?$AA?$CJ?$AA?$CJ?$AA?$AA@ 2009a154     LIBCMTD:output.obj
 0002:00008178       ??_C@_1BE@IONLIDNC@?$AA_?$AAo?$AAu?$AAt?$AAp?$AAu?$AAt?$AA_?$AAl?$AA?$AA@ 2009a178     LIBCMTD:output.obj
 0002:00008190       ??_C@_1GA@HHFOFBLN@?$AAf?$AA?3?$AA?2?$AAd?$AAd?$AA?2?$AAv?$AAc?$AAt?$AAo?$AAo?$AAl?$AAs?$AA?2?$AAc?$AAr?$AAt?$AA_?$AAb?$AAl?$AAd?$AA?2?$AAs?$AAe?$AAl?$AAf?$AA_?$AAx?$AA8?$AA6?$AA?2?$AAc@ 2009a190     LIBCMTD:output.obj
 0002:000081f0       ??_C@_1EC@FABAOFFO@?$AA?$CI?$AAc?$AAo?$AAu?$AAn?$AAt?$AA?5?$AA?$DN?$AA?$DN?$AA?5?$AA0?$AA?$CJ?$AA?5?$AA?$HM?$AA?$HM?$AA?5?$AA?$CI?$AAs?$AAt?$AAr?$AAi?$AAn?$AAg?$AA?5?$AA?$CB?$AA?$DN?$AA?5?$AAN?$AAU?$AAL?$AAL?$AA?$CJ@ 2009a1f0     LIBCMTD:vsnprnc.obj
 0002:00008234       ??_C@_1CE@PCFPEIFI@?$AA_?$AAv?$AAs?$AAn?$AAp?$AAr?$AAi?$AAn?$AAt?$AAf?$AA_?$AAh?$AAe?$AAl?$AAp?$AAe?$AAr?$AA?$AA@ 2009a234     LIBCMTD:vsnprnc.obj
 0002:00008258       ??_C@_1DA@HPBFKMEB@?$AA?$CI?$AA?$CC?$AAB?$AAu?$AAf?$AAf?$AAe?$AAr?$AA?5?$AAt?$AAo?$AAo?$AA?5?$AAs?$AAm?$AAa?$AAl?$AAl?$AA?$CC?$AA?0?$AA?5?$AA0?$AA?$CJ?$AA?$AA@ 2009a258     LIBCMTD:vsnprnc.obj
 0002:00008288       ??_C@_1EE@OKCKIGFK@?$AAs?$AAt?$AAr?$AAi?$AAn?$AAg?$AA?5?$AA?$CB?$AA?$DN?$AA?5?$AAN?$AAU?$AAL?$AAL?$AA?5?$AA?$CG?$AA?$CG?$AA?5?$AAs?$AAi?$AAz?$AAe?$AAI?$AAn?$AAB?$AAy?$AAt?$AAe?$AAs?$AA?5?$AA?$DO?$AA?5@ 2009a288     LIBCMTD:vsnprnc.obj
 0002:000082cc       ??_C@_1BM@BLJALHEF@?$AA_?$AAv?$AAs?$AAp?$AAr?$AAi?$AAn?$AAt?$AAf?$AA_?$AAs?$AA_?$AAl?$AA?$AA@ 2009a2cc     LIBCMTD:vsnprnc.obj
 0002:000082e8       ??_C@_1BO@MLMCMBKN@?$AAf?$AAo?$AAr?$AAm?$AAa?$AAt?$AA?5?$AA?$CB?$AA?$DN?$AA?5?$AAN?$AAU?$AAL?$AAL?$AA?$AA@ 2009a2e8     LIBCMTD:vsnprnc.obj
 0002:00008308       ??_C@_1BO@MMPELNIM@?$AA_?$AAv?$AAs?$AAn?$AAp?$AAr?$AAi?$AAn?$AAt?$AAf?$AA_?$AAs?$AA_?$AAl?$AA?$AA@ 2009a308     LIBCMTD:vsnprnc.obj
 0002:00008390       ??_C@_03IIINPABG@tan?$AA@  2009a390     LIBCMTD:_libm_error_.obj
 0002:00008394       ??_C@_03LALBNOCG@cos?$AA@  2009a394     LIBCMTD:_libm_error_.obj
 0002:00008398       ??_C@_03BLEJJJBH@sin?$AA@  2009a398     LIBCMTD:_libm_error_.obj
 0002:0000839c       ??_C@_04EHEDPDJG@modf?$AA@ 2009a39c     LIBCMTD:_libm_error_.obj
 0002:000083a4       ??_C@_05PBJFFIGL@floor?$AA@ 2009a3a4     LIBCMTD:_libm_error_.obj
 0002:000083ac       ??_C@_04GFPJNGEK@ceil?$AA@ 2009a3ac     LIBCMTD:_libm_error_.obj
 0002:000083b4       ??_C@_04MLLJIGOK@atan?$AA@ 2009a3b4     LIBCMTD:_libm_error_.obj
 0002:000083bc       ??_C@_05EOHGHCHD@exp10?$AA@ 2009a3bc     LIBCMTD:_libm_error_.obj
 0002:000083c4       ??_C@_04PDIFKINK@acos?$AA@ 2009a3c4     LIBCMTD:_libm_error_.obj
 0002:000083cc       ??_C@_04FIHNOPOL@asin?$AA@ 2009a3cc     LIBCMTD:_libm_error_.obj
 0002:000083d4       ??_C@_03JGHBODFD@pow?$AA@  2009a3d4     LIBCMTD:_libm_error_.obj
 0002:000083d8       ??_C@_03KHJOGHMM@exp?$AA@  2009a3d8     LIBCMTD:_libm_error_.obj
 0002:000083dc       ??_C@_05HGHHAHAP@log10?$AA@ 2009a3dc     LIBCMTD:_libm_error_.obj
 0002:000083e4       ??_C@_03MGHMBJCF@log?$AA@  2009a3e4     LIBCMTD:_libm_error_.obj
 0002:000083f0       __indefinite               2009a3f0     LIBCMTD:_87disp_.obj
 0002:000083fa       __piby2                    2009a3fa     LIBCMTD:_87disp_.obj
 0002:00008428       __DEFAULT_CW_in_mem        2009a428     LIBCMTD:_common_.obj
 0002:0000842a       __pi_by_2_to_61            2009a42a     LIBCMTD:_common_.obj
 0002:00008464       ??_C@_0L@KDOEJCKC@_nextafter?$AA@ 2009a464     LIBCMTD:_fpexcept_.obj
 0002:00008470       ??_C@_05JGDBENOH@_logb?$AA@ 2009a470     LIBCMTD:_fpexcept_.obj
 0002:00008478       ??_C@_03ONILCKOB@_yn?$AA@  2009a478     LIBCMTD:_fpexcept_.obj
 0002:0000847c       ??_C@_03NAKIGLHK@_y1?$AA@  2009a47c     LIBCMTD:_fpexcept_.obj
 0002:00008480       ??_C@_03MJLDFKDL@_y0?$AA@  2009a480     LIBCMTD:_fpexcept_.obj
 0002:00008484       ??_C@_05GKKHEGJL@frexp?$AA@ 2009a484     LIBCMTD:_fpexcept_.obj
 0002:0000848c       ??_C@_04KEPJIHGP@fmod?$AA@ 2009a48c     LIBCMTD:_fpexcept_.obj
 0002:00008494       ??_C@_06MEIMCGCF@_hypot?$AA@ 2009a494     LIBCMTD:_fpexcept_.obj
 0002:0000849c       ??_C@_05KBKMEMPO@_cabs?$AA@ 2009a49c     LIBCMTD:_fpexcept_.obj
 0002:000084a4       ??_C@_05CEJMAHNP@ldexp?$AA@ 2009a4a4     LIBCMTD:_fpexcept_.obj
 0002:000084ac       ??_C@_04ODHECPBC@fabs?$AA@ 2009a4ac     LIBCMTD:_fpexcept_.obj
 0002:000084b4       ??_C@_04EIAKFFMI@sqrt?$AA@ 2009a4b4     LIBCMTD:_fpexcept_.obj
 0002:000084bc       ??_C@_05KNGEOGJB@atan2?$AA@ 2009a4bc     LIBCMTD:_fpexcept_.obj
 0002:000084c4       ??_C@_04FJHINJAO@tanh?$AA@ 2009a4c4     LIBCMTD:_fpexcept_.obj
 0002:000084cc       ??_C@_04HPJJNFIM@cosh?$AA@ 2009a4cc     LIBCMTD:_fpexcept_.obj
 0002:000084d4       ??_C@_04COOMCNPB@sinh?$AA@ 2009a4d4     LIBCMTD:_fpexcept_.obj
 0002:000084e0       ??_C@_1FK@BCPANIEK@?$AA?$CI?$AA?$CC?$AAM?$AAi?$AAs?$AAs?$AAi?$AAn?$AAg?$AA?5?$AAp?$AAo?$AAs?$AAi?$AAt?$AAi?$AAo?$AAn?$AA?5?$AAi?$AAn?$AA?5?$AAt?$AAh?$AAe?$AA?5?$AAf?$AAo?$AAr?$AAm?$AAa?$AAt@ 2009a4e0     LIBCMTD:outputp.obj
 0002:00008540       ??_C@_1FK@LNCFKALM@?$AA?$CI?$AA?$CI?$AAs?$AAt?$AAa?$AAt?$AAe?$AA?5?$AA?$DN?$AA?$DN?$AA?5?$AAS?$AAT?$AA_?$AAN?$AAO?$AAR?$AAM?$AAA?$AAL?$AA?$CJ?$AA?5?$AA?$HM?$AA?$HM?$AA?5?$AA?$CI?$AAs?$AAt?$AAa?$AAt?$AAe?$AA?5@ 2009a540     LIBCMTD:outputp.obj
 0002:000085a0       ??_C@_1JC@OACKELNN@?$AA_?$AAt?$AAv?$AAa?$AAl?$AAi?$AAd?$AAa?$AAt?$AAe?$AA_?$AAp?$AAa?$AAr?$AAa?$AAm?$AA_?$AAr?$AAe?$AAu?$AAs?$AAe?$AA?$CI?$AA?$CG?$AAp?$AAo?$AAs?$AA_?$AAv?$AAa?$AAl?$AAu@ 2009a5a0     LIBCMTD:outputp.obj
 0002:00008638       ??_C@_1IK@NBGDDCBN@?$AA_?$AAt?$AAv?$AAa?$AAl?$AAi?$AAd?$AAa?$AAt?$AAe?$AA_?$AAp?$AAa?$AAr?$AAa?$AAm?$AA_?$AAr?$AAe?$AAu?$AAs?$AAe?$AA?$CI?$AA?$CG?$AAp?$AAo?$AAs?$AA_?$AAv?$AAa?$AAl?$AAu@ 2009a638     LIBCMTD:outputp.obj
 0002:000086c4       ??_C@_1DG@GOHGNKHE@?$AAp?$AAa?$AAs?$AAs?$AA?5?$AA?$DN?$AA?$DN?$AA?5?$AAF?$AAO?$AAR?$AAM?$AAA?$AAT?$AA_?$AAO?$AAU?$AAT?$AAP?$AAU?$AAT?$AA_?$AAP?$AAA?$AAS?$AAS?$AA?$AA@ 2009a6c4     LIBCMTD:outputp.obj
 0002:00008700       ??_C@_1IM@DNGHAPLB@?$AA_?$AAt?$AAv?$AAa?$AAl?$AAi?$AAd?$AAa?$AAt?$AAe?$AA_?$AAp?$AAa?$AAr?$AAa?$AAm?$AA_?$AAr?$AAe?$AAu?$AAs?$AAe?$AA?$CI?$AA?$CG?$AAp?$AAo?$AAs?$AA_?$AAv?$AAa?$AAl?$AAu@ 2009a700     LIBCMTD:outputp.obj
 0002:00008790       ??_C@_1IG@HJIMKDHC@?$AA_?$AAt?$AAv?$AAa?$AAl?$AAi?$AAd?$AAa?$AAt?$AAe?$AA_?$AAp?$AAa?$AAr?$AAa?$AAm?$AA_?$AAr?$AAe?$AAu?$AAs?$AAe?$AA?$CI?$AA?$CG?$AAp?$AAo?$AAs?$AA_?$AAv?$AAa?$AAl?$AAu@ 2009a790     LIBCMTD:outputp.obj
 0002:00008818       ??_C@_1IG@FDCPLALG@?$AA_?$AAt?$AAv?$AAa?$AAl?$AAi?$AAd?$AAa?$AAt?$AAe?$AA_?$AAp?$AAa?$AAr?$AAa?$AAm?$AA_?$AAr?$AAe?$AAu?$AAs?$AAe?$AA?$CI?$AA?$CG?$AAp?$AAo?$AAs?$AA_?$AAv?$AAa?$AAl?$AAu@ 2009a818     LIBCMTD:outputp.obj
 0002:000088a0       ??_C@_1IK@MHEDJAMK@?$AA_?$AAt?$AAv?$AAa?$AAl?$AAi?$AAd?$AAa?$AAt?$AAe?$AA_?$AAp?$AAa?$AAr?$AAa?$AAm?$AA_?$AAr?$AAe?$AAu?$AAs?$AAe?$AA?$CI?$AA?$CG?$AAp?$AAo?$AAs?$AA_?$AAv?$AAa?$AAl?$AAu@ 2009a8a0     LIBCMTD:outputp.obj
 0002:00008930       ??_C@_1EM@BNPHBBIA@?$AA?$CI?$AA?$CI?$AAt?$AAy?$AAp?$AAe?$AA_?$AAp?$AAo?$AAs?$AA?$DO?$AA?$DN?$AA0?$AA?$CJ?$AA?5?$AA?$CG?$AA?$CG?$AA?5?$AA?$CI?$AAt?$AAy?$AAp?$AAe?$AA_?$AAp?$AAo?$AAs?$AA?$DM?$AA_?$AAA?$AAR?$AAG@ 2009a930     LIBCMTD:outputp.obj
 0002:00008980       ??_C@_1IK@EIEPDKHJ@?$AA_?$AAt?$AAv?$AAa?$AAl?$AAi?$AAd?$AAa?$AAt?$AAe?$AA_?$AAp?$AAa?$AAr?$AAa?$AAm?$AA_?$AAr?$AAe?$AAu?$AAs?$AAe?$AA?$CI?$AA?$CG?$AAp?$AAo?$AAs?$AA_?$AAv?$AAa?$AAl?$AAu@ 2009a980     LIBCMTD:outputp.obj
 0002:00008a10       ??_C@_1JG@JBJBOCFB@?$AA?$CI?$AA?$CI?$AAp?$AAr?$AAe?$AAc?$AAi?$AAs?$AA_?$AAp?$AAo?$AAs?$AA?5?$AA?$DO?$AA?$DN?$AA?5?$AA0?$AA?$CJ?$AA?5?$AA?$CG?$AA?$CG?$AA?5?$AA?$CI?$AA?$CK?$AAe?$AAn?$AAd?$AA_?$AAp?$AAo?$AAs?$AA?5@ 2009aa10     LIBCMTD:outputp.obj
 0002:00008aa8       ??_C@_1II@PIPIMLPF@?$AA_?$AAt?$AAv?$AAa?$AAl?$AAi?$AAd?$AAa?$AAt?$AAe?$AA_?$AAp?$AAa?$AAr?$AAa?$AAm?$AA_?$AAr?$AAe?$AAu?$AAs?$AAe?$AA?$CI?$AA?$CG?$AAp?$AAo?$AAs?$AA_?$AAv?$AAa?$AAl?$AAu@ 2009aaa8     LIBCMTD:outputp.obj
 0002:00008b30       ??_C@_1JE@NMBHOLFI@?$AA?$CI?$AA?$CI?$AAw?$AAi?$AAd?$AAt?$AAh?$AA_?$AAp?$AAo?$AAs?$AA?5?$AA?$DO?$AA?$DN?$AA?5?$AA0?$AA?$CJ?$AA?5?$AA?$CG?$AA?$CG?$AA?5?$AA?$CI?$AA?$CK?$AAe?$AAn?$AAd?$AA_?$AAp?$AAo?$AAs?$AA?5?$AA?$DN@ 2009ab30     LIBCMTD:outputp.obj
 0002:00008bc8       ??_C@_1EE@DMAIGNBG@?$AA?$CI?$AA?$CC?$AAI?$AAn?$AAc?$AAo?$AAr?$AAr?$AAe?$AAc?$AAt?$AA?5?$AAf?$AAo?$AAr?$AAm?$AAa?$AAt?$AA?5?$AAs?$AAp?$AAe?$AAc?$AAi?$AAf?$AAi?$AAe?$AAr?$AA?$CC?$AA?0?$AA?5?$AA0@ 2009abc8     LIBCMTD:outputp.obj
 0002:00008c10       ??_C@_1JC@PFJNKEIO@?$AA?$CI?$AA?$CI?$AAt?$AAy?$AAp?$AAe?$AA_?$AAp?$AAo?$AAs?$AA?5?$AA?$DO?$AA?$DN?$AA?5?$AA0?$AA?$CJ?$AA?5?$AA?$CG?$AA?$CG?$AA?5?$AA?$CI?$AA?$CK?$AAe?$AAn?$AAd?$AA_?$AAp?$AAo?$AAs?$AA?5?$AA?$DN?$AA?$DN@ 2009ac10     LIBCMTD:outputp.obj
 0002:00008ca4       ??_C@_1BI@KANOLAMF@?$AA_?$AAo?$AAu?$AAt?$AAp?$AAu?$AAt?$AA_?$AAp?$AA_?$AAl?$AA?$AA@ 2009aca4     LIBCMTD:outputp.obj
 0002:00008cbc       ??_C@_06PJIGMIJB@Client?$AA@ 2009acbc     LIBCMTD:dbgheap.obj
 0002:00008cc4       ??_C@_06KMEJCCGM@Ignore?$AA@ 2009acc4     LIBCMTD:dbgheap.obj
 0002:00008ccc       ??_C@_03OGPFLFLO@CRT?$AA@  2009accc     LIBCMTD:dbgheap.obj
 0002:00008cd0       ??_C@_06EFAGIKOH@Normal?$AA@ 2009acd0     LIBCMTD:dbgheap.obj
 0002:00008cd8       ??_C@_04HJMOFLDF@Free?$AA@ 2009acd8     LIBCMTD:dbgheap.obj
 0002:00008cf4       ??_C@_0DC@JEMAGEKG@Error?3?5memory?5allocation?3?5bad?5me@ 2009acf4     LIBCMTD:dbgheap.obj
 0002:00008d28       ??_C@_0CF@BICKFLAF@Invalid?5allocation?5size?3?5?$CFIu?5byt@ 2009ad28     LIBCMTD:dbgheap.obj
 0002:00008d50       ??_C@_0CB@CCLOLAHO@Client?5hook?5allocation?5failure?4?6@ 2009ad50     LIBCMTD:dbgheap.obj
 0002:00008d74       ??_C@_0DF@BBEGIFEK@Client?5hook?5allocation?5failure?5a@ 2009ad74     LIBCMTD:dbgheap.obj
 0002:00008db0       ??_C@_1GC@DNJKKEAA@?$AAf?$AA?3?$AA?2?$AAd?$AAd?$AA?2?$AAv?$AAc?$AAt?$AAo?$AAo?$AAl?$AAs?$AA?2?$AAc?$AAr?$AAt?$AA_?$AAb?$AAl?$AAd?$AA?2?$AAs?$AAe?$AAl?$AAf?$AA_?$AAx?$AA8?$AA6?$AA?2?$AAc@ 2009adb0     LIBCMTD:dbgheap.obj
 0002:00008e14       ??_C@_1CE@LJFEPPMP@?$AA_?$AAC?$AAr?$AAt?$AAC?$AAh?$AAe?$AAc?$AAk?$AAM?$AAe?$AAm?$AAo?$AAr?$AAy?$AA?$CI?$AA?$CJ?$AA?$AA@ 2009ae14     LIBCMTD:dbgheap.obj
 0002:00008e38       ??_C@_1DE@KOOKLFBB@?$AA_?$AAp?$AAF?$AAi?$AAr?$AAs?$AAt?$AAB?$AAl?$AAo?$AAc?$AAk?$AA?5?$AA?$DN?$AA?$DN?$AA?5?$AAp?$AAO?$AAl?$AAd?$AAB?$AAl?$AAo?$AAc?$AAk?$AA?$AA@ 2009ae38     LIBCMTD:dbgheap.obj
 0002:00008e6c       ??_C@_1DC@GEFKNOOL@?$AA_?$AAp?$AAL?$AAa?$AAs?$AAt?$AAB?$AAl?$AAo?$AAc?$AAk?$AA?5?$AA?$DN?$AA?$DN?$AA?5?$AAp?$AAO?$AAl?$AAd?$AAB?$AAl?$AAo?$AAc?$AAk?$AA?$AA@ 2009ae6c     LIBCMTD:dbgheap.obj
 0002:00008ea0       ??_C@_1GE@PCKLOLAO@?$AAf?$AAR?$AAe?$AAa?$AAl?$AAl?$AAo?$AAc?$AA?5?$AA?$HM?$AA?$HM?$AA?5?$AA?$CI?$AA?$CB?$AAf?$AAR?$AAe?$AAa?$AAl?$AAl?$AAo?$AAc?$AA?5?$AA?$CG?$AA?$CG?$AA?5?$AAp?$AAN?$AAe?$AAw?$AAB?$AAl@ 2009aea0     LIBCMTD:dbgheap.obj
 0002:00008f04       ??_C@_0DA@HFBKENN@Error?3?5possible?5heap?5corruption?5@ 2009af04     LIBCMTD:dbgheap.obj
 0002:00008f38       ??_C@_1IK@DCPKDGNH@?$AAp?$AAO?$AAl?$AAd?$AAB?$AAl?$AAo?$AAc?$AAk?$AA?9?$AA?$DO?$AAn?$AAL?$AAi?$AAn?$AAe?$AA?5?$AA?$DN?$AA?$DN?$AA?5?$AAI?$AAG?$AAN?$AAO?$AAR?$AAE?$AA_?$AAL?$AAI?$AAN?$AAE?$AA?5@ 2009af38     LIBCMTD:dbgheap.obj
 0002:00008fc8       ??_C@_1EE@GFOPCECE@?$AA_?$AAC?$AAr?$AAt?$AAI?$AAs?$AAV?$AAa?$AAl?$AAi?$AAd?$AAH?$AAe?$AAa?$AAp?$AAP?$AAo?$AAi?$AAn?$AAt?$AAe?$AAr?$AA?$CI?$AAp?$AAU?$AAs?$AAe?$AAr?$AAD?$AAa?$AAt?$AAa@ 2009afc8     LIBCMTD:dbgheap.obj
 0002:00009010       ??_C@_0EM@LGFLMAGJ@The?5Block?5at?50x?$CFp?5was?5allocated?5@ 2009b010     LIBCMTD:dbgheap.obj
 0002:00009060       ??_C@_0FA@EFEIGJKG@Error?3?5memory?5allocation?3?5bad?5me@ 2009b060     LIBCMTD:dbgheap.obj
 0002:000090b0       ??_C@_0ED@GPCPBAGP@Invalid?5allocation?5size?3?5?$CFIu?5byt@ 2009b0b0     LIBCMTD:dbgheap.obj
 0002:000090f4       ??_C@_0CE@DOFMDOL@Client?5hook?5re?9allocation?5failur@ 2009b0f4     LIBCMTD:dbgheap.obj
 0002:00009118       ??_C@_0DI@KKJPDPGM@Client?5hook?5re?9allocation?5failur@ 2009b118     LIBCMTD:dbgheap.obj
 0002:00009150       ??_C@_1BI@HAPNGHDP@?$AA_?$AAe?$AAx?$AAp?$AAa?$AAn?$AAd?$AA_?$AAd?$AAb?$AAg?$AA?$AA@ 2009b150     LIBCMTD:dbgheap.obj
 0002:00009168       ??_C@_1CE@CJACEFBA@?$AAp?$AAU?$AAs?$AAe?$AAr?$AAD?$AAa?$AAt?$AAa?$AA?5?$AA?$CB?$AA?$DN?$AA?5?$AAN?$AAU?$AAL?$AAL?$AA?$AA@ 2009b168     LIBCMTD:dbgheap.obj
 0002:0000918c       ??_C@_1CM@MMAADDMD@?$AA_?$AAp?$AAF?$AAi?$AAr?$AAs?$AAt?$AAB?$AAl?$AAo?$AAc?$AAk?$AA?5?$AA?$DN?$AA?$DN?$AA?5?$AAp?$AAH?$AAe?$AAa?$AAd?$AA?$AA@ 2009b18c     LIBCMTD:dbgheap.obj
 0002:000091b8       ??_C@_1CK@DMAGEMBG@?$AA_?$AAp?$AAL?$AAa?$AAs?$AAt?$AAB?$AAl?$AAo?$AAc?$AAk?$AA?5?$AA?$DN?$AA?$DN?$AA?5?$AAp?$AAH?$AAe?$AAa?$AAd?$AA?$AA@ 2009b1b8     LIBCMTD:dbgheap.obj
 0002:000091e4       ??_C@_1DM@ODCJIDCP@?$AAp?$AAH?$AAe?$AAa?$AAd?$AA?9?$AA?$DO?$AAn?$AAB?$AAl?$AAo?$AAc?$AAk?$AAU?$AAs?$AAe?$AA?5?$AA?$DN?$AA?$DN?$AA?5?$AAn?$AAB?$AAl?$AAo?$AAc?$AAk?$AAU?$AAs?$AAe?$AA?$AA@ 2009b1e4     LIBCMTD:dbgheap.obj
 0002:00009220       ??_C@_1HK@HPCBMDFG@?$AAp?$AAH?$AAe?$AAa?$AAd?$AA?9?$AA?$DO?$AAn?$AAL?$AAi?$AAn?$AAe?$AA?5?$AA?$DN?$AA?$DN?$AA?5?$AAI?$AAG?$AAN?$AAO?$AAR?$AAE?$AA_?$AAL?$AAI?$AAN?$AAE?$AA?5?$AA?$CG?$AA?$CG?$AA?5?$AAp@ 2009b220     LIBCMTD:dbgheap.obj
 0002:000092a0       ??_C@_0IG@LEMBDCJK@HEAP?5CORRUPTION?5DETECTED?3?5after?5@ 2009b2a0     LIBCMTD:dbgheap.obj
 0002:00009328       ??_C@_0KE@MBMNHHHN@HEAP?5CORRUPTION?5DETECTED?3?5after?5@ 2009b328     LIBCMTD:dbgheap.obj
 0002:000093d0       ??_C@_0IK@PJCGLBOB@HEAP?5CORRUPTION?5DETECTED?3?5before@ 2009b3d0     LIBCMTD:dbgheap.obj
 0002:00009460       ??_C@_0KI@JGFOHMEB@HEAP?5CORRUPTION?5DETECTED?3?5before@ 2009b460     LIBCMTD:dbgheap.obj
 0002:00009508       ??_C@_1EO@LHDAJOCM@?$AA_?$AAB?$AAL?$AAO?$AAC?$AAK?$AA_?$AAT?$AAY?$AAP?$AAE?$AA_?$AAI?$AAS?$AA_?$AAV?$AAA?$AAL?$AAI?$AAD?$AA?$CI?$AAp?$AAH?$AAe?$AAa?$AAd?$AA?9?$AA?$DO?$AAn?$AAB?$AAl?$AAo@ 2009b508     LIBCMTD:dbgheap.obj
 0002:00009558       ??_C@_0BL@KEIPLFAC@Client?5hook?5free?5failure?4?6?$AA@ 2009b558     LIBCMTD:dbgheap.obj
 0002:00009578       ??_C@_0EJ@HEIBCIMJ@The?5Block?5at?50x?$CFp?5was?5allocated?5@ 2009b578     LIBCMTD:dbgheap.obj
 0002:000095c4       ??_C@_1BG@MBKOGDLD@?$AA_?$AAm?$AAs?$AAi?$AAz?$AAe?$AA_?$AAd?$AAb?$AAg?$AA?$AA@ 2009b5c4     LIBCMTD:dbgheap.obj
 0002:000095dc       ??_C@_0CI@JMLBEDHJ@?$CFhs?5located?5at?50x?$CFp?5is?5?$CFIu?5bytes@ 2009b5dc     LIBCMTD:dbgheap.obj
 0002:00009608       ??_C@_0EG@DGJMPDBH@?$CFhs?5located?5at?50x?$CFp?5is?5?$CFIu?5bytes@ 2009b608     LIBCMTD:dbgheap.obj
 0002:00009650       ??_C@_0IC@BBJIOOJH@HEAP?5CORRUPTION?5DETECTED?3?5on?5top@ 2009b650     LIBCMTD:dbgheap.obj
 0002:000096d8       ??_C@_0KA@IHNJJKPL@HEAP?5CORRUPTION?5DETECTED?3?5on?5top@ 2009b6d8     LIBCMTD:dbgheap.obj
 0002:00009778       ??_C@_07OHKEFPKJ@DAMAGED?$AA@ 2009b778     LIBCMTD:dbgheap.obj
 0002:00009780       ??_C@_0CL@HNNNMKMJ@_heapchk?5fails?5with?5unknown?5retu@ 2009b780     LIBCMTD:dbgheap.obj
 0002:000097ac       ??_C@_0CC@MFFCHFHO@_heapchk?5fails?5with?5_HEAPBADPTR?4@ 2009b7ac     LIBCMTD:dbgheap.obj
 0002:000097d0       ??_C@_0CC@MJGLGBDG@_heapchk?5fails?5with?5_HEAPBADEND?4@ 2009b7d0     LIBCMTD:dbgheap.obj
 0002:000097f4       ??_C@_0CD@CPKEAPBD@_heapchk?5fails?5with?5_HEAPBADNODE@ 2009b7f4     LIBCMTD:dbgheap.obj
 0002:00009818       ??_C@_0CE@MKKHMBMK@_heapchk?5fails?5with?5_HEAPBADBEGI@ 2009b818     LIBCMTD:dbgheap.obj
 0002:0000983c       ??_C@_1BO@GJFDNMNF@?$AA_?$AAC?$AAr?$AAt?$AAS?$AAe?$AAt?$AAD?$AAb?$AAg?$AAF?$AAl?$AAa?$AAg?$AA?$AA@ 2009b83c     LIBCMTD:dbgheap.obj
 0002:00009860       ??_C@_1BHO@NNANJNF@?$AA?$CI?$AAf?$AAN?$AAe?$AAw?$AAB?$AAi?$AAt?$AAs?$AA?$DN?$AA?$DN?$AA_?$AAC?$AAR?$AAT?$AAD?$AAB?$AAG?$AA_?$AAR?$AAE?$AAP?$AAO?$AAR?$AAT?$AA_?$AAF?$AAL?$AAA?$AAG?$AA?$CJ?$AA?5@ 2009b860     LIBCMTD:dbgheap.obj
 0002:000099e0       ??_C@_1DE@GJCKCKEC@?$AA_?$AAC?$AAr?$AAt?$AAD?$AAo?$AAF?$AAo?$AAr?$AAA?$AAl?$AAl?$AAC?$AAl?$AAi?$AAe?$AAn?$AAt?$AAO?$AAb?$AAj?$AAe?$AAc?$AAt?$AAs?$AA?$AA@ 2009b9e0     LIBCMTD:dbgheap.obj
 0002:00009a14       ??_C@_1BI@CJGCEEDL@?$AAp?$AAf?$AAn?$AA?5?$AA?$CB?$AA?$DN?$AA?5?$AAN?$AAU?$AAL?$AAL?$AA?$AA@ 2009ba14     LIBCMTD:dbgheap.obj
 0002:00009a2c       ??_C@_0CB@EAAIGELO@Bad?5memory?5block?5found?5at?50x?$CFp?4?6@ 2009ba2c     LIBCMTD:dbgheap.obj
 0002:00009a50       ??_C@_0DP@LEFMFBOD@Bad?5memory?5block?5found?5at?50x?$CFp?4?6@ 2009ba50     LIBCMTD:dbgheap.obj
 0002:00009a90       ??_C@_1CE@NJJKELF@?$AA_?$AAC?$AAr?$AAt?$AAM?$AAe?$AAm?$AAC?$AAh?$AAe?$AAc?$AAk?$AAp?$AAo?$AAi?$AAn?$AAt?$AA?$AA@ 2009ba90     LIBCMTD:dbgheap.obj
 0002:00009ab4       ??_C@_1BM@MIMANDHC@?$AAs?$AAt?$AAa?$AAt?$AAe?$AA?5?$AA?$CB?$AA?$DN?$AA?5?$AAN?$AAU?$AAL?$AAL?$AA?$AA@ 2009bab4     LIBCMTD:dbgheap.obj
 0002:00009ad0       ??_C@_1CC@DFPEDFBP@?$AAn?$AAe?$AAw?$AAS?$AAt?$AAa?$AAt?$AAe?$AA?5?$AA?$CB?$AA?$DN?$AA?5?$AAN?$AAU?$AAL?$AAL?$AA?$AA@ 2009bad0     LIBCMTD:dbgheap.obj
 0002:00009af4       ??_C@_1CC@DHPFEMMN@?$AAo?$AAl?$AAd?$AAS?$AAt?$AAa?$AAt?$AAe?$AA?5?$AA?$CB?$AA?$DN?$AA?5?$AAN?$AAU?$AAL?$AAL?$AA?$AA@ 2009baf4     LIBCMTD:dbgheap.obj
 0002:00009b18       ??_C@_1CE@PDIENACM@?$AA_?$AAC?$AAr?$AAt?$AAM?$AAe?$AAm?$AAD?$AAi?$AAf?$AAf?$AAe?$AAr?$AAe?$AAn?$AAc?$AAe?$AA?$AA@ 2009bb18     LIBCMTD:dbgheap.obj
 0002:00009b3c       ??_C@_0BH@GFGKJDCO@Object?5dump?5complete?4?6?$AA@ 2009bb3c     LIBCMTD:dbgheap.obj
 0002:00009b54       ??_C@_0DA@MDLBNIBM@crt?5block?5at?50x?$CFp?0?5subtype?5?$CFx?0?5?$CF@ 2009bb54     LIBCMTD:dbgheap.obj
 0002:00009b84       ??_C@_0CH@FAGDDGPN@normal?5block?5at?50x?$CFp?0?5?$CFIu?5bytes?5@ 2009bb84     LIBCMTD:dbgheap.obj
 0002:00009bac       ??_C@_0DD@GHNAAKBB@client?5block?5at?50x?$CFp?0?5subtype?5?$CFx@ 2009bbac     LIBCMTD:dbgheap.obj
 0002:00009be0       ??_C@_06PKLGBFGM@?$HL?$CFld?$HN?5?$AA@ 2009bbe0     LIBCMTD:dbgheap.obj
 0002:00009be8       ??_C@_0L@JMEFFCCJ@?$CFhs?$CI?$CFd?$CJ?5?3?5?$AA@ 2009bbe8     LIBCMTD:dbgheap.obj
 0002:00009bf4       ??_C@_0BE@OIEFNFL@?$CDFile?5Error?$CD?$CI?$CFd?$CJ?5?3?5?$AA@ 2009bbf4     LIBCMTD:dbgheap.obj
 0002:00009c08       ??_C@_0BE@KCIPKCIA@Dumping?5objects?5?9?$DO?6?$AA@ 2009bc08     LIBCMTD:dbgheap.obj
 0002:00009c1c       ??_C@_0BA@HJBKCELP@?5Data?3?5?$DM?$CFs?$DO?5?$CFs?6?$AA@ 2009bc1c     LIBCMTD:dbgheap.obj
 0002:00009c2c       ??_C@_1CG@LPFIACGM@?$AA_?$AAp?$AAr?$AAi?$AAn?$AAt?$AAM?$AAe?$AAm?$AAB?$AAl?$AAo?$AAc?$AAk?$AAD?$AAa?$AAt?$AAa?$AA?$AA@ 2009bc2c     LIBCMTD:dbgheap.obj
 0002:00009c54       ??_C@_05MKKEDADM@?$CF?42X?5?$AA@ 2009bc54     LIBCMTD:dbgheap.obj
 0002:00009c5c       ??_C@_0BI@JBFPOEJA@Detected?5memory?5leaks?$CB?6?$AA@ 2009bc5c     LIBCMTD:dbgheap.obj
 0002:00009c74       ??_C@_0BP@DEDHGGGI@Total?5allocations?3?5?$CFId?5bytes?4?6?$AA@ 2009bc74     LIBCMTD:dbgheap.obj
 0002:00009c94       ??_C@_0CB@BLHDAFNE@Largest?5number?5used?3?5?$CFId?5bytes?4?6@ 2009bc94     LIBCMTD:dbgheap.obj
 0002:00009cb8       ??_C@_0BO@DACNIABB@?$CFId?5bytes?5in?5?$CFId?5?$CFhs?5Blocks?4?6?$AA@ 2009bcb8     LIBCMTD:dbgheap.obj
 0002:00009cd8       ??_C@_1CM@MPNIBKGK@?$AA_?$AAC?$AAr?$AAt?$AAM?$AAe?$AAm?$AAD?$AAu?$AAm?$AAp?$AAS?$AAt?$AAa?$AAt?$AAi?$AAs?$AAt?$AAi?$AAc?$AAs?$AA?$AA@ 2009bcd8     LIBCMTD:dbgheap.obj
 0002:00009d04       ??_C@_1DK@LFLKFPDA@?$AAo?$AAf?$AAf?$AAs?$AAe?$AAt?$AA?5?$AA?$DN?$AA?$DN?$AA?5?$AA0?$AA?5?$AA?$HM?$AA?$HM?$AA?5?$AAo?$AAf?$AAf?$AAs?$AAe?$AAt?$AA?5?$AA?$DM?$AA?5?$AAs?$AAi?$AAz?$AAe?$AA?$AA@ 2009bd04     LIBCMTD:dbgheap.obj
 0002:00009d40       ??_C@_1DG@DONCJBBJ@?$AA_?$AAa?$AAl?$AAi?$AAg?$AAn?$AAe?$AAd?$AA_?$AAo?$AAf?$AAf?$AAs?$AAe?$AAt?$AA_?$AAm?$AAa?$AAl?$AAl?$AAo?$AAc?$AA_?$AAd?$AAb?$AAg?$AA?$AA@ 2009bd40     LIBCMTD:dbgheap.obj
 0002:00009d78       ??_C@_1CE@NPMGPNNP@?$AAI?$AAS?$AA_?$AA2?$AA_?$AAP?$AAO?$AAW?$AA_?$AAN?$AA?$CI?$AAa?$AAl?$AAi?$AAg?$AAn?$AA?$CJ?$AA?$AA@ 2009bd78     LIBCMTD:dbgheap.obj
 0002:00009d9c       ??_C@_1DI@NINIKFFK@?$AA_?$AAa?$AAl?$AAi?$AAg?$AAn?$AAe?$AAd?$AA_?$AAo?$AAf?$AAf?$AAs?$AAe?$AAt?$AA_?$AAr?$AAe?$AAa?$AAl?$AAl?$AAo?$AAc?$AA_?$AAd?$AAb?$AAg?$AA?$AA@ 2009bd9c     LIBCMTD:dbgheap.obj
 0002:00009dd4       ??_C@_0DL@PGHMMKNE@Damage?5before?50x?$CFp?5which?5was?5all@ 2009bdd4     LIBCMTD:dbgheap.obj
 0002:00009e10       ??_C@_0EI@NDNJMAJK@The?5block?5at?50x?$CFp?5was?5not?5alloca@ 2009be10     LIBCMTD:dbgheap.obj
 0002:00009e58       ??_C@_0EF@PGELACII@The?5block?5at?50x?$CFp?5was?5not?5alloca@ 2009be58     LIBCMTD:dbgheap.obj
 0002:00009ea0       ??_C@_1CG@CEGMHIMN@?$AA_?$AAa?$AAl?$AAi?$AAg?$AAn?$AAe?$AAd?$AA_?$AAm?$AAs?$AAi?$AAz?$AAe?$AA_?$AAd?$AAb?$AAg?$AA?$AA@ 2009bea0     LIBCMTD:dbgheap.obj
 0002:00009ec8       ??_C@_1CC@MOBIKHH@?$AAm?$AAe?$AAm?$AAb?$AAl?$AAo?$AAc?$AAk?$AA?5?$AA?$CB?$AA?$DN?$AA?5?$AAN?$AAU?$AAL?$AAL?$AA?$AA@ 2009bec8     LIBCMTD:dbgheap.obj
 0002:00009ef0       ??_C@_1EA@GEPBEDLJ@?$AAs?$AAt?$AAr?$AAn?$AAc?$AAp?$AAy?$AA_?$AAs?$AA?$CI?$AAt?$AAz?$AAn?$AAa?$AAm?$AAe?$AA?$FL?$AA1?$AA?$FN?$AA?0?$AA?5?$AA6?$AA4?$AA?0?$AA?5?$AAT?$AAZ?$AA?0?$AA?5?$AA3?$AA?$CJ?$AA?$AA@ 2009bef0     LIBCMTD:tzset.obj
 0002:00009f30       ??_C@_1EA@FIJBKALB@?$AAs?$AAt?$AAr?$AAn?$AAc?$AAp?$AAy?$AA_?$AAs?$AA?$CI?$AAt?$AAz?$AAn?$AAa?$AAm?$AAe?$AA?$FL?$AA0?$AA?$FN?$AA?0?$AA?5?$AA6?$AA4?$AA?0?$AA?5?$AAT?$AAZ?$AA?0?$AA?5?$AA3?$AA?$CJ?$AA?$AA@ 2009bf30     LIBCMTD:tzset.obj
 0002:00009f70       ??_C@_1EK@MCAIMDPB@?$AAs?$AAt?$AAr?$AAc?$AAp?$AAy?$AA_?$AAs?$AA?$CI?$AAl?$AAa?$AAs?$AAt?$AAT?$AAZ?$AA?0?$AA?5?$AAs?$AAt?$AAr?$AAl?$AAe?$AAn?$AA?$CI?$AAT?$AAZ?$AA?$CJ?$AA?5?$AA?$CL?$AA?5?$AA1?$AA?0@ 2009bf70     LIBCMTD:tzset.obj
 0002:00009fbc       ??_C@_0CP@FODJBIFF@f?3?2dd?2vctools?2crt_bld?2self_x86?2c@ 2009bfbc     LIBCMTD:tzset.obj
 0002:00009fec       ??_C@_02CLFPBFFP@TZ?$AA@   2009bfec     LIBCMTD:tzset.obj
 0002:00009ff0       ??_C@_1BM@IIODHMJC@?$AA_?$AAt?$AAz?$AAs?$AAe?$AAt?$AA_?$AAn?$AAo?$AAl?$AAo?$AAc?$AAk?$AA?$AA@ 2009bff0     LIBCMTD:tzset.obj
 0002:0000a010       ??_C@_1FO@MLHAIHAB@?$AAf?$AA?3?$AA?2?$AAd?$AAd?$AA?2?$AAv?$AAc?$AAt?$AAo?$AAo?$AAl?$AAs?$AA?2?$AAc?$AAr?$AAt?$AA_?$AAb?$AAl?$AAd?$AA?2?$AAs?$AAe?$AAl?$AAf?$AA_?$AAx?$AA8?$AA6?$AA?2?$AAc@ 2009c010     LIBCMTD:tzset.obj
 0002:0000a070       ??_C@_1CA@GOLIIEDM@?$AA_?$AAi?$AAs?$AAi?$AAn?$AAd?$AAs?$AAt?$AA_?$AAn?$AAo?$AAl?$AAo?$AAc?$AAk?$AA?$AA@ 2009c070     LIBCMTD:tzset.obj
 0002:0000a090       ??_C@_1BA@GOCKIDGO@?$AAc?$AAv?$AAt?$AAd?$AAa?$AAt?$AAe?$AA?$AA@ 2009c090     LIBCMTD:tzset.obj
 0002:0000a0a0       ??_C@_1CC@FPMHPAM@?$AA?$CI?$AA?5?$AAt?$AAi?$AAm?$AAp?$AA?5?$AA?$CB?$AA?$DN?$AA?5?$AAN?$AAU?$AAL?$AAL?$AA?5?$AA?$CJ?$AA?$AA@ 2009c0a0     LIBCMTD:gmtime64.obj
 0002:0000a0c4       ??_C@_1BI@BFNFPMLP@?$AA_?$AAg?$AAm?$AAt?$AAi?$AAm?$AAe?$AA6?$AA4?$AA_?$AAs?$AA?$AA@ 2009c0c4     LIBCMTD:gmtime64.obj
 0002:0000a0e0       ??_C@_1GE@CKMEKJPD@?$AAf?$AA?3?$AA?2?$AAd?$AAd?$AA?2?$AAv?$AAc?$AAt?$AAo?$AAo?$AAl?$AAs?$AA?2?$AAc?$AAr?$AAt?$AA_?$AAb?$AAl?$AAd?$AA?2?$AAs?$AAe?$AAl?$AAf?$AA_?$AAx?$AA8?$AA6?$AA?2?$AAc@ 2009c0e0     LIBCMTD:gmtime64.obj
 0002:0000a144       ___dnames                  2009c144     LIBCMTD:timeset.obj
 0002:0000a15c       ___mnames                  2009c15c     LIBCMTD:timeset.obj
 0002:0000a184       ??_C@_1BM@FIMHBHEB@?$AA_?$AAg?$AAe?$AAt?$AA_?$AAd?$AAa?$AAy?$AAl?$AAi?$AAg?$AAh?$AAt?$AA?$AA@ 2009c184     LIBCMTD:timeset.obj
 0002:0000a1a0       ??_C@_1GC@NEGFAKA@?$AAf?$AA?3?$AA?2?$AAd?$AAd?$AA?2?$AAv?$AAc?$AAt?$AAo?$AAo?$AAl?$AAs?$AA?2?$AAc?$AAr?$AAt?$AA_?$AAb?$AAl?$AAd?$AA?2?$AAs?$AAe?$AAl?$AAf?$AA_?$AAx?$AA8?$AA6?$AA?2?$AAc@ 2009c1a0     LIBCMTD:timeset.obj
 0002:0000a204       ??_C@_1CI@MKJEHFPG@?$AA?$CI?$AA_?$AAD?$AAa?$AAy?$AAl?$AAi?$AAg?$AAh?$AAt?$AA?5?$AA?$CB?$AA?$DN?$AA?5?$AAN?$AAU?$AAL?$AAL?$AA?$CJ?$AA?$AA@ 2009c204     LIBCMTD:timeset.obj
 0002:0000a22c       ??_C@_1BK@EMODDHEE@?$AA_?$AAg?$AAe?$AAt?$AA_?$AAd?$AAs?$AAt?$AAb?$AAi?$AAa?$AAs?$AA?$AA@ 2009c22c     LIBCMTD:timeset.obj
 0002:0000a248       ??_C@_1EC@PKDJPAAB@?$AA?$CI?$AA_?$AAD?$AAa?$AAy?$AAl?$AAi?$AAg?$AAh?$AAt?$AA_?$AAs?$AAa?$AAv?$AAi?$AAn?$AAg?$AAs?$AA_?$AAb?$AAi?$AAa?$AAs?$AA?5?$AA?$CB?$AA?$DN?$AA?5?$AAN?$AAU?$AAL?$AAL?$AA?$CJ@ 2009c248     LIBCMTD:timeset.obj
 0002:0000a28c       ??_C@_1BM@MGEAKPEJ@?$AA_?$AAg?$AAe?$AAt?$AA_?$AAt?$AAi?$AAm?$AAe?$AAz?$AAo?$AAn?$AAe?$AA?$AA@ 2009c28c     LIBCMTD:timeset.obj
 0002:0000a2a8       ??_C@_1CI@PODJJGAL@?$AA?$CI?$AA_?$AAT?$AAi?$AAm?$AAe?$AAz?$AAo?$AAn?$AAe?$AA?5?$AA?$CB?$AA?$DN?$AA?5?$AAN?$AAU?$AAL?$AAL?$AA?$CJ?$AA?$AA@ 2009c2a8     LIBCMTD:timeset.obj
 0002:0000a2d0       ??_C@_1DG@HLGKANIP@?$AA_?$AAI?$AAn?$AAd?$AAe?$AAx?$AA?5?$AA?$DN?$AA?$DN?$AA?5?$AA0?$AA?5?$AA?$HM?$AA?$HM?$AA?5?$AA_?$AAI?$AAn?$AAd?$AAe?$AAx?$AA?5?$AA?$DN?$AA?$DN?$AA?5?$AA1?$AA?$AA@ 2009c2d0     LIBCMTD:timeset.obj
 0002:0000a308       ??_C@_1CK@GBKHKEI@?$AA_?$AAR?$AAe?$AAt?$AAu?$AAr?$AAn?$AAV?$AAa?$AAl?$AAu?$AAe?$AA?5?$AA?$CB?$AA?$DN?$AA?5?$AAN?$AAU?$AAL?$AAL?$AA?$AA@ 2009c308     LIBCMTD:timeset.obj
 0002:0000a334       ??_C@_1BI@BHCKCCFA@?$AA_?$AAg?$AAe?$AAt?$AA_?$AAt?$AAz?$AAn?$AAa?$AAm?$AAe?$AA?$AA@ 2009c334     LIBCMTD:timeset.obj
 0002:0000a350       ??_C@_1KA@POFLNEC@?$AA?$CI?$AA_?$AAB?$AAu?$AAf?$AAf?$AAe?$AAr?$AA?5?$AA?$CB?$AA?$DN?$AA?5?$AAN?$AAU?$AAL?$AAL?$AA?5?$AA?$CG?$AA?$CG?$AA?5?$AA_?$AAS?$AAi?$AAz?$AAe?$AAI?$AAn?$AAB?$AAy?$AAt?$AAe?$AAs@ 2009c350     LIBCMTD:timeset.obj
 0002:0000a3f0       ??_C@_1BI@DFJDDOHM@?$AA_?$AAg?$AAm?$AAt?$AAi?$AAm?$AAe?$AA3?$AA2?$AA_?$AAs?$AA?$AA@ 2009c3f0     LIBCMTD:gmtime.obj
 0002:0000a408       ??_C@_1GA@OAOCHJKE@?$AAf?$AA?3?$AA?2?$AAd?$AAd?$AA?2?$AAv?$AAc?$AAt?$AAo?$AAo?$AAl?$AAs?$AA?2?$AAc?$AAr?$AAt?$AA_?$AAb?$AAl?$AAd?$AA?2?$AAs?$AAe?$AAl?$AAf?$AA_?$AAx?$AA8?$AA6?$AA?2?$AAc@ 2009c408     LIBCMTD:gmtime.obj
 0002:0000a468       ??_C@_0DA@FNHOCICI@f?3?2dd?2vctools?2crt_bld?2self_x86?2c@ 2009c468     LIBCMTD:gmtime.obj
 0002:0000a498       ??_C@_0CP@BNKDODJJ@f?3?2dd?2vctools?2crt_bld?2self_x86?2c@ 2009c498     LIBCMTD:_file.obj
 0002:0000a4c8       ??_C@_1JE@ECKHFIFP@?$AA?$CI?$AA?$CC?$AAI?$AAn?$AAv?$AAa?$AAl?$AAi?$AAd?$AA?5?$AAf?$AAi?$AAl?$AAe?$AA?5?$AAd?$AAe?$AAs?$AAc?$AAr?$AAi?$AAp?$AAt?$AAo?$AAr?$AA?4?$AA?5?$AAF?$AAi?$AAl?$AAe?$AA?5@ 2009c4c8     LIBCMTD:write.obj
 0002:0000a55c       ??_C@_1CM@OKGMMMDH@?$AA?$CI?$AA_?$AAo?$AAs?$AAf?$AAi?$AAl?$AAe?$AA?$CI?$AAf?$AAh?$AA?$CJ?$AA?5?$AA?$CG?$AA?5?$AAF?$AAO?$AAP?$AAE?$AAN?$AA?$CJ?$AA?$AA@ 2009c55c     LIBCMTD:write.obj
 0002:0000a588       ??_C@_1O@KOFKDHPL@?$AA_?$AAw?$AAr?$AAi?$AAt?$AAe?$AA?$AA@ 2009c588     LIBCMTD:write.obj
 0002:0000a598       ??_C@_1FO@EPLDPDDL@?$AAf?$AA?3?$AA?2?$AAd?$AAd?$AA?2?$AAv?$AAc?$AAt?$AAo?$AAo?$AAl?$AAs?$AA?2?$AAc?$AAr?$AAt?$AA_?$AAb?$AAl?$AAd?$AA?2?$AAs?$AAe?$AAl?$AAf?$AA_?$AAx?$AA8?$AA6?$AA?2?$AAc@ 2009c598     LIBCMTD:write.obj
 0002:0000a5f8       ??_C@_1FO@LPCLHKGE@?$AA?$CI?$AAf?$AAh?$AA?5?$AA?$DO?$AA?$DN?$AA?5?$AA0?$AA?5?$AA?$CG?$AA?$CG?$AA?5?$AA?$CI?$AAu?$AAn?$AAs?$AAi?$AAg?$AAn?$AAe?$AAd?$AA?$CJ?$AAf?$AAh?$AA?5?$AA?$DM?$AA?5?$AA?$CI?$AAu?$AAn?$AAs?$AAi@ 2009c5f8     LIBCMTD:write.obj
 0002:0000a658       ??_C@_1DI@CNMHHHLG@?$AAi?$AAs?$AAl?$AAe?$AAa?$AAd?$AAb?$AAy?$AAt?$AAe?$AA?$CI?$AA_?$AAd?$AAb?$AAc?$AAs?$AAB?$AAu?$AAf?$AAf?$AAe?$AAr?$AA?$CI?$AAf?$AAh?$AA?$CJ?$AA?$CJ?$AA?$AA@ 2009c658     LIBCMTD:write.obj
 0002:0000a690       ??_C@_1CC@EEOLPHGO@?$AA?$CI?$AA?$CI?$AAc?$AAn?$AAt?$AA?5?$AA?$CG?$AA?5?$AA1?$AA?$CJ?$AA?5?$AA?$DN?$AA?$DN?$AA?5?$AA0?$AA?$CJ?$AA?$AA@ 2009c690     LIBCMTD:write.obj
 0002:0000a6b4       ??_C@_1BM@NCANHCIP@?$AA_?$AAw?$AAr?$AAi?$AAt?$AAe?$AA_?$AAn?$AAo?$AAl?$AAo?$AAc?$AAk?$AA?$AA@ 2009c6b4     LIBCMTD:write.obj
 0002:0000a6d0       ??_C@_1BM@KFJLMBPG@?$AA?$CI?$AAb?$AAu?$AAf?$AA?5?$AA?$CB?$AA?$DN?$AA?5?$AAN?$AAU?$AAL?$AAL?$AA?$CJ?$AA?$AA@ 2009c6d0     LIBCMTD:write.obj
 0002:0000a6ec       ??_C@_1BA@JGHIEKKM@?$AA_?$AAf?$AAi?$AAl?$AAe?$AAn?$AAo?$AA?$AA@ 2009c6ec     LIBCMTD:fileno.obj
 0002:0000a700       ??_C@_1GA@PBJHELNC@?$AAf?$AA?3?$AA?2?$AAd?$AAd?$AA?2?$AAv?$AAc?$AAt?$AAo?$AAo?$AAl?$AAs?$AA?2?$AAc?$AAr?$AAt?$AA_?$AAb?$AAl?$AAd?$AA?2?$AAs?$AAe?$AAl?$AAf?$AA_?$AAx?$AA8?$AA6?$AA?2?$AAc@ 2009c700     LIBCMTD:fileno.obj
 0002:0000a760       ??_C@_1BA@IIKEPOGH@?$AA_?$AAf?$AAi?$AAl?$AAb?$AAu?$AAf?$AA?$AA@ 2009c760     LIBCMTD:_filbuf.obj
 0002:0000a770       ??_C@_1GC@CHFNJKFB@?$AAf?$AA?3?$AA?2?$AAd?$AAd?$AA?2?$AAv?$AAc?$AAt?$AAo?$AAo?$AAl?$AAs?$AA?2?$AAc?$AAr?$AAt?$AA_?$AAb?$AAl?$AAd?$AA?2?$AAs?$AAe?$AAl?$AAf?$AA_?$AAx?$AA8?$AA6?$AA?2?$AAc@ 2009c770     LIBCMTD:_filbuf.obj
 0002:0000a7d4       ??_C@_1CC@HBLPFNKH@?$AA?$CI?$AAc?$AAn?$AAt?$AA?5?$AA?$DM?$AA?$DN?$AA?5?$AAI?$AAN?$AAT?$AA_?$AAM?$AAA?$AAX?$AA?$CJ?$AA?$AA@ 2009c7d4     LIBCMTD:read.obj
 0002:0000a7f8       ??_C@_1M@NHJOLLDM@?$AA_?$AAr?$AAe?$AAa?$AAd?$AA?$AA@ 2009c7f8     LIBCMTD:read.obj
 0002:0000a808       ??_C@_1FM@NGICBHLO@?$AAf?$AA?3?$AA?2?$AAd?$AAd?$AA?2?$AAv?$AAc?$AAt?$AAo?$AAo?$AAl?$AAs?$AA?2?$AAc?$AAr?$AAt?$AA_?$AAb?$AAl?$AAd?$AA?2?$AAs?$AAe?$AAl?$AAf?$AA_?$AAx?$AA8?$AA6?$AA?2?$AAc@ 2009c808     LIBCMTD:read.obj
 0002:0000a864       ??_C@_0CO@CEGKNHEH@f?3?2dd?2vctools?2crt_bld?2self_x86?2c@ 2009c864     LIBCMTD:read.obj
 0002:0000a894       ??_C@_1CG@OHLJHGGK@?$AA?$CI?$AAi?$AAn?$AAp?$AAu?$AAt?$AAb?$AAu?$AAf?$AA?5?$AA?$CB?$AA?$DN?$AA?5?$AAN?$AAU?$AAL?$AAL?$AA?$CJ?$AA?$AA@ 2009c894     LIBCMTD:read.obj
 0002:0000a8bc       ??_C@_1BK@JJBHNDKJ@?$AA_?$AAr?$AAe?$AAa?$AAd?$AA_?$AAn?$AAo?$AAl?$AAo?$AAc?$AAk?$AA?$AA@ 2009c8bc     LIBCMTD:read.obj
 0002:0000a8d8       ??_C@_1CK@DDKKOLAN@?$AAs?$AAi?$AAz?$AAe?$AAI?$AAn?$AAB?$AAy?$AAt?$AAe?$AAs?$AA?5?$AA?$DO?$AA?$DN?$AA?5?$AAc?$AAo?$AAu?$AAn?$AAt?$AA?$AA@ 2009c8d8     LIBCMTD:memcpy_s.obj
 0002:0000a904       ??_C@_1BC@GKHDJMGB@?$AAm?$AAe?$AAm?$AAc?$AAp?$AAy?$AA_?$AAs?$AA?$AA@ 2009c904     LIBCMTD:memcpy_s.obj
 0002:0000a918       ??_C@_1GE@NEOPGGBM@?$AAf?$AA?3?$AA?2?$AAd?$AAd?$AA?2?$AAv?$AAc?$AAt?$AAo?$AAo?$AAl?$AAs?$AA?2?$AAc?$AAr?$AAt?$AA_?$AAb?$AAl?$AAd?$AA?2?$AAs?$AAe?$AAl?$AAf?$AA_?$AAx?$AA8?$AA6?$AA?2?$AAc@ 2009c918     LIBCMTD:memcpy_s.obj
 0002:0000a97c       ??_C@_1O@EDEJGJBM@?$AA_?$AAc?$AAl?$AAo?$AAs?$AAe?$AA?$AA@ 2009c97c     LIBCMTD:close.obj
 0002:0000a990       ??_C@_1FO@NNGNFGFH@?$AAf?$AA?3?$AA?2?$AAd?$AAd?$AA?2?$AAv?$AAc?$AAt?$AAo?$AAo?$AAl?$AAs?$AA?2?$AAc?$AAr?$AAt?$AA_?$AAb?$AAl?$AAd?$AA?2?$AAs?$AAe?$AAl?$AAf?$AA_?$AAx?$AA8?$AA6?$AA?2?$AAc@ 2009c990     LIBCMTD:close.obj
 0002:0000a9f0       ??_C@_1GE@MIMBMOF@?$AAf?$AA?3?$AA?2?$AAd?$AAd?$AA?2?$AAv?$AAc?$AAt?$AAo?$AAo?$AAl?$AAs?$AA?2?$AAc?$AAr?$AAt?$AA_?$AAb?$AAl?$AAd?$AA?2?$AAs?$AAe?$AAl?$AAf?$AA_?$AAx?$AA8?$AA6?$AA?2?$AAc@ 2009c9f0     LIBCMTD:_freebuf.obj
 0002:0000aa54       ??_C@_1BO@KIJENGPH@?$AAs?$AAt?$AAr?$AAe?$AAa?$AAm?$AA?5?$AA?$CB?$AA?$DN?$AA?5?$AAN?$AAU?$AAL?$AAL?$AA?$AA@ 2009ca54     LIBCMTD:_freebuf.obj
 0002:0000aa94       ??_C@_1CI@KEDPFCAL@?$AA?$CI?$AA?$CK?$AAm?$AAo?$AAd?$AAe?$AA?5?$AA?$DN?$AA?$DN?$AA?5?$AA_?$AAT?$AA?$CI?$AA?8?$AA?2?$AA0?$AA?8?$AA?$CJ?$AA?$CJ?$AA?$AA@ 2009ca94     LIBCMTD:_open.obj
 0002:0000aabc       ??_C@_1BE@DONHJJKE@?$AA_?$AAo?$AAp?$AAe?$AAn?$AAf?$AAi?$AAl?$AAe?$AA?$AA@ 2009cabc     LIBCMTD:_open.obj
 0002:0000aad0       ??_C@_1DK@PKMJBLLN@?$AA?$CI?$AA?$CC?$AAI?$AAn?$AAv?$AAa?$AAl?$AAi?$AAd?$AA?5?$AAf?$AAi?$AAl?$AAe?$AA?5?$AAo?$AAp?$AAe?$AAn?$AA?5?$AAm?$AAo?$AAd?$AAe?$AA?$CC?$AA?0?$AA0?$AA?$CJ?$AA?$AA@ 2009cad0     LIBCMTD:_open.obj
 0002:0000ab0c       ??_C@_1BK@HGLMNMEC@?$AAm?$AAo?$AAd?$AAe?$AA?5?$AA?$CB?$AA?$DN?$AA?5?$AAN?$AAU?$AAL?$AAL?$AA?$AA@ 2009cb0c     LIBCMTD:_open.obj
 0002:0000ab28       ??_C@_1FO@POGAHKND@?$AAf?$AA?3?$AA?2?$AAd?$AAd?$AA?2?$AAv?$AAc?$AAt?$AAo?$AAo?$AAl?$AAs?$AA?2?$AAc?$AAr?$AAt?$AA_?$AAb?$AAl?$AAd?$AA?2?$AAs?$AAe?$AAl?$AAf?$AA_?$AAx?$AA8?$AA6?$AA?2?$AAc@ 2009cb28     LIBCMTD:_open.obj
 0002:0000ab88       ??_C@_1CC@JBMDNKJP@?$AAf?$AAi?$AAl?$AAe?$AAn?$AAa?$AAm?$AAe?$AA?5?$AA?$CB?$AA?$DN?$AA?5?$AAN?$AAU?$AAL?$AAL?$AA?$AA@ 2009cb88     LIBCMTD:_open.obj
 0002:0000abac       ??_C@_0DA@NLPACBPK@f?3?2dd?2vctools?2crt_bld?2self_x86?2c@ 2009cbac     LIBCMTD:stream.obj
 0002:0000abe0       ??_C@_1GC@CHGJNMHG@?$AAf?$AA?3?$AA?2?$AAd?$AAd?$AA?2?$AAv?$AAc?$AAt?$AAo?$AAo?$AAl?$AAs?$AA?2?$AAc?$AAr?$AAt?$AA_?$AAb?$AAl?$AAd?$AA?2?$AAs?$AAe?$AAl?$AAf?$AA_?$AAx?$AA8?$AA6?$AA?2?$AAc@ 2009cbe0     LIBCMTD:isctype.obj
 0002:0000ac44       ??_C@_1DC@BPLPALML@?$AA?$CI?$AAu?$AAn?$AAs?$AAi?$AAg?$AAn?$AAe?$AAd?$AA?$CJ?$AA?$CI?$AAc?$AA?5?$AA?$CL?$AA?5?$AA1?$AA?$CJ?$AA?5?$AA?$DM?$AA?$DN?$AA?5?$AA2?$AA5?$AA6?$AA?$AA@ 2009cc44     LIBCMTD:isctype.obj
 0002:0000ac78       ??_C@_0DB@MHMEONEC@f?3?2dd?2vctools?2crt_bld?2self_x86?2c@ 2009cc78     LIBCMTD:mbctype.obj
 0002:0000acb0       ??_C@_1GE@HMAALBPJ@?$AAf?$AA?3?$AA?2?$AAd?$AAd?$AA?2?$AAv?$AAc?$AAt?$AAo?$AAo?$AAl?$AAs?$AA?2?$AAc?$AAr?$AAt?$AA_?$AAb?$AAl?$AAd?$AA?2?$AAs?$AAe?$AAl?$AAf?$AA_?$AAx?$AA8?$AA6?$AA?2?$AAc@ 2009ccb0     LIBCMTD:localref.obj
 0002:0000ad18       ??_C@_1BKC@GGIENNAK@?$AA?$CI?$AA?$CI?$AAp?$AAt?$AAl?$AAo?$AAc?$AAi?$AA?9?$AA?$DO?$AAl?$AAc?$AA_?$AAc?$AAa?$AAt?$AAe?$AAg?$AAo?$AAr?$AAy?$AA?$FL?$AAc?$AAa?$AAt?$AAe?$AAg?$AAo?$AAr?$AAy?$AA?$FN?$AA?4@ 2009cd18     LIBCMTD:localref.obj
 0002:0000aebc       ??_C@_1BC@GDGBMEMK@?$AAH?$AAH?$AA?3?$AAm?$AAm?$AA?3?$AAs?$AAs?$AA?$AA@ 2009cebc     LIBCMTD:nlsdata2.obj
 0002:0000aed0       ??_C@_1CI@KNAKOEBC@?$AAd?$AAd?$AAd?$AAd?$AA?0?$AA?5?$AAM?$AAM?$AAM?$AAM?$AA?5?$AAd?$AAd?$AA?0?$AA?5?$AAy?$AAy?$AAy?$AAy?$AA?$AA@ 2009ced0     LIBCMTD:nlsdata2.obj
 0002:0000aef8       ??_C@_1BC@IEBCMHCM@?$AAM?$AAM?$AA?1?$AAd?$AAd?$AA?1?$AAy?$AAy?$AA?$AA@ 2009cef8     LIBCMTD:nlsdata2.obj
 0002:0000af0c       ??_C@_15CLMNNGEL@?$AAP?$AAM?$AA?$AA@ 2009cf0c     LIBCMTD:nlsdata2.obj
 0002:0000af14       ??_C@_15ODEHAHHF@?$AAA?$AAM?$AA?$AA@ 2009cf14     LIBCMTD:nlsdata2.obj
 0002:0000af1c       ??_C@_1BC@FEMKIFH@?$AAD?$AAe?$AAc?$AAe?$AAm?$AAb?$AAe?$AAr?$AA?$AA@ 2009cf1c     LIBCMTD:nlsdata2.obj
 0002:0000af30       ??_C@_1BC@BGLIFPF@?$AAN?$AAo?$AAv?$AAe?$AAm?$AAb?$AAe?$AAr?$AA?$AA@ 2009cf30     LIBCMTD:nlsdata2.obj
 0002:0000af44       ??_C@_1BA@EPANDLNG@?$AAO?$AAc?$AAt?$AAo?$AAb?$AAe?$AAr?$AA?$AA@ 2009cf44     LIBCMTD:nlsdata2.obj
 0002:0000af54       ??_C@_1BE@DKAAMBJL@?$AAS?$AAe?$AAp?$AAt?$AAe?$AAm?$AAb?$AAe?$AAr?$AA?$AA@ 2009cf54     LIBCMTD:nlsdata2.obj
 0002:0000af68       ??_C@_1O@PAHLKOAC@?$AAA?$AAu?$AAg?$AAu?$AAs?$AAt?$AA?$AA@ 2009cf68     LIBCMTD:nlsdata2.obj
 0002:0000af78       ??_C@_19BIFMLPCD@?$AAJ?$AAu?$AAl?$AAy?$AA?$AA@ 2009cf78     LIBCMTD:nlsdata2.obj
 0002:0000af84       ??_C@_19EPFLPGAP@?$AAJ?$AAu?$AAn?$AAe?$AA?$AA@ 2009cf84     LIBCMTD:nlsdata2.obj
 0002:0000af90       ??_C@_1M@GJNLMHFD@?$AAA?$AAp?$AAr?$AAi?$AAl?$AA?$AA@ 2009cf90     LIBCMTD:nlsdata2.obj
 0002:0000af9c       ??_C@_1M@IKEENEDF@?$AAM?$AAa?$AAr?$AAc?$AAh?$AA?$AA@ 2009cf9c     LIBCMTD:nlsdata2.obj
 0002:0000afa8       ??_C@_1BC@JGDDFFAM@?$AAF?$AAe?$AAb?$AAr?$AAu?$AAa?$AAr?$AAy?$AA?$AA@ 2009cfa8     LIBCMTD:nlsdata2.obj
 0002:0000afbc       ??_C@_1BA@EFMEIEBA@?$AAJ?$AAa?$AAn?$AAu?$AAa?$AAr?$AAy?$AA?$AA@ 2009cfbc     LIBCMTD:nlsdata2.obj
 0002:0000afcc       ??_C@_17EGKACKIF@?$AAD?$AAe?$AAc?$AA?$AA@ 2009cfcc     LIBCMTD:nlsdata2.obj
 0002:0000afd4       ??_C@_17BBDMLCIG@?$AAN?$AAo?$AAv?$AA?$AA@ 2009cfd4     LIBCMTD:nlsdata2.obj
 0002:0000afdc       ??_C@_17FNLKOI@?$AAO?$AAc?$AAt?$AA?$AA@ 2009cfdc     LIBCMTD:nlsdata2.obj
 0002:0000afe4       ??_C@_17HCHCOKMG@?$AAS?$AAe?$AAp?$AA?$AA@ 2009cfe4     LIBCMTD:nlsdata2.obj
 0002:0000afec       ??_C@_17ICPELBCN@?$AAA?$AAu?$AAg?$AA?$AA@ 2009cfec     LIBCMTD:nlsdata2.obj
 0002:0000aff4       ??_C@_17IJPCKHK@?$AAJ?$AAu?$AAl?$AA?$AA@ 2009cff4     LIBCMTD:nlsdata2.obj
 0002:0000affc       ??_C@_17KCJGOCPB@?$AAJ?$AAu?$AAn?$AA?$AA@ 2009cffc     LIBCMTD:nlsdata2.obj
 0002:0000b004       ??_C@_17PNNKMEED@?$AAM?$AAa?$AAy?$AA?$AA@ 2009d004     LIBCMTD:nlsdata2.obj
 0002:0000b00c       ??_C@_17LFPOIHDD@?$AAA?$AAp?$AAr?$AA?$AA@ 2009d00c     LIBCMTD:nlsdata2.obj
 0002:0000b014       ??_C@_17CKNLEDEC@?$AAM?$AAa?$AAr?$AA?$AA@ 2009d014     LIBCMTD:nlsdata2.obj
 0002:0000b01c       ??_C@_17LMDJEKJN@?$AAF?$AAe?$AAb?$AA?$AA@ 2009d01c     LIBCMTD:nlsdata2.obj
 0002:0000b024       ??_C@_17DKNBKCHM@?$AAJ?$AAa?$AAn?$AA?$AA@ 2009d024     LIBCMTD:nlsdata2.obj
 0002:0000b02c       ??_C@_1BC@ENMNNPAJ@?$AAS?$AAa?$AAt?$AAu?$AAr?$AAd?$AAa?$AAy?$AA?$AA@ 2009d02c     LIBCMTD:nlsdata2.obj
 0002:0000b040       ??_C@_1O@PDICJHAG@?$AAF?$AAr?$AAi?$AAd?$AAa?$AAy?$AA?$AA@ 2009d040     LIBCMTD:nlsdata2.obj
 0002:0000b050       ??_C@_1BC@HHMNLIHE@?$AAT?$AAh?$AAu?$AAr?$AAs?$AAd?$AAa?$AAy?$AA?$AA@ 2009d050     LIBCMTD:nlsdata2.obj
 0002:0000b064       ??_C@_1BE@EBOGMDOH@?$AAW?$AAe?$AAd?$AAn?$AAe?$AAs?$AAd?$AAa?$AAy?$AA?$AA@ 2009d064     LIBCMTD:nlsdata2.obj
 0002:0000b078       ??_C@_1BA@ENFBFFEK@?$AAT?$AAu?$AAe?$AAs?$AAd?$AAa?$AAy?$AA?$AA@ 2009d078     LIBCMTD:nlsdata2.obj
 0002:0000b088       ??_C@_1O@MMNBFLIA@?$AAM?$AAo?$AAn?$AAd?$AAa?$AAy?$AA?$AA@ 2009d088     LIBCMTD:nlsdata2.obj
 0002:0000b098       ??_C@_1O@IHNHDHPB@?$AAS?$AAu?$AAn?$AAd?$AAa?$AAy?$AA?$AA@ 2009d098     LIBCMTD:nlsdata2.obj
 0002:0000b0a8       ??_C@_17GGIBDPIH@?$AAS?$AAa?$AAt?$AA?$AA@ 2009d0a8     LIBCMTD:nlsdata2.obj
 0002:0000b0b0       ??_C@_17HFOLPPLP@?$AAF?$AAr?$AAi?$AA?$AA@ 2009d0b0     LIBCMTD:nlsdata2.obj
 0002:0000b0b8       ??_C@_17PDPHAADD@?$AAT?$AAh?$AAu?$AA?$AA@ 2009d0b8     LIBCMTD:nlsdata2.obj
 0002:0000b0c0       ??_C@_17CJEDCEPE@?$AAW?$AAe?$AAd?$AA?$AA@ 2009d0c0     LIBCMTD:nlsdata2.obj
 0002:0000b0c8       ??_C@_17BMKGEGOJ@?$AAT?$AAu?$AAe?$AA?$AA@ 2009d0c8     LIBCMTD:nlsdata2.obj
 0002:0000b0d0       ??_C@_17KBOMKBF@?$AAM?$AAo?$AAn?$AA?$AA@ 2009d0d0     LIBCMTD:nlsdata2.obj
 0002:0000b0d8       ??_C@_17MBGCMIPB@?$AAS?$AAu?$AAn?$AA?$AA@ 2009d0d8     LIBCMTD:nlsdata2.obj
 0002:0000b0e0       ??_C@_08JCCMCCIL@HH?3mm?3ss?$AA@ 2009d0e0     LIBCMTD:nlsdata2.obj
 0002:0000b0ec       ??_C@_0BE@CKGJFCPC@dddd?0?5MMMM?5dd?0?5yyyy?$AA@ 2009d0ec     LIBCMTD:nlsdata2.obj
 0002:0000b100       ??_C@_08BPBNCDIB@MM?1dd?1yy?$AA@ 2009d100     LIBCMTD:nlsdata2.obj
 0002:0000b10c       ??_C@_02CJNFDJBF@PM?$AA@   2009d10c     LIBCMTD:nlsdata2.obj
 0002:0000b110       ??_C@_02DEDBPAFC@AM?$AA@   2009d110     LIBCMTD:nlsdata2.obj
 0002:0000b114       ??_C@_08EDHMEBNP@December?$AA@ 2009d114     LIBCMTD:nlsdata2.obj
 0002:0000b120       ??_C@_08HCHEGEOA@November?$AA@ 2009d120     LIBCMTD:nlsdata2.obj
 0002:0000b12c       ??_C@_07JJNFCEND@October?$AA@ 2009d12c     LIBCMTD:nlsdata2.obj
 0002:0000b134       ??_C@_09BHHEALKD@September?$AA@ 2009d134     LIBCMTD:nlsdata2.obj
 0002:0000b140       ??_C@_06LBBHFDDG@August?$AA@ 2009d140     LIBCMTD:nlsdata2.obj
 0002:0000b148       ??_C@_04MIEPOIFP@July?$AA@ 2009d148     LIBCMTD:nlsdata2.obj
 0002:0000b150       ??_C@_04CNLMGBGM@June?$AA@ 2009d150     LIBCMTD:nlsdata2.obj
 0002:0000b158       ??_C@_05DMJDNLEJ@April?$AA@ 2009d158     LIBCMTD:nlsdata2.obj
 0002:0000b160       ??_C@_05HPCKOFNC@March?$AA@ 2009d160     LIBCMTD:nlsdata2.obj
 0002:0000b168       ??_C@_08GNJGEPFN@February?$AA@ 2009d168     LIBCMTD:nlsdata2.obj
 0002:0000b174       ??_C@_07CGJPFGJA@January?$AA@ 2009d174     LIBCMTD:nlsdata2.obj
 0002:0000b17c       ??_C@_03MKABNOCG@Dec?$AA@  2009d17c     LIBCMTD:nlsdata2.obj
 0002:0000b180       ??_C@_03JPJOFNIA@Nov?$AA@  2009d180     LIBCMTD:nlsdata2.obj
 0002:0000b184       ??_C@_03BMAOKBAD@Oct?$AA@  2009d184     LIBCMTD:nlsdata2.obj
 0002:0000b188       ??_C@_03GGCAPAJC@Sep?$AA@  2009d188     LIBCMTD:nlsdata2.obj
 0002:0000b18c       ??_C@_03IFJFEIGA@Aug?$AA@  2009d18c     LIBCMTD:nlsdata2.obj
 0002:0000b190       ??_C@_03LBGABGKK@Jul?$AA@  2009d190     LIBCMTD:nlsdata2.obj
 0002:0000b194       ??_C@_03IDFGHECI@Jun?$AA@  2009d194     LIBCMTD:nlsdata2.obj
 0002:0000b198       ??_C@_03CNMDKL@May?$AA@    2009d198     LIBCMTD:nlsdata2.obj
 0002:0000b19c       ??_C@_03LEOLGMJP@Apr?$AA@  2009d19c     LIBCMTD:nlsdata2.obj
 0002:0000b1a0       ??_C@_03ODNJBKGA@Mar?$AA@  2009d1a0     LIBCMTD:nlsdata2.obj
 0002:0000b1a4       ??_C@_03HJBDCHOM@Feb?$AA@  2009d1a4     LIBCMTD:nlsdata2.obj
 0002:0000b1a8       ??_C@_03JIHJHPIE@Jan?$AA@  2009d1a8     LIBCMTD:nlsdata2.obj
 0002:0000b1ac       ??_C@_08INBOOONO@Saturday?$AA@ 2009d1ac     LIBCMTD:nlsdata2.obj
 0002:0000b1b8       ??_C@_06JECMNKMI@Friday?$AA@ 2009d1b8     LIBCMTD:nlsdata2.obj
 0002:0000b1c0       ??_C@_08HACCIKIA@Thursday?$AA@ 2009d1c0     LIBCMTD:nlsdata2.obj
 0002:0000b1cc       ??_C@_09DLIGFAKA@Wednesday?$AA@ 2009d1cc     LIBCMTD:nlsdata2.obj
 0002:0000b1d8       ??_C@_07BAAGCFCM@Tuesday?$AA@ 2009d1d8     LIBCMTD:nlsdata2.obj
 0002:0000b1e0       ??_C@_06JLEDEDGH@Monday?$AA@ 2009d1e0     LIBCMTD:nlsdata2.obj
 0002:0000b1e8       ??_C@_06OOPIFAJ@Sunday?$AA@ 2009d1e8     LIBCMTD:nlsdata2.obj
 0002:0000b1f0       ??_C@_03FEFJNEK@Sat?$AA@   2009d1f0     LIBCMTD:nlsdata2.obj
 0002:0000b1f4       ??_C@_03IDIOELNC@Fri?$AA@  2009d1f4     LIBCMTD:nlsdata2.obj
 0002:0000b1f8       ??_C@_03IOFIKPDN@Thu?$AA@  2009d1f8     LIBCMTD:nlsdata2.obj
 0002:0000b1fc       ??_C@_03MHOMLAJA@Wed?$AA@  2009d1fc     LIBCMTD:nlsdata2.obj
 0002:0000b200       ??_C@_03NAGEINEP@Tue?$AA@  2009d200     LIBCMTD:nlsdata2.obj
 0002:0000b204       ??_C@_03PDAGKDH@Mon?$AA@   2009d204     LIBCMTD:nlsdata2.obj
 0002:0000b208       ??_C@_03KOEHGMDN@Sun?$AA@  2009d208     LIBCMTD:nlsdata2.obj
 0002:0000b20c       ??_C@_1BO@IHLJHOPI@?$AA_?$AA_?$AAs?$AAt?$AAr?$AAg?$AAt?$AAo?$AAl?$AAd?$AA1?$AA2?$AA_?$AAl?$AA?$AA@ 2009d20c     LIBCMTD:_strgtold_.obj
 0002:0000b230       ??_C@_1IG@IGKPPFIM@?$AAf?$AA?3?$AA?2?$AAd?$AAd?$AA?2?$AAv?$AAc?$AAt?$AAo?$AAo?$AAl?$AAs?$AA?2?$AAc?$AAr?$AAt?$AA_?$AAb?$AAl?$AAd?$AA?2?$AAs?$AAe?$AAl?$AAf?$AA_?$AAx?$AA8?$AA6?$AA?2?$AAc@ 2009d230     LIBCMTD:_strgtold_.obj
 0002:0000b2b8       ??_C@_1CA@MBDBOHIB@?$AA_?$AAL?$AAo?$AAc?$AAa?$AAl?$AAe?$AA?5?$AA?$CB?$AA?$DN?$AA?5?$AAN?$AAU?$AAL?$AAL?$AA?$AA@ 2009d2b8     LIBCMTD:_strgtold_.obj
 0002:0000b2d8       ??_C@_1BC@MJNBEDIJ@?$AA_?$AAi?$AAn?$AAp?$AAu?$AAt?$AA_?$AAl?$AA?$AA@ 2009d2d8     LIBCMTD:input.obj
 0002:0000b2f0       ??_C@_1FO@LDDBLKJ@?$AAf?$AA?3?$AA?2?$AAd?$AAd?$AA?2?$AAv?$AAc?$AAt?$AAo?$AAo?$AAl?$AAs?$AA?2?$AAc?$AAr?$AAt?$AA_?$AAb?$AAl?$AAd?$AA?2?$AAs?$AAe?$AAl?$AAf?$AA_?$AAx?$AA8?$AA6?$AA?2?$AAc@ 2009d2f0     LIBCMTD:input.obj
 0002:0000b350       ??_C@_0CP@MMGCGBFO@f?3?2dd?2vctools?2crt_bld?2self_x86?2c@ 2009d350     LIBCMTD:input.obj
 0002:0000b380       ??_C@_1DO@MBOKMJPK@?$AAn?$AAF?$AAl?$AAo?$AAa?$AAt?$AAS?$AAt?$AAr?$AAU?$AAs?$AAe?$AAd?$AA?$DM?$AA?$DN?$AA?$CI?$AA?$CK?$AAp?$AAn?$AAF?$AAl?$AAo?$AAa?$AAt?$AAS?$AAt?$AAr?$AAS?$AAz?$AA?$CJ?$AA?$AA@ 2009d380     LIBCMTD:input.obj
 0002:0000b3c0       ??_C@_1DG@MPPGJOHD@?$AA?$CI?$AA?$CC?$AAI?$AAn?$AAv?$AAa?$AAl?$AAi?$AAd?$AA?5?$AAI?$AAn?$AAp?$AAu?$AAt?$AA?5?$AAF?$AAo?$AAr?$AAm?$AAa?$AAt?$AA?$CC?$AA?0?$AA0?$AA?$CJ?$AA?$AA@ 2009d3c0     LIBCMTD:inputs.obj
 0002:0000b3f8       ??_C@_1BG@LBKFJFHM@?$AA_?$AAi?$AAn?$AAp?$AAu?$AAt?$AA_?$AAs?$AA_?$AAl?$AA?$AA@ 2009d3f8     LIBCMTD:inputs.obj
 0002:0000b410       ??_C@_0DB@OLNNDFNH@f?3?2dd?2vctools?2crt_bld?2self_x86?2c@ 2009d410     LIBCMTD:_sftbuf.obj
 0002:0000b448       ??_C@_1GC@DGAFOCMO@?$AAf?$AA?3?$AA?2?$AAd?$AAd?$AA?2?$AAv?$AAc?$AAt?$AAo?$AAo?$AAl?$AAs?$AA?2?$AAc?$AAr?$AAt?$AA_?$AAb?$AAl?$AAd?$AA?2?$AAs?$AAe?$AAl?$AAf?$AA_?$AAx?$AA8?$AA6?$AA?2?$AAc@ 2009d448     LIBCMTD:_sftbuf.obj
 0002:0000b4ac       ??_C@_1CO@KCKAACMI@?$AAf?$AAl?$AAa?$AAg?$AA?5?$AA?$DN?$AA?$DN?$AA?5?$AA0?$AA?5?$AA?$HM?$AA?$HM?$AA?5?$AAf?$AAl?$AAa?$AAg?$AA?5?$AA?$DN?$AA?$DN?$AA?5?$AA1?$AA?$AA@ 2009d4ac     LIBCMTD:_sftbuf.obj
 0002:0000b4dc       ??_C@_0DA@NBLAKPEL@f?3?2dd?2vctools?2crt_bld?2self_x86?2c@ 2009d4dc     LIBCMTD:ioinit.obj
 0002:0000b50c       ??_C@_1CA@OEHMHBJF@?$AAv?$AAf?$AAp?$AAr?$AAi?$AAn?$AAt?$AAf?$AA_?$AAh?$AAe?$AAl?$AAp?$AAe?$AAr?$AA?$AA@ 2009d50c     LIBCMTD:vfprintf.obj
 0002:0000b530       ??_C@_1GE@PEEPNGBM@?$AAf?$AA?3?$AA?2?$AAd?$AAd?$AA?2?$AAv?$AAc?$AAt?$AAo?$AAo?$AAl?$AAs?$AA?2?$AAc?$AAr?$AAt?$AA_?$AAb?$AAl?$AAd?$AA?2?$AAs?$AAe?$AAl?$AAf?$AA_?$AAx?$AA8?$AA6?$AA?2?$AAc@ 2009d530     LIBCMTD:vfprintf.obj
 0002:0000dd90       __OP_ATAN2jmptab           2009fd90     LIBCMTD:_87triga_.obj
 0002:0000de10       ??_C@_07LCBHPJJN@LC_TIME?$AA@ 2009fe10     LIBCMTD:setlocal.obj
 0002:0000de18       ??_C@_0L@DLHIECNL@LC_NUMERIC?$AA@ 2009fe18     LIBCMTD:setlocal.obj
 0002:0000de24       ??_C@_0M@MIENIKLA@LC_MONETARY?$AA@ 2009fe24     LIBCMTD:setlocal.obj
 0002:0000de30       ??_C@_08EADHIDAD@LC_CTYPE?$AA@ 2009fe30     LIBCMTD:setlocal.obj
 0002:0000de3c       ??_C@_0L@KFJHEKIK@LC_COLLATE?$AA@ 2009fe3c     LIBCMTD:setlocal.obj
 0002:0000de48       ??_C@_06NEFDFEKB@LC_ALL?$AA@ 2009fe48     LIBCMTD:setlocal.obj
 0002:0000de50       ___lc_category             2009fe50     LIBCMTD:setlocal.obj
 0002:0000df18       ??_C@_1CI@FGIONOJM@?$AA_?$AAc?$AAo?$AAn?$AAf?$AAi?$AAg?$AAt?$AAh?$AAr?$AAe?$AAa?$AAd?$AAl?$AAo?$AAc?$AAa?$AAl?$AAe?$AA?$AA@ 2009ff18     LIBCMTD:setlocal.obj
 0002:0000df40       ??_C@_1GE@OLEIGPBJ@?$AAf?$AA?3?$AA?2?$AAd?$AAd?$AA?2?$AAv?$AAc?$AAt?$AAo?$AAo?$AAl?$AAs?$AA?2?$AAc?$AAr?$AAt?$AA_?$AAb?$AAl?$AAd?$AA?2?$AAs?$AAe?$AAl?$AAf?$AA_?$AAx?$AA8?$AA6?$AA?2?$AAc@ 2009ff40     LIBCMTD:setlocal.obj
 0002:0000dfa8       ??_C@_1GA@LDEGDKD@?$AA?$CI?$AA?$CC?$AAI?$AAn?$AAv?$AAa?$AAl?$AAi?$AAd?$AA?5?$AAp?$AAa?$AAr?$AAa?$AAm?$AAe?$AAt?$AAe?$AAr?$AA?5?$AAf?$AAo?$AAr?$AA?5?$AA_?$AAc?$AAo?$AAn?$AAf?$AAi?$AAg?$AAt@ 2009ffa8     LIBCMTD:setlocal.obj
 0002:0000e008       ??_C@_0DC@JCPFNMID@f?3?2dd?2vctools?2crt_bld?2self_x86?2c@ 200a0008     LIBCMTD:setlocal.obj
 0002:0000e03c       ??_C@_1BE@DBJGBOJC@?$AAs?$AAe?$AAt?$AAl?$AAo?$AAc?$AAa?$AAl?$AAe?$AA?$AA@ 200a003c     LIBCMTD:setlocal.obj
 0002:0000e050       ??_C@_1FG@OHLFEKMC@?$AAL?$AAC?$AA_?$AAM?$AAI?$AAN?$AA?5?$AA?$DM?$AA?$DN?$AA?5?$AA_?$AAc?$AAa?$AAt?$AAe?$AAg?$AAo?$AAr?$AAy?$AA?5?$AA?$CG?$AA?$CG?$AA?5?$AA_?$AAc?$AAa?$AAt?$AAe?$AAg?$AAo?$AAr?$AAy@ 200a0050     LIBCMTD:setlocal.obj
 0002:0000e0a8       ??_C@_1IA@PFIKKKFB@?$AAs?$AAt?$AAr?$AAn?$AAc?$AAp?$AAy?$AA_?$AAs?$AA?$CI?$AAl?$AAc?$AAt?$AAe?$AAm?$AAp?$AA?0?$AA?5?$AA?$CI?$AAs?$AAi?$AAz?$AAe?$AAo?$AAf?$AA?$CI?$AAl?$AAc?$AAt?$AAe?$AAm?$AAp@ 200a00a8     LIBCMTD:setlocal.obj
 0002:0000e128       ??_C@_1CE@OFNHIOO@?$AA_?$AAs?$AAe?$AAt?$AAl?$AAo?$AAc?$AAa?$AAl?$AAe?$AA_?$AAn?$AAo?$AAl?$AAo?$AAc?$AAk?$AA?$AA@ 200a0128     LIBCMTD:setlocal.obj
 0002:0000e14c       ??_C@_02BALPLPBG@?$DN?$DL?$AA@ 200a014c     LIBCMTD:setlocal.obj
 0002:0000e150       ??_C@_1GO@JALHLJEH@?$AAs?$AAt?$AAr?$AAc?$AAp?$AAy?$AA_?$AAs?$AA?$CI?$AAp?$AAc?$AAh?$AA?5?$AA?$CL?$AA?5?$AAs?$AAi?$AAz?$AAe?$AAo?$AAf?$AA?$CI?$AAi?$AAn?$AAt?$AA?$CJ?$AA?0?$AA?5?$AAc?$AAc?$AAh?$AA?5@ 200a0150     LIBCMTD:setlocal.obj
 0002:0000e1c0       ??_C@_1CG@IEFIICPK@?$AA_?$AAs?$AAe?$AAt?$AAl?$AAo?$AAc?$AAa?$AAl?$AAe?$AA_?$AAs?$AAe?$AAt?$AA_?$AAc?$AAa?$AAt?$AA?$AA@ 200a01c0     LIBCMTD:setlocal.obj
 0002:0000e1e8       ??_C@_1DA@GDKKLCLM@?$AAs?$AAt?$AAr?$AAc?$AAa?$AAt?$AA_?$AAs?$AA?$CI?$AAp?$AAc?$AAh?$AA?0?$AA?5?$AAc?$AAc?$AAh?$AA?0?$AA?5?$AA?$CC?$AA?$DL?$AA?$CC?$AA?$CJ?$AA?$AA@ 200a01e8     LIBCMTD:setlocal.obj
 0002:0000e218       ??_C@_1CG@NNFIJLDA@?$AA_?$AAs?$AAe?$AAt?$AAl?$AAo?$AAc?$AAa?$AAl?$AAe?$AA_?$AAg?$AAe?$AAt?$AA_?$AAa?$AAl?$AAl?$AA?$AA@ 200a0218     LIBCMTD:setlocal.obj
 0002:0000e240       ??_C@_01NEMOKFLO@?$DN?$AA@ 200a0240     LIBCMTD:setlocal.obj
 0002:0000e248       ??_C@_1FA@MHAOOIBO@?$AAs?$AAt?$AAr?$AAc?$AAp?$AAy?$AA_?$AAs?$AA?$CI?$AAo?$AAu?$AAt?$AAp?$AAu?$AAt?$AA?0?$AA?5?$AAs?$AAi?$AAz?$AAe?$AAI?$AAn?$AAC?$AAh?$AAa?$AAr?$AAs?$AA?0?$AA?5?$AAc?$AAa@ 200a0248     LIBCMTD:setlocal.obj
 0002:0000e298       ??_C@_1IA@ONNFOEDA@?$AAs?$AAt?$AAr?$AAn?$AAc?$AAp?$AAy?$AA_?$AAs?$AA?$CI?$AAc?$AAa?$AAc?$AAh?$AAe?$AAi?$AAn?$AA?0?$AA?5?$AAc?$AAa?$AAc?$AAh?$AAe?$AAi?$AAn?$AAS?$AAi?$AAz?$AAe?$AA?0?$AA?5@ 200a0298     LIBCMTD:setlocal.obj
 0002:0000e318       ??_C@_01GFHCPBMG@C?$AA@    200a0318     LIBCMTD:setlocal.obj
 0002:0000e320       ??_C@_1EG@MOMHKOD@?$AAs?$AAt?$AAr?$AAc?$AAp?$AAy?$AA_?$AAs?$AA?$CI?$AAo?$AAu?$AAt?$AAp?$AAu?$AAt?$AA?0?$AA?5?$AAs?$AAi?$AAz?$AAe?$AAI?$AAn?$AAC?$AAh?$AAa?$AAr?$AAs?$AA?0?$AA?5?$AA?$CC?$AAC@ 200a0320     LIBCMTD:setlocal.obj
 0002:0000e368       ??_C@_1BM@OIIBLEFG@?$AA_?$AAe?$AAx?$AAp?$AAa?$AAn?$AAd?$AAl?$AAo?$AAc?$AAa?$AAl?$AAe?$AA?$AA@ 200a0368     LIBCMTD:setlocal.obj
 0002:0000e388       ??_C@_1BGM@IJDLABMC@?$AAs?$AAt?$AAr?$AAc?$AAa?$AAt?$AA_?$AAs?$AA?$CI?$AAo?$AAu?$AAt?$AAs?$AAt?$AAr?$AA?0?$AA?5?$AAs?$AAi?$AAz?$AAe?$AAI?$AAn?$AAB?$AAy?$AAt?$AAe?$AAs?$AA?0?$AA?5?$AA?$CI?$AA?5@ 200a0388     LIBCMTD:setlocal.obj
 0002:0000e4f4       ??_C@_1BC@PIABMDIP@?$AA_?$AAs?$AAt?$AAr?$AAc?$AAa?$AAt?$AAs?$AA?$AA@ 200a04f4     LIBCMTD:setlocal.obj
 0002:0000e508       ??_C@_1MM@NOPMGFHF@?$AAs?$AAt?$AAr?$AAn?$AAc?$AAp?$AAy?$AA_?$AAs?$AA?$CI?$AAn?$AAa?$AAm?$AAe?$AAs?$AA?9?$AA?$DO?$AAs?$AAz?$AAC?$AAo?$AAd?$AAe?$AAP?$AAa?$AAg?$AAe?$AA?0?$AA?5?$AA?$CI?$AAs?$AAi@ 200a0508     LIBCMTD:setlocal.obj
 0002:0000e5d8       ??_C@_1MG@PHNILIAG@?$AAs?$AAt?$AAr?$AAn?$AAc?$AAp?$AAy?$AA_?$AAs?$AA?$CI?$AAn?$AAa?$AAm?$AAe?$AAs?$AA?9?$AA?$DO?$AAs?$AAz?$AAC?$AAo?$AAu?$AAn?$AAt?$AAr?$AAy?$AA?0?$AA?5?$AA?$CI?$AAs?$AAi?$AAz@ 200a05d8     LIBCMTD:setlocal.obj
 0002:0000e6a0       ??_C@_1MM@BFEECMAF@?$AAs?$AAt?$AAr?$AAn?$AAc?$AAp?$AAy?$AA_?$AAs?$AA?$CI?$AAn?$AAa?$AAm?$AAe?$AAs?$AA?9?$AA?$DO?$AAs?$AAz?$AAL?$AAa?$AAn?$AAg?$AAu?$AAa?$AAg?$AAe?$AA?0?$AA?5?$AA?$CI?$AAs?$AAi@ 200a06a0     LIBCMTD:setlocal.obj
 0002:0000e76c       ??_C@_03EGDHDPFD@_?4?0?$AA@ 200a076c     LIBCMTD:setlocal.obj
 0002:0000e770       ??_C@_1NG@FMOPGKGG@?$AAs?$AAt?$AAr?$AAn?$AAc?$AAp?$AAy?$AA_?$AAs?$AA?$CI?$AAn?$AAa?$AAm?$AAe?$AAs?$AA?9?$AA?$DO?$AAs?$AAz?$AAC?$AAo?$AAd?$AAe?$AAP?$AAa?$AAg?$AAe?$AA?0?$AA?5?$AA?$CI?$AAs?$AAi@ 200a0770     LIBCMTD:setlocal.obj
 0002:0000e848       ??_C@_1BK@CBMMLAGJ@?$AA_?$AA_?$AAl?$AAc?$AA_?$AAs?$AAt?$AAr?$AAt?$AAo?$AAl?$AAc?$AA?$AA@ 200a0848     LIBCMTD:setlocal.obj
 0002:0000e864       ??_C@_01LFCBOECM@?4?$AA@   200a0864     LIBCMTD:setlocal.obj
 0002:0000e868       ??_C@_01IDAFKMJL@_?$AA@    200a0868     LIBCMTD:setlocal.obj
 0002:0000e870       ??_C@_1HC@IBDBLKCB@?$AAs?$AAt?$AAr?$AAc?$AAp?$AAy?$AA_?$AAs?$AA?$CI?$AAl?$AAo?$AAc?$AAa?$AAl?$AAe?$AA?0?$AA?5?$AAs?$AAi?$AAz?$AAe?$AAI?$AAn?$AAB?$AAy?$AAt?$AAe?$AAs?$AA?0?$AA?5?$AA?$CI?$AAc@ 200a0870     LIBCMTD:setlocal.obj
 0002:0000e8e4       ??_C@_1BK@FGDJDEPG@?$AA_?$AA_?$AAl?$AAc?$AA_?$AAl?$AAc?$AAt?$AAo?$AAs?$AAt?$AAr?$AA?$AA@ 200a08e4     LIBCMTD:setlocal.obj
 0002:0000e900       ??_C@_0P@MIGLKIOC@CorExitProcess?$AA@ 200a0900     LIBCMTD:crt0dat.obj
 0002:0000e910       ??_C@_1BI@BGOHAHKC@?$AAm?$AAs?$AAc?$AAo?$AAr?$AAe?$AAe?$AA?4?$AAd?$AAl?$AAl?$AA?$AA@ 200a0910     LIBCMTD:crt0dat.obj
 0002:0000e928       ??_C@_1CC@CDIPMFPD@?$AA_?$AAw?$AAp?$AAg?$AAm?$AAp?$AAt?$AAr?$AA?5?$AA?$CB?$AA?$DN?$AA?5?$AAN?$AAU?$AAL?$AAL?$AA?$AA@ 200a0928     LIBCMTD:crt0dat.obj
 0002:0000e94c       ??_C@_1BK@PNLDCCDP@?$AA_?$AAg?$AAe?$AAt?$AA_?$AAw?$AAp?$AAg?$AAm?$AAp?$AAt?$AAr?$AA?$AA@ 200a094c     LIBCMTD:crt0dat.obj
 0002:0000e968       ??_C@_1GC@DGCPEDNJ@?$AAf?$AA?3?$AA?2?$AAd?$AAd?$AA?2?$AAv?$AAc?$AAt?$AAo?$AAo?$AAl?$AAs?$AA?2?$AAc?$AAr?$AAt?$AA_?$AAb?$AAl?$AAd?$AA?2?$AAs?$AAe?$AAl?$AAf?$AA_?$AAx?$AA8?$AA6?$AA?2?$AAc@ 200a0968     LIBCMTD:crt0dat.obj
 0002:0000e9cc       ??_C@_1CA@BBNAFCKO@?$AA_?$AAp?$AAg?$AAm?$AAp?$AAt?$AAr?$AA?5?$AA?$CB?$AA?$DN?$AA?5?$AAN?$AAU?$AAL?$AAL?$AA?$AA@ 200a09cc     LIBCMTD:crt0dat.obj
 0002:0000e9ec       ??_C@_1BI@COAAPHJK@?$AA_?$AAg?$AAe?$AAt?$AA_?$AAp?$AAg?$AAm?$AAp?$AAt?$AAr?$AA?$AA@ 200a09ec     LIBCMTD:crt0dat.obj
 0002:0000ea04       ??_C@_1DE@MMOGFGHF@?$AAs?$AAt?$AAr?$AAc?$AAp?$AAy?$AA_?$AAs?$AA?$CI?$AA?$CK?$AAe?$AAn?$AAv?$AA?0?$AA?5?$AAc?$AAc?$AAh?$AAa?$AAr?$AAs?$AA?0?$AA?5?$AAp?$AA?$CJ?$AA?$AA@ 200a0a04     LIBCMTD:stdenvp.obj
 0002:0000ea38       ??_C@_1BC@GHMCNHHL@?$AA_?$AAs?$AAe?$AAt?$AAe?$AAn?$AAv?$AAp?$AA?$AA@ 200a0a38     LIBCMTD:stdenvp.obj
 0002:0000ea50       ??_C@_1GC@DGBFLDBN@?$AAf?$AA?3?$AA?2?$AAd?$AAd?$AA?2?$AAv?$AAc?$AAt?$AAo?$AAo?$AAl?$AAs?$AA?2?$AAc?$AAr?$AAt?$AA_?$AAb?$AAl?$AAd?$AA?2?$AAs?$AAe?$AAl?$AAf?$AA_?$AAx?$AA8?$AA6?$AA?2?$AAc@ 200a0a50     LIBCMTD:stdenvp.obj
 0002:0000eab4       ??_C@_0DB@BMEBJJKP@f?3?2dd?2vctools?2crt_bld?2self_x86?2c@ 200a0ab4     LIBCMTD:stdenvp.obj
 0002:0000eae8       ??_C@_0DB@OEPBJOLC@f?3?2dd?2vctools?2crt_bld?2self_x86?2c@ 200a0ae8     LIBCMTD:stdargv.obj
 0002:0000eb1c       ??_C@_0CP@PPLBCJDN@f?3?2dd?2vctools?2crt_bld?2self_x86?2c@ 200a0b1c     LIBCMTD:a_env.obj
 0002:0000eb50       ??_C@_1GE@JDDMFOID@?$AAf?$AA?3?$AA?2?$AAd?$AAd?$AA?2?$AAv?$AAc?$AAt?$AAo?$AAo?$AAl?$AAs?$AA?2?$AAc?$AAr?$AAt?$AA_?$AAb?$AAl?$AAd?$AA?2?$AAs?$AAe?$AAl?$AAf?$AA_?$AAx?$AA8?$AA6?$AA?2?$AAc@ 200a0b50     LIBCMTD:heapinit.obj
 0002:0000ebb4       ??_C@_1BC@DENNNKIM@?$AA_?$AAc?$AAr?$AAt?$AAh?$AAe?$AAa?$AAp?$AA?$AA@ 200a0bb4     LIBCMTD:heapinit.obj
 0002:0000ebc8       __XcptActTab               200a0bc8     LIBCMTD:winxfltr.obj
 0002:0000ec58       __First_FPE_Indx           200a0c58     LIBCMTD:winxfltr.obj
 0002:0000ec5c       __Num_FPE                  200a0c5c     LIBCMTD:winxfltr.obj
 0002:0000ec60       __XcptActTabSize           200a0c60     LIBCMTD:winxfltr.obj
 0002:0000ec64       __XcptActTabCount          200a0c64     LIBCMTD:winxfltr.obj
 0002:0000ec68       ??_C@_1BK@CDOALEA@?$AA_?$AAc?$AAo?$AAn?$AAt?$AAr?$AAo?$AAl?$AAf?$AAp?$AA_?$AAs?$AA?$AA@ 200a0c68     LIBCMTD:_contrlfp_.obj
 0002:0000ec88       ??_C@_1HI@JIOCECAH@?$AAf?$AA?3?$AA?2?$AAd?$AAd?$AA?2?$AAv?$AAc?$AAt?$AAo?$AAo?$AAl?$AAs?$AA?2?$AAc?$AAr?$AAt?$AA_?$AAb?$AAl?$AAd?$AA?2?$AAs?$AAe?$AAl?$AAf?$AA_?$AAx?$AA8?$AA6?$AA?2?$AAc@ 200a0c88     LIBCMTD:_contrlfp_.obj
 0002:0000ed00       ??_C@_1DG@JNDMIEJL@?$AA?$CI?$AA?$CC?$AAI?$AAn?$AAv?$AAa?$AAl?$AAi?$AAd?$AA?5?$AAi?$AAn?$AAp?$AAu?$AAt?$AA?5?$AAv?$AAa?$AAl?$AAu?$AAe?$AA?$CC?$AA?0?$AA?5?$AA0?$AA?$CJ?$AA?$AA@ 200a0d00     LIBCMTD:_contrlfp_.obj
 0002:0000ed38       ??_C@_1BK@CLIEHFDF@?$AAp?$AAf?$AAl?$AAt?$AA?5?$AA?$CB?$AA?$DN?$AA?5?$AAN?$AAU?$AAL?$AAL?$AA?$AA@ 200a0d38     LIBCMTD:_fptostr.obj
 0002:0000ed58       ??_C@_1GM@CEDLGDDI@?$AAs?$AAi?$AAz?$AAe?$AAI?$AAn?$AAB?$AAy?$AAt?$AAe?$AAs?$AA?5?$AA?$DO?$AA?5?$AA?$CI?$AAs?$AAi?$AAz?$AAe?$AA_?$AAt?$AA?$CJ?$AA?$CI?$AA?$CI?$AAd?$AAi?$AAg?$AAi?$AAt?$AAs?$AA?5?$AA?$DO@ 200a0d58     LIBCMTD:_fptostr.obj
 0002:0000edc4       ??_C@_1BC@OPALLEB@?$AA_?$AAf?$AAp?$AAt?$AAo?$AAs?$AAt?$AAr?$AA?$AA@ 200a0dc4     LIBCMTD:_fptostr.obj
 0002:0000edd8       ??_C@_1GE@BDKOPHIO@?$AAf?$AA?3?$AA?2?$AAd?$AAd?$AA?2?$AAv?$AAc?$AAt?$AAo?$AAo?$AAl?$AAs?$AA?2?$AAc?$AAr?$AAt?$AA_?$AAb?$AAl?$AAd?$AA?2?$AAs?$AAe?$AAl?$AAf?$AA_?$AAx?$AA8?$AA6?$AA?2?$AAc@ 200a0dd8     LIBCMTD:_fptostr.obj
 0002:0000ee40       ??_C@_1FK@KODCOBKF@?$AAs?$AAt?$AAr?$AAc?$AAp?$AAy?$AA_?$AAs?$AA?$CI?$AAr?$AAe?$AAs?$AAu?$AAl?$AAt?$AAs?$AAt?$AAr?$AA?0?$AA?5?$AAr?$AAe?$AAs?$AAu?$AAl?$AAt?$AAs?$AAi?$AAz?$AAe?$AA?0?$AA?5@ 200a0e40     LIBCMTD:_cfout_.obj
 0002:0000ee9c       ??_C@_1BC@BPMMEHLK@?$AA_?$AAf?$AAl?$AAt?$AAo?$AAu?$AAt?$AA2?$AA?$AA@ 200a0e9c     LIBCMTD:_cfout_.obj
 0002:0000eeb0       ??_C@_1HC@PKFDNKN@?$AAf?$AA?3?$AA?2?$AAd?$AAd?$AA?2?$AAv?$AAc?$AAt?$AAo?$AAo?$AAl?$AAs?$AA?2?$AAc?$AAr?$AAt?$AA_?$AAb?$AAl?$AAd?$AA?2?$AAs?$AAe?$AAl?$AAf?$AA_?$AAx?$AA8?$AA6?$AA?2?$AAc@ 200a0eb0     LIBCMTD:_cfout_.obj
 0002:0000ef24       ??_C@_1CG@EBJECAJM@?$AA_?$AAs?$AAe?$AAt?$AA_?$AAo?$AAu?$AAt?$AAp?$AAu?$AAt?$AA_?$AAf?$AAo?$AAr?$AAm?$AAa?$AAt?$AA?$AA@ 200a0f24     LIBCMTD:outputformat.obj
 0002:0000ef50       ??_C@_1GM@NFGGJJCM@?$AAf?$AA?3?$AA?2?$AAd?$AAd?$AA?2?$AAv?$AAc?$AAt?$AAo?$AAo?$AAl?$AAs?$AA?2?$AAc?$AAr?$AAt?$AA_?$AAb?$AAl?$AAd?$AA?2?$AAs?$AAe?$AAl?$AAf?$AA_?$AAx?$AA8?$AA6?$AA?2?$AAc@ 200a0f50     LIBCMTD:outputformat.obj
 0002:0000efc0       ??_C@_1EM@EGEEBJLG@?$AA?$CI?$AAo?$AAp?$AAt?$AAi?$AAo?$AAn?$AAs?$AA?5?$AA?$CG?$AA?5?$AA?$HO?$AA_?$AAT?$AAW?$AAO?$AA_?$AAD?$AAI?$AAG?$AAI?$AAT?$AA_?$AAE?$AAX?$AAP?$AAO?$AAN?$AAE?$AAN?$AAT?$AA?$CJ@ 200a0fc0     LIBCMTD:outputformat.obj
 0002:0000f00c       ??_C@_1DM@MADKGDLO@?$AA?$CI?$AAL?$AA?$CC?$AAB?$AAu?$AAf?$AAf?$AAe?$AAr?$AA?5?$AAi?$AAs?$AA?5?$AAt?$AAo?$AAo?$AA?5?$AAs?$AAm?$AAa?$AAl?$AAl?$AA?$CC?$AA?5?$AA?$CG?$AA?$CG?$AA?5?$AA0?$AA?$CJ?$AA?$AA@ 200a100c     LIBCMTD:strcpy_s.obj
 0002:0000f048       ??_C@_1CI@HCPHDDLE@?$AAB?$AAu?$AAf?$AAf?$AAe?$AAr?$AA?5?$AAi?$AAs?$AA?5?$AAt?$AAo?$AAo?$AA?5?$AAs?$AAm?$AAa?$AAl?$AAl?$AA?$AA@ 200a1048     LIBCMTD:strcpy_s.obj
 0002:0000f070       ??_C@_1CG@OFBJMIGJ@?$AA?$CI?$AA?$CI?$AA?$CI?$AA_?$AAS?$AAr?$AAc?$AA?$CJ?$AA?$CJ?$AA?$CJ?$AA?5?$AA?$CB?$AA?$DN?$AA?5?$AAN?$AAU?$AAL?$AAL?$AA?$AA@ 200a1070     LIBCMTD:strcpy_s.obj
 0002:0000f098       ??_C@_1BC@CFJEPFGF@?$AAs?$AAt?$AAr?$AAc?$AAp?$AAy?$AA_?$AAs?$AA?$AA@ 200a1098     LIBCMTD:strcpy_s.obj
 0002:0000f0b0       ??_C@_1GI@BGBNCIMA@?$AAf?$AA?3?$AA?2?$AAd?$AAd?$AA?2?$AAv?$AAc?$AAt?$AAo?$AAo?$AAl?$AAs?$AA?2?$AAc?$AAr?$AAt?$AA_?$AAb?$AAl?$AAd?$AA?2?$AAs?$AAe?$AAl?$AAf?$AA_?$AAx?$AA8?$AA6?$AA?2?$AAc@ 200a10b0     LIBCMTD:strcpy_s.obj
 0002:0000f118       ??_C@_1FC@NCPEPIBI@?$AA?$CI?$AA?$CI?$AA_?$AAD?$AAs?$AAt?$AA?$CJ?$AA?$CJ?$AA?5?$AA?$CB?$AA?$DN?$AA?5?$AAN?$AAU?$AAL?$AAL?$AA?5?$AA?$CG?$AA?$CG?$AA?5?$AA?$CI?$AA?$CI?$AA_?$AAS?$AAi?$AAz?$AAe?$AAI?$AAn?$AAB?$AAy?$AAt@ 200a1118     LIBCMTD:strcpy_s.obj
 0002:0000f16c       ??_C@_0CP@MKONOLCI@f?3?2dd?2vctools?2crt_bld?2self_x86?2c@ 200a116c     LIBCMTD:mlock.obj
 0002:0000f1a0       ??_C@_1NK@LOFHIHFC@?$AAf?$AAM?$AAo?$AAd?$AAe?$AA?5?$AA?$DN?$AA?$DN?$AA?5?$AA_?$AAC?$AAR?$AAT?$AAD?$AAB?$AAG?$AA_?$AAR?$AAE?$AAP?$AAO?$AAR?$AAT?$AA_?$AAM?$AAO?$AAD?$AAE?$AA?5?$AA?$HM?$AA?$HM?$AA?5@ 200a11a0     LIBCMTD:dbgrptt.obj
 0002:0000f27c       ??_C@_1CE@FIHIECNJ@?$AA_?$AAC?$AAr?$AAt?$AAS?$AAe?$AAt?$AAR?$AAe?$AAp?$AAo?$AAr?$AAt?$AAM?$AAo?$AAd?$AAe?$AA?$AA@ 200a127c     LIBCMTD:dbgrptt.obj
 0002:0000f2a0       ??_C@_1GC@FIGJJMEN@?$AAf?$AA?3?$AA?2?$AAd?$AAd?$AA?2?$AAv?$AAc?$AAt?$AAo?$AAo?$AAl?$AAs?$AA?2?$AAc?$AAr?$AAt?$AA_?$AAb?$AAl?$AAd?$AA?2?$AAs?$AAe?$AAl?$AAf?$AA_?$AAx?$AA8?$AA6?$AA?2?$AAc@ 200a12a0     LIBCMTD:dbgrptt.obj
 0002:0000f308       ??_C@_1FA@IFFFOLDJ@?$AAn?$AAR?$AAp?$AAt?$AAT?$AAy?$AAp?$AAe?$AA?5?$AA?$DO?$AA?$DN?$AA?5?$AA0?$AA?5?$AA?$CG?$AA?$CG?$AA?5?$AAn?$AAR?$AAp?$AAt?$AAT?$AAy?$AAp?$AAe?$AA?5?$AA?$DM?$AA?5?$AA_?$AAC?$AAR?$AAT@ 200a1308     LIBCMTD:dbgrptt.obj
 0002:0000f358       ??_C@_1CE@IKKEDCME@?$AA_?$AAC?$AAr?$AAt?$AAS?$AAe?$AAt?$AAR?$AAe?$AAp?$AAo?$AAr?$AAt?$AAF?$AAi?$AAl?$AAe?$AA?$AA@ 200a1358     LIBCMTD:dbgrptt.obj
 0002:0000f380       ??_C@_1HO@PJOFIKFE@?$AA_?$AAC?$AAr?$AAt?$AAD?$AAb?$AAg?$AAR?$AAe?$AAp?$AAo?$AAr?$AAt?$AA?3?$AA?5?$AAS?$AAt?$AAr?$AAi?$AAn?$AAg?$AA?5?$AAt?$AAo?$AAo?$AA?5?$AAl?$AAo?$AAn?$AAg?$AA?5?$AAo@ 200a1380     LIBCMTD:dbgrptt.obj
 0002:0000f400       ??_C@_1MC@IGEECMDB@?$AAw?$AAc?$AAs?$AAc?$AAp?$AAy?$AA_?$AAs?$AA?$CI?$AAs?$AAz?$AAO?$AAu?$AAt?$AAM?$AAe?$AAs?$AAs?$AAa?$AAg?$AAe?$AA2?$AA?0?$AA?5?$AA4?$AA0?$AA9?$AA6?$AA?0?$AA?5?$AAL?$AA?$CC@ 200a1400     LIBCMTD:dbgrptt.obj
 0002:0000f4c8       ??_C@_1IM@OOKIFKOH@?$AAe?$AA?5?$AA?$DN?$AA?5?$AAm?$AAb?$AAs?$AAt?$AAo?$AAw?$AAc?$AAs?$AA_?$AAs?$AA?$CI?$AA?$CG?$AAr?$AAe?$AAt?$AA?0?$AA?5?$AAs?$AAz?$AAO?$AAu?$AAt?$AAM?$AAe?$AAs?$AAs?$AAa?$AAg@ 200a14c8     LIBCMTD:dbgrptt.obj
 0002:0000f558       ??_C@_1FI@IBIOIHEG@?$AAs?$AAt?$AAr?$AAc?$AAp?$AAy?$AA_?$AAs?$AA?$CI?$AAs?$AAz?$AAO?$AAu?$AAt?$AAM?$AAe?$AAs?$AAs?$AAa?$AAg?$AAe?$AA?0?$AA?5?$AA4?$AA0?$AA9?$AA6?$AA?0?$AA?5?$AAs?$AAz?$AAL@ 200a1558     LIBCMTD:dbgrptt.obj
 0002:0000f5b0       ??_C@_1JG@CPKCIOEE@?$AAs?$AAt?$AAr?$AAc?$AAp?$AAy?$AA_?$AAs?$AA?$CI?$AAs?$AAz?$AAO?$AAu?$AAt?$AAM?$AAe?$AAs?$AAs?$AAa?$AAg?$AAe?$AA?0?$AA?5?$AA4?$AA0?$AA9?$AA6?$AA?0?$AA?5?$AA?$CC?$AA_?$AAC@ 200a15b0     LIBCMTD:dbgrptt.obj
 0002:0000f648       ??_C@_0M@IPILFDFN@?$CFs?$CI?$CFd?$CJ?5?3?5?$CFs?$AA@ 200a1648     LIBCMTD:dbgrptt.obj
 0002:0000f658       ??_C@_1EI@LDHJEDO@?$AAs?$AAt?$AAr?$AAc?$AAa?$AAt?$AA_?$AAs?$AA?$CI?$AAs?$AAz?$AAL?$AAi?$AAn?$AAe?$AAM?$AAe?$AAs?$AAs?$AAa?$AAg?$AAe?$AA?0?$AA?5?$AA4?$AA0?$AA9?$AA6?$AA?0?$AA?5?$AA?$CC?$AA?2@ 200a1658     LIBCMTD:dbgrptt.obj
 0002:0000f6a0       ??_C@_01LIIJDEN@?$AN?$AA@  200a16a0     LIBCMTD:dbgrptt.obj
 0002:0000f6a8       ??_C@_1EI@CACDLAFK@?$AAs?$AAt?$AAr?$AAc?$AAa?$AAt?$AA_?$AAs?$AA?$CI?$AAs?$AAz?$AAL?$AAi?$AAn?$AAe?$AAM?$AAe?$AAs?$AAs?$AAa?$AAg?$AAe?$AA?0?$AA?5?$AA4?$AA0?$AA9?$AA6?$AA?0?$AA?5?$AA?$CC?$AA?2@ 200a16a8     LIBCMTD:dbgrptt.obj
 0002:0000f6f0       ??_C@_1FK@NPGBPOFO@?$AAs?$AAt?$AAr?$AAc?$AAa?$AAt?$AA_?$AAs?$AA?$CI?$AAs?$AAz?$AAL?$AAi?$AAn?$AAe?$AAM?$AAe?$AAs?$AAs?$AAa?$AAg?$AAe?$AA?0?$AA?5?$AA4?$AA0?$AA9?$AA6?$AA?0?$AA?5?$AAs?$AAz@ 200a16f0     LIBCMTD:dbgrptt.obj
 0002:0000f750       ??_C@_1KK@GIGAEDMO@?$AAs?$AAt?$AAr?$AAc?$AAp?$AAy?$AA_?$AAs?$AA?$CI?$AAs?$AAz?$AAL?$AAi?$AAn?$AAe?$AAM?$AAe?$AAs?$AAs?$AAa?$AAg?$AAe?$AA?0?$AA?5?$AA4?$AA0?$AA9?$AA6?$AA?0?$AA?5?$AAs?$AAz@ 200a1750     LIBCMTD:dbgrptt.obj
 0002:0000f7fc       ??_C@_0BC@LAIDCHCH@Assertion?5failed?$CB?$AA@ 200a17fc     LIBCMTD:dbgrptt.obj
 0002:0000f810       ??_C@_0BD@CAENFOHP@Assertion?5failed?3?5?$AA@ 200a1810     LIBCMTD:dbgrptt.obj
 0002:0000f824       ??_C@_0CL@EACFGMNB@_CrtDbgReport?3?5String?5too?5long?5o@ 200a1824     LIBCMTD:dbgrptt.obj
 0002:0000f850       ??_C@_1JI@GAALPGBM@?$AAs?$AAt?$AAr?$AAc?$AAp?$AAy?$AA_?$AAs?$AA?$CI?$AAs?$AAz?$AAU?$AAs?$AAe?$AAr?$AAM?$AAe?$AAs?$AAs?$AAa?$AAg?$AAe?$AA?0?$AA?5?$AA4?$AA0?$AA9?$AA6?$AA?0?$AA?5?$AA?$CC?$AA_@ 200a1850     LIBCMTD:dbgrptt.obj
 0002:0000f8e8       ??_C@_07BHGABMGB@?0?5Line?5?$AA@ 200a18e8     LIBCMTD:dbgrptt.obj
 0002:0000f8f0       ??_C@_0P@DFJNDPOP@?$DMfile?5unknown?$DO?$AA@ 200a18f0     LIBCMTD:dbgrptt.obj
 0002:0000f900       ??_C@_0CG@BNGLOCEO@Second?5Chance?5Assertion?5Failed?3?5@ 200a1900     LIBCMTD:dbgrptt.obj
 0002:0000f928       ??_C@_1FA@JPHJBHEM@?$AA_?$AAi?$AAt?$AAo?$AAa?$AA_?$AAs?$AA?$CI?$AAn?$AAL?$AAi?$AAn?$AAe?$AA?0?$AA?5?$AAs?$AAz?$AAL?$AAi?$AAn?$AAe?$AAM?$AAe?$AAs?$AAs?$AAa?$AAg?$AAe?$AA?0?$AA?5?$AA4?$AA0@ 200a1928     LIBCMTD:dbgrptt.obj
 0002:0000f978       ??_C@_1CA@KHJHLKA@?$AA_?$AAV?$AAC?$AAr?$AAt?$AAD?$AAb?$AAg?$AAR?$AAe?$AAp?$AAo?$AAr?$AAt?$AAA?$AA?$AA@ 200a1978     LIBCMTD:dbgrptt.obj
 0002:0000f998       ??_C@_1IE@CPGKIAGP@?$AAw?$AAc?$AAs?$AAt?$AAo?$AAm?$AAb?$AAs?$AA_?$AAs?$AA?$CI?$AA?$CG?$AAr?$AAe?$AAt?$AA?0?$AA?5?$AAs?$AAz?$AAa?$AAO?$AAu?$AAt?$AAM?$AAe?$AAs?$AAs?$AAa?$AAg?$AAe?$AA?0?$AA?5@ 200a1998     LIBCMTD:dbgrptt.obj
 0002:0000fa1c       ??_C@_0DP@GNPEPHJD@_CrtDbgReport?3?5String?5too?5long?5o@ 200a1a1c     LIBCMTD:dbgrptt.obj
 0002:0000fa60       ??_C@_1MA@LBAMNNOB@?$AAs?$AAt?$AAr?$AAc?$AAp?$AAy?$AA_?$AAs?$AA?$CI?$AAs?$AAz?$AAO?$AAu?$AAt?$AAM?$AAe?$AAs?$AAs?$AAa?$AAg?$AAe?$AA2?$AA?0?$AA?5?$AA4?$AA0?$AA9?$AA6?$AA?0?$AA?5?$AA?$CC?$AA_@ 200a1a60     LIBCMTD:dbgrptt.obj
 0002:0000fb20       ??_C@_1JC@EOAPFDLN@?$AAw?$AAc?$AAs?$AAt?$AAo?$AAm?$AAb?$AAs?$AA_?$AAs?$AA?$CI?$AA?$CI?$AA?$CI?$AAv?$AAo?$AAi?$AAd?$AA?5?$AA?$CK?$AA?$CJ?$AA0?$AA?$CJ?$AA?0?$AA?5?$AAs?$AAz?$AAO?$AAu?$AAt?$AAM?$AAe?$AAs@ 200a1b20     LIBCMTD:dbgrptt.obj
 0002:0000fbb8       ??_C@_1FI@DBAIJPJE@?$AAw?$AAc?$AAs?$AAc?$AAp?$AAy?$AA_?$AAs?$AA?$CI?$AAs?$AAz?$AAO?$AAu?$AAt?$AAM?$AAe?$AAs?$AAs?$AAa?$AAg?$AAe?$AA?0?$AA?5?$AA4?$AA0?$AA9?$AA6?$AA?0?$AA?5?$AAs?$AAz?$AAL@ 200a1bb8     LIBCMTD:dbgrptt.obj
 0002:0000fc10       ??_C@_1BI@JIDBEPIG@?$AA?$CF?$AAs?$AA?$CI?$AA?$CF?$AAd?$AA?$CJ?$AA?5?$AA?3?$AA?5?$AA?$CF?$AAs?$AA?$AA@ 200a1c10     LIBCMTD:dbgrptt.obj
 0002:0000fc28       ??_C@_1EK@PHCBEDKB@?$AAw?$AAc?$AAs?$AAc?$AAa?$AAt?$AA_?$AAs?$AA?$CI?$AAs?$AAz?$AAL?$AAi?$AAn?$AAe?$AAM?$AAe?$AAs?$AAs?$AAa?$AAg?$AAe?$AA?0?$AA?5?$AA4?$AA0?$AA9?$AA6?$AA?0?$AA?5?$AAL?$AA?$CC@ 200a1c28     LIBCMTD:dbgrptt.obj
 0002:0000fc74       ??_C@_13CMNBPIDO@?$AA?$AN?$AA?$AA@ 200a1c74     LIBCMTD:dbgrptt.obj
 0002:0000fc78       ??_C@_1EK@NMDFGHMF@?$AAw?$AAc?$AAs?$AAc?$AAa?$AAt?$AA_?$AAs?$AA?$CI?$AAs?$AAz?$AAL?$AAi?$AAn?$AAe?$AAM?$AAe?$AAs?$AAs?$AAa?$AAg?$AAe?$AA?0?$AA?5?$AA4?$AA0?$AA9?$AA6?$AA?0?$AA?5?$AAL?$AA?$CC@ 200a1c78     LIBCMTD:dbgrptt.obj
 0002:0000fcc8       ??_C@_1FK@HPADHBBD@?$AAw?$AAc?$AAs?$AAc?$AAa?$AAt?$AA_?$AAs?$AA?$CI?$AAs?$AAz?$AAL?$AAi?$AAn?$AAe?$AAM?$AAe?$AAs?$AAs?$AAa?$AAg?$AAe?$AA?0?$AA?5?$AA4?$AA0?$AA9?$AA6?$AA?0?$AA?5?$AAs?$AAz@ 200a1cc8     LIBCMTD:dbgrptt.obj
 0002:0000fd28       ??_C@_1KO@DGAHENCH@?$AAw?$AAc?$AAs?$AAc?$AAp?$AAy?$AA_?$AAs?$AA?$CI?$AAs?$AAz?$AAL?$AAi?$AAn?$AAe?$AAM?$AAe?$AAs?$AAs?$AAa?$AAg?$AAe?$AA?0?$AA?5?$AA4?$AA0?$AA9?$AA6?$AA?0?$AA?5?$AAs?$AAz@ 200a1d28     LIBCMTD:dbgrptt.obj
 0002:0000fdd8       ??_C@_1CE@OJBNHDMO@?$AAA?$AAs?$AAs?$AAe?$AAr?$AAt?$AAi?$AAo?$AAn?$AA?5?$AAf?$AAa?$AAi?$AAl?$AAe?$AAd?$AA?$CB?$AA?$AA@ 200a1dd8     LIBCMTD:dbgrptt.obj
 0002:0000fdfc       ??_C@_1CG@FFFGGODN@?$AAA?$AAs?$AAs?$AAe?$AAr?$AAt?$AAi?$AAo?$AAn?$AA?5?$AAf?$AAa?$AAi?$AAl?$AAe?$AAd?$AA?3?$AA?5?$AA?$AA@ 200a1dfc     LIBCMTD:dbgrptt.obj
 0002:0000fe28       ??_C@_1JK@KHFABAEO@?$AAw?$AAc?$AAs?$AAc?$AAp?$AAy?$AA_?$AAs?$AA?$CI?$AAs?$AAz?$AAU?$AAs?$AAe?$AAr?$AAM?$AAe?$AAs?$AAs?$AAa?$AAg?$AAe?$AA?0?$AA?5?$AA4?$AA0?$AA9?$AA6?$AA?0?$AA?5?$AAL?$AA?$CC@ 200a1e28     LIBCMTD:dbgrptt.obj
 0002:0000fec4       ??_C@_13LBAGMAIH@?$AA?6?$AA?$AA@ 200a1ec4     LIBCMTD:dbgrptt.obj
 0002:0000fec8       ??_C@_1BA@ELMMDCFC@?$AA?0?$AA?5?$AAL?$AAi?$AAn?$AAe?$AA?5?$AA?$AA@ 200a1ec8     LIBCMTD:dbgrptt.obj
 0002:0000fed8       ??_C@_1BO@OCHMLCAG@?$AA?$DM?$AAf?$AAi?$AAl?$AAe?$AA?5?$AAu?$AAn?$AAk?$AAn?$AAo?$AAw?$AAn?$AA?$DO?$AA?$AA@ 200a1ed8     LIBCMTD:dbgrptt.obj
 0002:0000fef8       ??_C@_1EM@MJFLEDMB@?$AAS?$AAe?$AAc?$AAo?$AAn?$AAd?$AA?5?$AAC?$AAh?$AAa?$AAn?$AAc?$AAe?$AA?5?$AAA?$AAs?$AAs?$AAe?$AAr?$AAt?$AAi?$AAo?$AAn?$AA?5?$AAF?$AAa?$AAi?$AAl?$AAe?$AAd?$AA?3?$AA?5@ 200a1ef8     LIBCMTD:dbgrptt.obj
 0002:0000ff48       ??_C@_1FA@CNLLOMHI@?$AA_?$AAi?$AAt?$AAo?$AAw?$AA_?$AAs?$AA?$CI?$AAn?$AAL?$AAi?$AAn?$AAe?$AA?0?$AA?5?$AAs?$AAz?$AAL?$AAi?$AAn?$AAe?$AAM?$AAe?$AAs?$AAs?$AAa?$AAg?$AAe?$AA?0?$AA?5?$AA4?$AA0@ 200a1f48     LIBCMTD:dbgrptt.obj
 0002:0000ff98       ??_C@_1CA@HPALHDOD@?$AA_?$AAV?$AAC?$AAr?$AAt?$AAD?$AAb?$AAg?$AAR?$AAe?$AAp?$AAo?$AAr?$AAt?$AAW?$AA?$AA@ 200a1f98     LIBCMTD:dbgrptt.obj
 0002:0000ffb8       ??_C@_1O@EJLDHPPL@?$AAs?$AAi?$AAg?$AAn?$AAa?$AAl?$AA?$AA@ 200a1fb8     LIBCMTD:winsig.obj
 0002:0000ffc8       ??_C@_1GA@DBECNFG@?$AAf?$AA?3?$AA?2?$AAd?$AAd?$AA?2?$AAv?$AAc?$AAt?$AAo?$AAo?$AAl?$AAs?$AA?2?$AAc?$AAr?$AAt?$AA_?$AAb?$AAl?$AAd?$AA?2?$AAs?$AAe?$AAl?$AAf?$AA_?$AAx?$AA8?$AA6?$AA?2?$AAc@ 200a1fc8     LIBCMTD:winsig.obj
 0002:00010028       ??_C@_1DO@MLNEDKGB@?$AA?$CI?$AA?$CC?$AAI?$AAn?$AAv?$AAa?$AAl?$AAi?$AAd?$AA?5?$AAs?$AAi?$AAg?$AAn?$AAa?$AAl?$AA?5?$AAo?$AAr?$AA?5?$AAe?$AAr?$AAr?$AAo?$AAr?$AA?$CC?$AA?0?$AA?5?$AA0?$AA?$CJ?$AA?$AA@ 200a2028     LIBCMTD:winsig.obj
 0002:00010068       ??_C@_0DA@ELJOOIJF@f?3?2dd?2vctools?2crt_bld?2self_x86?2c@ 200a2068     LIBCMTD:winsig.obj
 0002:00010098       ??_C@_1M@DMJEIKHL@?$AAr?$AAa?$AAi?$AAs?$AAe?$AA?$AA@ 200a2098     LIBCMTD:winsig.obj
 0002:000100a4       ??_C@_0BI@DFKBFLJE@GetProcessWindowStation?$AA@ 200a20a4     LIBCMTD:crtmboxw.obj
 0002:000100bc       ??_C@_0BK@DEKFELLI@GetUserObjectInformationW?$AA@ 200a20bc     LIBCMTD:crtmboxw.obj
 0002:000100d8       ??_C@_0BD@HHGDFDBJ@GetLastActivePopup?$AA@ 200a20d8     LIBCMTD:crtmboxw.obj
 0002:000100ec       ??_C@_0BA@HNOPNCHB@GetActiveWindow?$AA@ 200a20ec     LIBCMTD:crtmboxw.obj
 0002:000100fc       ??_C@_0M@DLDCCGNP@MessageBoxW?$AA@ 200a20fc     LIBCMTD:crtmboxw.obj
 0002:00010108       ??_C@_1BG@GOEBHBDC@?$AAU?$AAS?$AAE?$AAR?$AA3?$AA2?$AA?4?$AAD?$AAL?$AAL?$AA?$AA@ 200a2108     LIBCMTD:crtmboxw.obj
 0002:00010120       ??_C@_1BE@BMIJMLDD@?$AA_?$AAs?$AAw?$AAp?$AAr?$AAi?$AAn?$AAt?$AAf?$AA?$AA@ 200a2120     LIBCMTD:swprintf.obj
 0002:00010138       ??_C@_1GE@DKGHLBLP@?$AAf?$AA?3?$AA?2?$AAd?$AAd?$AA?2?$AAv?$AAc?$AAt?$AAo?$AAo?$AAl?$AAs?$AA?2?$AAc?$AAr?$AAt?$AA_?$AAb?$AAl?$AAd?$AA?2?$AAs?$AAe?$AAl?$AAf?$AA_?$AAx?$AA8?$AA6?$AA?2?$AAc@ 200a2138     LIBCMTD:swprintf.obj
 0002:0001019c       ??_C@_1BC@KIONAFPO@?$AAw?$AAc?$AAs?$AAc?$AAp?$AAy?$AA_?$AAs?$AA?$AA@ 200a219c     LIBCMTD:wcscpy_s.obj
 0002:000101b0       ??_C@_1FC@PFMLEHKI@?$AA?$CI?$AA?$CI?$AA_?$AAD?$AAs?$AAt?$AA?$CJ?$AA?$CJ?$AA?5?$AA?$CB?$AA?$DN?$AA?5?$AAN?$AAU?$AAL?$AAL?$AA?5?$AA?$CG?$AA?$CG?$AA?5?$AA?$CI?$AA?$CI?$AA_?$AAS?$AAi?$AAz?$AAe?$AAI?$AAn?$AAW?$AAo?$AAr@ 200a21b0     LIBCMTD:wcscpy_s.obj
 0002:00010204       ??_C@_1BE@KHFBJMNM@?$AA_?$AAl?$AAs?$AAe?$AAe?$AAk?$AAi?$AA6?$AA4?$AA?$AA@ 200a2204     LIBCMTD:lseeki64.obj
 0002:00010218       ??_C@_1GE@MINKPNPH@?$AAf?$AA?3?$AA?2?$AAd?$AAd?$AA?2?$AAv?$AAc?$AAt?$AAo?$AAo?$AAl?$AAs?$AA?2?$AAc?$AAr?$AAt?$AA_?$AAb?$AAl?$AAd?$AA?2?$AAs?$AAe?$AAl?$AAf?$AA_?$AAx?$AA8?$AA6?$AA?2?$AAc@ 200a2218     LIBCMTD:lseeki64.obj
 0002:0001027c       ??_C@_0DB@JEHOCBEJ@f?3?2dd?2vctools?2crt_bld?2self_x86?2c@ 200a227c     LIBCMTD:_getbuf.obj
 0002:000102b0       ??_C@_1GC@DKMGNNCC@?$AAf?$AA?3?$AA?2?$AAd?$AAd?$AA?2?$AAv?$AAc?$AAt?$AAo?$AAo?$AAl?$AAs?$AA?2?$AAc?$AAr?$AAt?$AA_?$AAb?$AAl?$AAd?$AA?2?$AAs?$AAe?$AAl?$AAf?$AA_?$AAx?$AA8?$AA6?$AA?2?$AAc@ 200a22b0     LIBCMTD:_getbuf.obj
 0002:00010314       ??_C@_1BA@LEBDGIHM@?$AA_?$AAi?$AAs?$AAa?$AAt?$AAt?$AAy?$AA?$AA@ 200a2314     LIBCMTD:isatty.obj
 0002:00010328       ??_C@_1GA@LPGDJDEN@?$AAf?$AA?3?$AA?2?$AAd?$AAd?$AA?2?$AAv?$AAc?$AAt?$AAo?$AAo?$AAl?$AAs?$AA?2?$AAc?$AAr?$AAt?$AA_?$AAb?$AAl?$AAd?$AA?2?$AAs?$AAe?$AAl?$AAf?$AA_?$AAx?$AA8?$AA6?$AA?2?$AAc@ 200a2328     LIBCMTD:isatty.obj
 0002:00010388       ??_C@_1O@GKDHFACN@?$AAp?$AAr?$AAi?$AAn?$AAt?$AAf?$AA?$AA@ 200a2388     LIBCMTD:printf.obj
 0002:00010398       ??_C@_1GA@LHEGHOAF@?$AAf?$AA?3?$AA?2?$AAd?$AAd?$AA?2?$AAv?$AAc?$AAt?$AAo?$AAo?$AAl?$AAs?$AA?2?$AAc?$AAr?$AAt?$AA_?$AAb?$AAl?$AAd?$AA?2?$AAs?$AAe?$AAl?$AAf?$AA_?$AAx?$AA8?$AA6?$AA?2?$AAc@ 200a2398     LIBCMTD:printf.obj
 0002:000103f8       ??_C@_1BI@IEADNOHF@?$AA_?$AAw?$AAc?$AAt?$AAo?$AAm?$AAb?$AA_?$AAs?$AA_?$AAl?$AA?$AA@ 200a23f8     LIBCMTD:wctomb.obj
 0002:00010410       ??_C@_1GA@LDLHPOO@?$AAf?$AA?3?$AA?2?$AAd?$AAd?$AA?2?$AAv?$AAc?$AAt?$AAo?$AAo?$AAl?$AAs?$AA?2?$AAc?$AAr?$AAt?$AA_?$AAb?$AAl?$AAd?$AA?2?$AAs?$AAe?$AAl?$AAf?$AA_?$AAx?$AA8?$AA6?$AA?2?$AAc@ 200a2410     LIBCMTD:wctomb.obj
 0002:00010470       ??_C@_1CO@HFMIILNF@?$AAs?$AAi?$AAz?$AAe?$AAI?$AAn?$AAB?$AAy?$AAt?$AAe?$AAs?$AA?5?$AA?$DM?$AA?$DN?$AA?5?$AAI?$AAN?$AAT?$AA_?$AAM?$AAA?$AAX?$AA?$AA@ 200a2470     LIBCMTD:wctomb.obj
 0002:000104a0       ___lookuptable_s           200a24a0     LIBCMTD:outputs.obj
 0002:000104fc       ??_C@_1BI@COFBLHCG@?$AA_?$AAo?$AAu?$AAt?$AAp?$AAu?$AAt?$AA_?$AAs?$AA_?$AAl?$AA?$AA@ 200a24fc     LIBCMTD:outputs.obj
 0002:00010518       ??_C@_1GG@CDHAPCGF@?$AAf?$AA?3?$AA?2?$AAd?$AAd?$AA?2?$AAv?$AAc?$AAt?$AAo?$AAo?$AAl?$AAs?$AA?2?$AAc?$AAr?$AAt?$AA_?$AAb?$AAl?$AAd?$AA?2?$AAs?$AAe?$AAl?$AAf?$AA_?$AAx?$AA8?$AA6?$AA?2?$AAc@ 200a2518     LIBCMTD:handler.obj
 0002:00010580       ??_C@_1BC@JLLICHIC@?$AAp?$AAn?$AAh?$AA?5?$AA?$DN?$AA?$DN?$AA?5?$AA0?$AA?$AA@ 200a2580     LIBCMTD:handler.obj
 0002:00010594       ??_C@_03KHICJKCI@?4?4?4?$AA@ 200a2594     LIBCMTD:dbgrpt.obj
 0002:00010598       ??_C@_0BB@NAGLCMLI@Assertion?5Failed?$AA@ 200a2598     LIBCMTD:dbgrpt.obj
 0002:000105ac       ??_C@_05NAOIJFC@Error?$AA@ 200a25ac     LIBCMTD:dbgrpt.obj
 0002:000105b4       ??_C@_07KGMMFLDN@Warning?$AA@ 200a25b4     LIBCMTD:dbgrpt.obj
 0002:000105c8       ??_C@_1CG@GNMJDMIO@?$AA_?$AAC?$AAr?$AAt?$AAS?$AAe?$AAt?$AAR?$AAe?$AAp?$AAo?$AAr?$AAt?$AAH?$AAo?$AAo?$AAk?$AA2?$AA?$AA@ 200a25c8     LIBCMTD:dbgrpt.obj
 0002:000105f0       ??_C@_0CD@EBCGLDDL@Microsoft?5Visual?5C?$CL?$CL?5Debug?5Libra@ 200a25f0     LIBCMTD:dbgrpt.obj
 0002:00010618       ??_C@_0FF@CCONDJCB@Debug?5?$CFs?$CB?6?6Program?3?5?$CFs?$CFs?$CFs?$CFs?$CFs?$CFs@ 200a2618     LIBCMTD:dbgrpt.obj
 0002:00010670       ??_C@_09OFBFHMBK@?6Module?3?5?$AA@ 200a2670     LIBCMTD:dbgrpt.obj
 0002:0001067c       ??_C@_07OPHPPLBG@?6File?3?5?$AA@ 200a267c     LIBCMTD:dbgrpt.obj
 0002:00010684       ??_C@_07DBMPPHDI@?6Line?3?5?$AA@ 200a2684     LIBCMTD:dbgrpt.obj
 0002:0001068c       ??_C@_02PHMGELLB@?6?6?$AA@ 200a268c     LIBCMTD:dbgrpt.obj
 0002:00010690       ??_C@_0N@MEECIJGN@Expression?3?5?$AA@ 200a2690     LIBCMTD:dbgrpt.obj
 0002:000106a0       ??_C@_0HD@GNBNFCCL@?6?6For?5information?5on?5how?5your?5pr@ 200a26a0     LIBCMTD:dbgrpt.obj
 0002:00010714       ??_C@_0BH@DNAGHKFM@?$DMprogram?5name?5unknown?$DO?$AA@ 200a2714     LIBCMTD:dbgrpt.obj
 0002:00010730       ??_C@_1GG@DLDHOIGE@?$AAs?$AAt?$AAr?$AAc?$AAp?$AAy?$AA_?$AAs?$AA?$CI?$AAs?$AAz?$AAE?$AAx?$AAe?$AAN?$AAa?$AAm?$AAe?$AA?0?$AA?5?$AA2?$AA6?$AA0?$AA?0?$AA?5?$AA?$CC?$AA?$DM?$AAp?$AAr?$AAo?$AAg?$AAr@ 200a2730     LIBCMTD:dbgrpt.obj
 0002:00010798       ??_C@_1CI@IDOKFLAJ@?$AA_?$AA_?$AAc?$AAr?$AAt?$AAM?$AAe?$AAs?$AAs?$AAa?$AAg?$AAe?$AAW?$AAi?$AAn?$AAd?$AAo?$AAw?$AAA?$AA?$AA@ 200a2798     LIBCMTD:dbgrpt.obj
 0002:000107c0       ??_C@_1BK@JMCGJOCC@?$AA_?$AAe?$AAx?$AAp?$AAa?$AAn?$AAd?$AA_?$AAb?$AAa?$AAs?$AAe?$AA?$AA@ 200a27c0     LIBCMTD:expand.obj
 0002:000107e0       ??_C@_1GA@EBHFLDNH@?$AAf?$AA?3?$AA?2?$AAd?$AAd?$AA?2?$AAv?$AAc?$AAt?$AAo?$AAo?$AAl?$AAs?$AA?2?$AAc?$AAr?$AAt?$AA_?$AAb?$AAl?$AAd?$AA?2?$AAs?$AAe?$AAl?$AAf?$AA_?$AAx?$AA8?$AA6?$AA?2?$AAc@ 200a27e0     LIBCMTD:expand.obj
 0002:00010840       ??_C@_1BO@KFIJIAEA@?$AAp?$AAB?$AAl?$AAo?$AAc?$AAk?$AA?5?$AA?$CB?$AA?$DN?$AA?5?$AAN?$AAU?$AAL?$AAL?$AA?$AA@ 200a2840     LIBCMTD:expand.obj
 0002:00010860       ??_C@_1BE@NDMJHJJG@?$AAs?$AAt?$AAr?$AAn?$AAc?$AAp?$AAy?$AA_?$AAs?$AA?$AA@ 200a2860     LIBCMTD:strncpy_s.obj
 0002:00010878       ??_C@_1GK@PAJJBKJF@?$AAf?$AA?3?$AA?2?$AAd?$AAd?$AA?2?$AAv?$AAc?$AAt?$AAo?$AAo?$AAl?$AAs?$AA?2?$AAc?$AAr?$AAt?$AA_?$AAb?$AAl?$AAd?$AA?2?$AAs?$AAe?$AAl?$AAf?$AA_?$AAx?$AA8?$AA6?$AA?2?$AAc@ 200a2878     LIBCMTD:strncpy_s.obj
 0002:000108e8       ??_C@_1FA@HILOOCMA@?$AA?$CI?$AA_?$AAt?$AAc?$AAs?$AAn?$AAl?$AAe?$AAn?$AA?$CI?$AAo?$AAp?$AAt?$AAi?$AAo?$AAn?$AA?0?$AA?5?$AA_?$AAM?$AAA?$AAX?$AA_?$AAE?$AAN?$AAV?$AA?$CJ?$AA?5?$AA?$DM?$AA?5?$AA_?$AAM@ 200a28e8     LIBCMTD:getenv.obj
 0002:00010938       ??_C@_1O@GMKGKCJO@?$AAg?$AAe?$AAt?$AAe?$AAn?$AAv?$AA?$AA@ 200a2938     LIBCMTD:getenv.obj
 0002:00010948       ??_C@_1GA@IPPICGKB@?$AAf?$AA?3?$AA?2?$AAd?$AAd?$AA?2?$AAv?$AAc?$AAt?$AAo?$AAo?$AAl?$AAs?$AA?2?$AAc?$AAr?$AAt?$AA_?$AAb?$AAl?$AAd?$AA?2?$AAs?$AAe?$AAl?$AAf?$AA_?$AAx?$AA8?$AA6?$AA?2?$AAc@ 200a2948     LIBCMTD:getenv.obj
 0002:000109a8       ??_C@_1CC@FKAOHHLO@?$AA?$CI?$AAo?$AAp?$AAt?$AAi?$AAo?$AAn?$AA?5?$AA?$CB?$AA?$DN?$AA?5?$AAN?$AAU?$AAL?$AAL?$AA?$CJ?$AA?$AA@ 200a29a8     LIBCMTD:getenv.obj
 0002:000109d0       ??_C@_1GI@JBIFPFJH@?$AA_?$AAt?$AAc?$AAs?$AAn?$AAl?$AAe?$AAn?$AA?$CI?$AA?$CK?$AAs?$AAe?$AAa?$AAr?$AAc?$AAh?$AA?5?$AA?$CL?$AA?5?$AAl?$AAe?$AAn?$AAg?$AAt?$AAh?$AA?5?$AA?$CL?$AA?5?$AA1?$AA?0?$AA?5?$AA_@ 200a29d0     LIBCMTD:getenv.obj
 0002:00010a38       ??_C@_1EI@HHOBPCFK@?$AAs?$AAt?$AAr?$AAc?$AAp?$AAy?$AA_?$AAs?$AA?$CI?$AAb?$AAu?$AAf?$AAf?$AAe?$AAr?$AA?0?$AA?5?$AAs?$AAi?$AAz?$AAe?$AAI?$AAn?$AAT?$AAC?$AAh?$AAa?$AAr?$AAs?$AA?0?$AA?5?$AAs@ 200a2a38     LIBCMTD:getenv.obj
 0002:00010a80       ??_C@_1JM@NLPGJJPH@?$AA?$CI?$AAb?$AAu?$AAf?$AAf?$AAe?$AAr?$AA?5?$AA?$CB?$AA?$DN?$AA?5?$AAN?$AAU?$AAL?$AAL?$AA?5?$AA?$CG?$AA?$CG?$AA?5?$AAs?$AAi?$AAz?$AAe?$AAI?$AAn?$AAT?$AAC?$AAh?$AAa?$AAr?$AAs?$AA?5@ 200a2a80     LIBCMTD:getenv.obj
 0002:00010b1c       ??_C@_1CC@BAJKDIIF@?$AA_?$AAg?$AAe?$AAt?$AAe?$AAn?$AAv?$AA_?$AAs?$AA_?$AAh?$AAe?$AAl?$AAp?$AAe?$AAr?$AA?$AA@ 200a2b1c     LIBCMTD:getenv.obj
 0002:00010b40       ??_C@_1CK@PIKDAOCL@?$AAp?$AAR?$AAe?$AAt?$AAu?$AAr?$AAn?$AAV?$AAa?$AAl?$AAu?$AAe?$AA?5?$AA?$CB?$AA?$DN?$AA?5?$AAN?$AAU?$AAL?$AAL?$AA?$AA@ 200a2b40     LIBCMTD:getenv.obj
 0002:00010b6c       ??_C@_1DM@GNKNEGJO@?$AAs?$AAt?$AAr?$AAc?$AAp?$AAy?$AA_?$AAs?$AA?$CI?$AA?$CK?$AAp?$AAB?$AAu?$AAf?$AAf?$AAe?$AAr?$AA?0?$AA?5?$AAs?$AAi?$AAz?$AAe?$AA?0?$AA?5?$AAs?$AAt?$AAr?$AA?$CJ?$AA?$AA@ 200a2b6c     LIBCMTD:getenv.obj
 0002:00010ba8       ??_C@_1CA@GDBKELOE@?$AAv?$AAa?$AAr?$AAn?$AAa?$AAm?$AAe?$AA?5?$AA?$CB?$AA?$DN?$AA?5?$AAN?$AAU?$AAL?$AAL?$AA?$AA@ 200a2ba8     LIBCMTD:getenv.obj
 0002:00010bc8       ??_C@_1CC@KPLOPIEM@?$AA_?$AAd?$AAu?$AAp?$AAe?$AAn?$AAv?$AA_?$AAs?$AA_?$AAh?$AAe?$AAl?$AAp?$AAe?$AAr?$AA?$AA@ 200a2bc8     LIBCMTD:getenv.obj
 0002:00010bec       ??_C@_1CA@FHNFMDOJ@?$AAp?$AAB?$AAu?$AAf?$AAf?$AAe?$AAr?$AA?5?$AA?$CB?$AA?$DN?$AA?5?$AAN?$AAU?$AAL?$AAL?$AA?$AA@ 200a2bec     LIBCMTD:getenv.obj
 0002:00010c0c       ??_C@_1DG@NMBGBDM@?$AAp?$AAl?$AAo?$AAc?$AAi?$AA?9?$AA?$DO?$AAc?$AAt?$AAy?$AAp?$AAe?$AA1?$AA_?$AAr?$AAe?$AAf?$AAc?$AAo?$AAu?$AAn?$AAt?$AA?5?$AA?$DO?$AA?5?$AA0?$AA?$AA@ 200a2c0c     LIBCMTD:initctyp.obj
 0002:00010c48       ??_C@_1GE@OCPKBDKE@?$AAf?$AA?3?$AA?2?$AAd?$AAd?$AA?2?$AAv?$AAc?$AAt?$AAo?$AAo?$AAl?$AAs?$AA?2?$AAc?$AAr?$AAt?$AA_?$AAb?$AAl?$AAd?$AA?2?$AAs?$AAe?$AAl?$AAf?$AA_?$AAx?$AA8?$AA6?$AA?2?$AAc@ 200a2c48     LIBCMTD:initctyp.obj
 0002:00010cac       ??_C@_0DC@EHLBFILA@f?3?2dd?2vctools?2crt_bld?2self_x86?2c@ 200a2cac     LIBCMTD:initctyp.obj
 0002:00010ce0       ??_C@_0DB@KIKNCIEC@f?3?2dd?2vctools?2crt_bld?2self_x86?2c@ 200a2ce0     LIBCMTD:osfinfo.obj
 0002:00010d14       ??_C@_1BO@EMBOBGKE@?$AA_?$AAg?$AAe?$AAt?$AA_?$AAo?$AAs?$AAf?$AAh?$AAa?$AAn?$AAd?$AAl?$AAe?$AA?$AA@ 200a2d14     LIBCMTD:osfinfo.obj
 0002:00010d38       ??_C@_1GC@MLKLDJJG@?$AAf?$AA?3?$AA?2?$AAd?$AAd?$AA?2?$AAv?$AAc?$AAt?$AAo?$AAo?$AAl?$AAs?$AA?2?$AAc?$AAr?$AAt?$AA_?$AAb?$AAl?$AAd?$AA?2?$AAs?$AAe?$AAl?$AAf?$AA_?$AAx?$AA8?$AA6?$AA?2?$AAc@ 200a2d38     LIBCMTD:osfinfo.obj
 0002:00010da0       ??_C@_1GA@GFFDGGFH@?$AAf?$AA?3?$AA?2?$AAd?$AAd?$AA?2?$AAv?$AAc?$AAt?$AAo?$AAo?$AAl?$AAs?$AA?2?$AAc?$AAr?$AAt?$AA_?$AAb?$AAl?$AAd?$AA?2?$AAs?$AAe?$AAl?$AAf?$AA_?$AAx?$AA8?$AA6?$AA?2?$AAc@ 200a2da0     LIBCMTD:mbtowc.obj
 0002:00010e00       ??_C@_1NC@EINCOKCO@?$AA_?$AAl?$AAo?$AAc?$AA_?$AAu?$AAp?$AAd?$AAa?$AAt?$AAe?$AA?4?$AAG?$AAe?$AAt?$AAL?$AAo?$AAc?$AAa?$AAl?$AAe?$AAT?$AA?$CI?$AA?$CJ?$AA?9?$AA?$DO?$AAl?$AAo?$AAc?$AAi?$AAn?$AAf@ 200a2e00     LIBCMTD:mbtowc.obj
 0002:00010ed4       ??_C@_1DG@LNNHNFHJ@?$AA?$CI?$AA_?$AAo?$AAs?$AAf?$AAi?$AAl?$AAe?$AA?$CI?$AAf?$AAi?$AAl?$AAe?$AAd?$AAe?$AAs?$AA?$CJ?$AA?5?$AA?$CG?$AA?5?$AAF?$AAO?$AAP?$AAE?$AAN?$AA?$CJ?$AA?$AA@ 200a2ed4     LIBCMTD:commit.obj
 0002:00010f0c       ??_C@_1BA@FLNMBBIM@?$AA_?$AAc?$AAo?$AAm?$AAm?$AAi?$AAt?$AA?$AA@ 200a2f0c     LIBCMTD:commit.obj
 0002:00010f20       ??_C@_1GA@BOPCOCFN@?$AAf?$AA?3?$AA?2?$AAd?$AAd?$AA?2?$AAv?$AAc?$AAt?$AAo?$AAo?$AAl?$AAs?$AA?2?$AAc?$AAr?$AAt?$AA_?$AAb?$AAl?$AAd?$AA?2?$AAs?$AAe?$AAl?$AAf?$AA_?$AAx?$AA8?$AA6?$AA?2?$AAc@ 200a2f20     LIBCMTD:commit.obj
 0002:00010f80       ??_C@_1HC@KFLBHHBC@?$AA?$CI?$AAf?$AAi?$AAl?$AAe?$AAd?$AAe?$AAs?$AA?5?$AA?$DO?$AA?$DN?$AA?5?$AA0?$AA?5?$AA?$CG?$AA?$CG?$AA?5?$AA?$CI?$AAu?$AAn?$AAs?$AAi?$AAg?$AAn?$AAe?$AAd?$AA?$CJ?$AAf?$AAi?$AAl?$AAe?$AAd@ 200a2f80     LIBCMTD:commit.obj
 0002:00010ff4       ??_C@_1M@MFLJCMFJ@?$AA_?$AAo?$AAp?$AAe?$AAn?$AA?$AA@ 200a2ff4     LIBCMTD:open.obj
 0002:00011000       ??_C@_1FM@LFKHNNH@?$AAf?$AA?3?$AA?2?$AAd?$AAd?$AA?2?$AAv?$AAc?$AAt?$AAo?$AAo?$AAl?$AAs?$AA?2?$AAc?$AAr?$AAt?$AA_?$AAb?$AAl?$AAd?$AA?2?$AAs?$AAe?$AAl?$AAf?$AA_?$AAx?$AA8?$AA6?$AA?2?$AAc@ 200a3000     LIBCMTD:open.obj
 0002:0001105c       ??_C@_1BO@DPAOGEII@?$AA?$CI?$AAp?$AAa?$AAt?$AAh?$AA?5?$AA?$CB?$AA?$DN?$AA?5?$AAN?$AAU?$AAL?$AAL?$AA?$CJ?$AA?$AA@ 200a305c     LIBCMTD:open.obj
 0002:00011080       ??_C@_1FG@NFINBJCM@?$AA?$CI?$AA?$CI?$AAp?$AAm?$AAo?$AAd?$AAe?$AA?5?$AA?$CG?$AA?5?$AA?$CI?$AA?$HO?$AA?$CI?$AA_?$AAS?$AA_?$AAI?$AAR?$AAE?$AAA?$AAD?$AA?5?$AA?$HM?$AA?5?$AA_?$AAS?$AA_?$AAI?$AAW?$AAR?$AAI?$AAT@ 200a3080     LIBCMTD:open.obj
 0002:000110d8       ??_C@_1BM@IOBAMMHO@?$AA_?$AAs?$AAo?$AAp?$AAe?$AAn?$AA_?$AAh?$AAe?$AAl?$AAp?$AAe?$AAr?$AA?$AA@ 200a30d8     LIBCMTD:open.obj
 0002:000110f4       ??_C@_1BM@PGEEHLHE@?$AA?$CI?$AAp?$AAf?$AAh?$AA?5?$AA?$CB?$AA?$DN?$AA?5?$AAN?$AAU?$AAL?$AAL?$AA?$CJ?$AA?$AA@ 200a30f4     LIBCMTD:open.obj
 0002:00011110       ??_C@_1IA@IENOJNJF@?$AA0?$AA?5?$AA?$CG?$AA?$CG?$AA?5?$AA?$CC?$AAO?$AAn?$AAl?$AAy?$AA?5?$AAU?$AAT?$AAF?$AA?9?$AA1?$AA6?$AA?5?$AAl?$AAi?$AAt?$AAt?$AAl?$AAe?$AA?5?$AAe?$AAn?$AAd?$AAi?$AAa?$AAn?$AA?5@ 200a3110     LIBCMTD:open.obj
 0002:00011190       ??_C@_1CM@IDLMKMPG@?$AA0?$AA?5?$AA?$CG?$AA?$CG?$AA?5?$AA?$CC?$AAI?$AAn?$AAt?$AAe?$AAr?$AAn?$AAa?$AAl?$AA?5?$AAE?$AAr?$AAr?$AAo?$AAr?$AA?$CC?$AA?$AA@ 200a3190     LIBCMTD:open.obj
 0002:000111c0       ??_C@_1HM@GJANBLHJ@?$AA?$CI?$AAo?$AAf?$AAl?$AAa?$AAg?$AA?5?$AA?$CG?$AA?5?$AA?$CI?$AA_?$AAO?$AA_?$AAT?$AAE?$AAX?$AAT?$AA?5?$AA?$HM?$AA?5?$AA_?$AAO?$AA_?$AAW?$AAT?$AAE?$AAX?$AAT?$AA?5?$AA?$HM?$AA?5?$AA_@ 200a31c0     LIBCMTD:open.obj
 0002:0001123c       ??_C@_1DO@PJLMOANO@?$AA?$CI?$AA?5?$AA?$CC?$AAI?$AAn?$AAv?$AAa?$AAl?$AAi?$AAd?$AA?5?$AAs?$AAh?$AAa?$AAr?$AAi?$AAn?$AAg?$AA?5?$AAf?$AAl?$AAa?$AAg?$AA?$CC?$AA?5?$AA?0?$AA?5?$AA0?$AA?5?$AA?$CJ?$AA?$AA@ 200a323c     LIBCMTD:open.obj
 0002:0001127c       ??_C@_1DI@DGKIFCCE@?$AA?$CI?$AA?5?$AA?$CC?$AAI?$AAn?$AAv?$AAa?$AAl?$AAi?$AAd?$AA?5?$AAo?$AAp?$AAe?$AAn?$AA?5?$AAf?$AAl?$AAa?$AAg?$AA?$CC?$AA?5?$AA?0?$AA?5?$AA0?$AA?5?$AA?$CJ?$AA?$AA@ 200a327c     LIBCMTD:open.obj
 0002:000112b4       ??_C@_1CG@ICBEBDJJ@?$AA_?$AAg?$AAe?$AAt?$AA_?$AAf?$AAm?$AAo?$AAd?$AAe?$AA?$CI?$AA?$CG?$AAf?$AAm?$AAo?$AAd?$AAe?$AA?$CJ?$AA?$AA@ 200a32b4     LIBCMTD:open.obj
 0002:000112dc       ??_C@_1BO@JOPFMPGH@?$AA_?$AAt?$AAs?$AAo?$AAp?$AAe?$AAn?$AA_?$AAn?$AAo?$AAl?$AAo?$AAc?$AAk?$AA?$AA@ 200a32dc     LIBCMTD:open.obj
 0002:000112fc       ??_C@_1BG@GBJNMPFA@?$AAs?$AA2?$AA?5?$AA?$CB?$AA?$DN?$AA?5?$AAN?$AAU?$AAL?$AAL?$AA?$AA@ 200a32fc     LIBCMTD:mbsnbicm.obj
 0002:00011314       ??_C@_1BK@GEJONGBG@?$AA_?$AAm?$AAb?$AAs?$AAn?$AAb?$AAi?$AAc?$AAm?$AAp?$AA_?$AAl?$AA?$AA@ 200a3314     LIBCMTD:mbsnbicm.obj
 0002:00011330       ??_C@_1GE@JLFFJINF@?$AAf?$AA?3?$AA?2?$AAd?$AAd?$AA?2?$AAv?$AAc?$AAt?$AAo?$AAo?$AAl?$AAs?$AA?2?$AAc?$AAr?$AAt?$AA_?$AAb?$AAl?$AAd?$AA?2?$AAs?$AAe?$AAl?$AAf?$AA_?$AAx?$AA8?$AA6?$AA?2?$AAc@ 200a3330     LIBCMTD:mbsnbicm.obj
 0002:00011394       ??_C@_1BG@MODEICJK@?$AAs?$AA1?$AA?5?$AA?$CB?$AA?$DN?$AA?5?$AAN?$AAU?$AAL?$AAL?$AA?$AA@ 200a3394     LIBCMTD:mbsnbicm.obj
 0002:000113ac       ??_C@_1BI@LPHOHGHI@?$AA_?$AAm?$AAb?$AAs?$AAn?$AAb?$AAc?$AAm?$AAp?$AA_?$AAl?$AA?$AA@ 200a33ac     LIBCMTD:mbsnbcmp.obj
 0002:000113c8       ??_C@_1GE@IIBFGEPN@?$AAf?$AA?3?$AA?2?$AAd?$AAd?$AA?2?$AAv?$AAc?$AAt?$AAo?$AAo?$AAl?$AAs?$AA?2?$AAc?$AAr?$AAt?$AA_?$AAb?$AAl?$AAd?$AA?2?$AAs?$AAe?$AAl?$AAf?$AA_?$AAx?$AA8?$AA6?$AA?2?$AAc@ 200a33c8     LIBCMTD:mbsnbcmp.obj
 0002:00011430       ??_C@_1GA@INJGGEBC@?$AAf?$AA?3?$AA?2?$AAd?$AAd?$AA?2?$AAv?$AAc?$AAt?$AAo?$AAo?$AAl?$AAs?$AA?2?$AAc?$AAr?$AAt?$AA_?$AAb?$AAl?$AAd?$AA?2?$AAs?$AAe?$AAl?$AAf?$AA_?$AAx?$AA8?$AA6?$AA?2?$AAc@ 200a3430     LIBCMTD:a_str.obj
 0002:00011490       ??_C@_1FE@KNPCCODH@?$AA?$CI?$AA?$CC?$AAC?$AAo?$AAr?$AAr?$AAu?$AAp?$AAt?$AAe?$AAd?$AA?5?$AAp?$AAo?$AAi?$AAn?$AAt?$AAe?$AAr?$AA?5?$AAp?$AAa?$AAs?$AAs?$AAe?$AAd?$AA?5?$AAt?$AAo?$AA?5?$AA_?$AAf@ 200a3490     LIBCMTD:a_str.obj
 0002:000114e8       ??_C@_1GE@GJCMHHMH@?$AAf?$AA?3?$AA?2?$AAd?$AAd?$AA?2?$AAv?$AAc?$AAt?$AAo?$AAo?$AAl?$AAs?$AA?2?$AAc?$AAr?$AAt?$AA_?$AAb?$AAl?$AAd?$AA?2?$AAs?$AAe?$AAl?$AAf?$AA_?$AAx?$AA8?$AA6?$AA?2?$AAc@ 200a34e8     LIBCMTD:inittime.obj
 0002:00011550       ??_C@_1EE@FDHCFDHN@?$AAp?$AAl?$AAo?$AAc?$AAi?$AA?9?$AA?$DO?$AAl?$AAc?$AA_?$AAt?$AAi?$AAm?$AAe?$AA_?$AAc?$AAu?$AAr?$AAr?$AA?9?$AA?$DO?$AAr?$AAe?$AAf?$AAc?$AAo?$AAu?$AAn?$AAt?$AA?5?$AA?$DO?$AA?5@ 200a3550     LIBCMTD:inittime.obj
 0002:00011594       ??_C@_0DC@KICHHNFK@f?3?2dd?2vctools?2crt_bld?2self_x86?2c@ 200a3594     LIBCMTD:inittime.obj
 0002:000115c8       ??_C@_1GC@EDJOCBCL@?$AAf?$AA?3?$AA?2?$AAd?$AAd?$AA?2?$AAv?$AAc?$AAt?$AAo?$AAo?$AAl?$AAs?$AA?2?$AAc?$AAr?$AAt?$AA_?$AAb?$AAl?$AAd?$AA?2?$AAs?$AAe?$AAl?$AAf?$AA_?$AAx?$AA8?$AA6?$AA?2?$AAc@ 200a35c8     LIBCMTD:initnum.obj
 0002:0001162c       ??_C@_1DM@IFKAINNE@?$AAp?$AAl?$AAo?$AAc?$AAi?$AA?9?$AA?$DO?$AAl?$AAc?$AAo?$AAn?$AAv?$AA_?$AAn?$AAu?$AAm?$AA_?$AAr?$AAe?$AAf?$AAc?$AAo?$AAu?$AAn?$AAt?$AA?5?$AA?$DO?$AA?5?$AA0?$AA?$AA@ 200a362c     LIBCMTD:initnum.obj
 0002:00011668       ??_C@_0DB@KKFMDHFI@f?3?2dd?2vctools?2crt_bld?2self_x86?2c@ 200a3668     LIBCMTD:initnum.obj
 0002:000116a0       ??_C@_1GC@IKADOFBJ@?$AAf?$AA?3?$AA?2?$AAd?$AAd?$AA?2?$AAv?$AAc?$AAt?$AAo?$AAo?$AAl?$AAs?$AA?2?$AAc?$AAr?$AAt?$AA_?$AAb?$AAl?$AAd?$AA?2?$AAs?$AAe?$AAl?$AAf?$AA_?$AAx?$AA8?$AA6?$AA?2?$AAc@ 200a36a0     LIBCMTD:initmon.obj
 0002:00011704       ??_C@_1DM@GKAPAMDO@?$AAp?$AAl?$AAo?$AAc?$AAi?$AA?9?$AA?$DO?$AAl?$AAc?$AAo?$AAn?$AAv?$AA_?$AAm?$AAo?$AAn?$AA_?$AAr?$AAe?$AAf?$AAc?$AAo?$AAu?$AAn?$AAt?$AA?5?$AA?$DO?$AA?5?$AA0?$AA?$AA@ 200a3704     LIBCMTD:initmon.obj
 0002:00011740       ??_C@_0DB@BECNGFDL@f?3?2dd?2vctools?2crt_bld?2self_x86?2c@ 200a3740     LIBCMTD:initmon.obj
 0002:00011778       ___newctype                200a3778     LIBCMTD:ctype.obj
 0002:00011a78       __wctype                   200a3a78     LIBCMTD:ctype.obj
 0002:00011c80       ___newclmap                200a3c80     LIBCMTD:ctype.obj
 0002:00011e00       ___newcumap                200a3e00     LIBCMTD:ctype.obj
 0002:00011f80       ??_C@_1O@JDPLECOK@?$AAu?$AAn?$AAg?$AAe?$AAt?$AAc?$AA?$AA@ 200a3f80     LIBCMTD:ungetc.obj
 0002:00011f90       ??_C@_1GA@OAFAANFO@?$AAf?$AA?3?$AA?2?$AAd?$AAd?$AA?2?$AAv?$AAc?$AAt?$AAo?$AAo?$AAl?$AAs?$AA?2?$AAc?$AAr?$AAt?$AA_?$AAb?$AAl?$AAd?$AA?2?$AAs?$AAe?$AAl?$AAf?$AA_?$AAx?$AA8?$AA6?$AA?2?$AAc@ 200a3f90     LIBCMTD:ungetc.obj
 0002:00011ff0       ??_C@_1BO@OLMLKKEA@?$AA_?$AAu?$AAn?$AAg?$AAe?$AAt?$AAc?$AA_?$AAn?$AAo?$AAl?$AAo?$AAc?$AAk?$AA?$AA@ 200a3ff0     LIBCMTD:ungetc.obj
 0002:00012010       ??_C@_1HC@OEJDDIIH@?$AAf?$AA?3?$AA?2?$AAd?$AAd?$AA?2?$AAv?$AAc?$AAt?$AAo?$AAo?$AAl?$AAs?$AA?2?$AAc?$AAr?$AAt?$AA_?$AAb?$AAl?$AAd?$AA?2?$AAs?$AAe?$AAl?$AAf?$AA_?$AAx?$AA8?$AA6?$AA?2?$AAc@ 200a4010     LIBCMTD:ungetc.obj
 0002:00012088       ??_C@_1FA@MJKDNFFB@?$AA?$CI?$AAL?$AA?$CC?$AAS?$AAt?$AAr?$AAi?$AAn?$AAg?$AA?5?$AAi?$AAs?$AA?5?$AAn?$AAo?$AAt?$AA?5?$AAn?$AAu?$AAl?$AAl?$AA?5?$AAt?$AAe?$AAr?$AAm?$AAi?$AAn?$AAa?$AAt?$AAe?$AAd@ 200a4088     LIBCMTD:strcat_s.obj
 0002:000120d8       ??_C@_1DM@FHLMIEG@?$AAS?$AAt?$AAr?$AAi?$AAn?$AAg?$AA?5?$AAi?$AAs?$AA?5?$AAn?$AAo?$AAt?$AA?5?$AAn?$AAu?$AAl?$AAl?$AA?5?$AAt?$AAe?$AAr?$AAm?$AAi?$AAn?$AAa?$AAt?$AAe?$AAd?$AA?$AA@ 200a40d8     LIBCMTD:strcat_s.obj
 0002:00012114       ??_C@_1BC@HGPNAKGC@?$AAs?$AAt?$AAr?$AAc?$AAa?$AAt?$AA_?$AAs?$AA?$AA@ 200a4114     LIBCMTD:strcat_s.obj
 0002:00012128       ??_C@_1GI@NOKGIAGA@?$AAf?$AA?3?$AA?2?$AAd?$AAd?$AA?2?$AAv?$AAc?$AAt?$AAo?$AAo?$AAl?$AAs?$AA?2?$AAc?$AAr?$AAt?$AA_?$AAb?$AAl?$AAd?$AA?2?$AAs?$AAe?$AAl?$AAf?$AA_?$AAx?$AA8?$AA6?$AA?2?$AAc@ 200a4128     LIBCMTD:strcat_s.obj
 0002:00012190       ??_C@_0O@FMJNFNKE@united?9states?$AA@ 200a4190     LIBCMTD:getqloc.obj
 0002:000121a0       ??_C@_0P@NDHFFKCA@united?9kingdom?$AA@ 200a41a0     LIBCMTD:getqloc.obj
 0002:000121b0       ??_C@_0BC@HHDADLGF@trinidad?5?$CG?5tobago?$AA@ 200a41b0     LIBCMTD:getqloc.obj
 0002:000121c4       ??_C@_0M@IOAEBDAC@south?9korea?$AA@ 200a41c4     LIBCMTD:getqloc.obj
 0002:000121d0       ??_C@_0N@FIELFKIJ@south?9africa?$AA@ 200a41d0     LIBCMTD:getqloc.obj
 0002:000121e0       ??_C@_0M@OPNDHCMC@south?5korea?$AA@ 200a41e0     LIBCMTD:getqloc.obj
 0002:000121ec       ??_C@_0N@MDEOEPFI@south?5africa?$AA@ 200a41ec     LIBCMTD:getqloc.obj
 0002:000121fc       ??_C@_06FKAPCJLB@slovak?$AA@ 200a41fc     LIBCMTD:getqloc.obj
 0002:00012204       ??_C@_0M@EFJANOAL@puerto?9rico?$AA@ 200a4204     LIBCMTD:getqloc.obj
 0002:00012210       ??_C@_08PGOJKDAI@pr?9china?$AA@ 200a4210     LIBCMTD:getqloc.obj
 0002:0001221c       ??_C@_08JHDOMCMI@pr?5china?$AA@ 200a421c     LIBCMTD:getqloc.obj
 0002:00012228       ??_C@_02JHCHFBLL@nz?$AA@   200a4228     LIBCMTD:getqloc.obj
 0002:0001222c       ??_C@_0M@LINHDHKP@new?9zealand?$AA@ 200a422c     LIBCMTD:getqloc.obj
 0002:00012238       ??_C@_09IIIPPBDB@hong?9kong?$AA@ 200a4238     LIBCMTD:getqloc.obj
 0002:00012244       ??_C@_07HJLCKBG@holland?$AA@ 200a4244     LIBCMTD:getqloc.obj
 0002:0001224c       ??_C@_0O@LEHGMHAG@great?5britain?$AA@ 200a424c     LIBCMTD:getqloc.obj
 0002:0001225c       ??_C@_07FACOMELA@england?$AA@ 200a425c     LIBCMTD:getqloc.obj
 0002:00012264       ??_C@_05JIHCEICB@czech?$AA@ 200a4264     LIBCMTD:getqloc.obj
 0002:0001226c       ??_C@_05BBJOBLGB@china?$AA@ 200a426c     LIBCMTD:getqloc.obj
 0002:00012274       ??_C@_07GPKPHICP@britain?$AA@ 200a4274     LIBCMTD:getqloc.obj
 0002:0001227c       ??_C@_07MHIPBHMG@america?$AA@ 200a427c     LIBCMTD:getqloc.obj
 0002:00012284       ??_C@_03KIALPMKC@usa?$AA@  200a4284     LIBCMTD:getqloc.obj
 0002:00012288       ??_C@_02FGJGKGGD@us?$AA@   200a4288     LIBCMTD:getqloc.obj
 0002:0001228c       ??_C@_02NEINDODK@uk?$AA@   200a428c     LIBCMTD:getqloc.obj
 0002:00012290       ??_C@_05JMPCFJFJ@swiss?$AA@ 200a4290     LIBCMTD:getqloc.obj
 0002:00012298       ??_C@_0BA@HLOCPIOD@swedish?9finland?$AA@ 200a4298     LIBCMTD:getqloc.obj
 0002:000122a8       ??_C@_0BC@PKCNIABK@spanish?9venezuela?$AA@ 200a42a8     LIBCMTD:getqloc.obj
 0002:000122bc       ??_C@_0BA@GBHHMIJI@spanish?9uruguay?$AA@ 200a42bc     LIBCMTD:getqloc.obj
 0002:000122cc       ??_C@_0BE@BHDOHPMC@spanish?9puerto?5rico?$AA@ 200a42cc     LIBCMTD:getqloc.obj
 0002:000122e0       ??_C@_0N@KMOIDGGN@spanish?9peru?$AA@ 200a42e0     LIBCMTD:getqloc.obj
 0002:000122f0       ??_C@_0BB@HMHLPGPH@spanish?9paraguay?$AA@ 200a42f0     LIBCMTD:getqloc.obj
 0002:00012304       ??_C@_0P@MCPKNGFD@spanish?9panama?$AA@ 200a4304     LIBCMTD:getqloc.obj
 0002:00012314       ??_C@_0BC@IHOHGAIL@spanish?9nicaragua?$AA@ 200a4314     LIBCMTD:getqloc.obj
 0002:00012328       ??_C@_0P@KLMJDNFJ@spanish?9modern?$AA@ 200a4328     LIBCMTD:getqloc.obj
 0002:00012338       ??_C@_0BA@BPAPGBCM@spanish?9mexican?$AA@ 200a4338     LIBCMTD:getqloc.obj
 0002:00012348       ??_C@_0BB@PDECHHHE@spanish?9honduras?$AA@ 200a4348     LIBCMTD:getqloc.obj
 0002:0001235c       ??_C@_0BC@KLHKFGDB@spanish?9guatemala?$AA@ 200a435c     LIBCMTD:getqloc.obj
 0002:00012370       ??_C@_0BE@MFOOKJAI@spanish?9el?5salvador?$AA@ 200a4370     LIBCMTD:getqloc.obj
 0002:00012384       ??_C@_0BA@FCOKFPFC@spanish?9ecuador?$AA@ 200a4384     LIBCMTD:getqloc.obj
 0002:00012394       ??_C@_0BL@PLMGIMOO@spanish?9dominican?5republic?$AA@ 200a4394     LIBCMTD:getqloc.obj
 0002:000123b0       ??_C@_0BD@HLGDNMHB@spanish?9costa?5rica?$AA@ 200a43b0     LIBCMTD:getqloc.obj
 0002:000123c4       ??_C@_0BB@PKCBKCPE@spanish?9colombia?$AA@ 200a43c4     LIBCMTD:getqloc.obj
 0002:000123d8       ??_C@_0O@MCBIJGNE@spanish?9chile?$AA@ 200a43d8     LIBCMTD:getqloc.obj
 0002:000123e8       ??_C@_0BA@BEFEIGJJ@spanish?9bolivia?$AA@ 200a43e8     LIBCMTD:getqloc.obj
 0002:000123f8       ??_C@_0BC@EMECMPD@spanish?9argentina?$AA@ 200a43f8     LIBCMTD:getqloc.obj
 0002:0001240c       ??_C@_0BF@EALFLENP@portuguese?9brazilian?$AA@ 200a440c     LIBCMTD:getqloc.obj
 0002:00012424       ??_C@_0BC@HBLEBLNN@norwegian?9nynorsk?$AA@ 200a4424     LIBCMTD:getqloc.obj
 0002:00012438       ??_C@_0BB@HMACDDCK@norwegian?9bokmal?$AA@ 200a4438     LIBCMTD:getqloc.obj
 0002:0001244c       ??_C@_09BAFFPPHE@norwegian?$AA@ 200a444c     LIBCMTD:getqloc.obj
 0002:00012458       ??_C@_0O@EAJFJDFG@italian?9swiss?$AA@ 200a4458     LIBCMTD:getqloc.obj
 0002:00012468       ??_C@_0O@CNOMPGD@irish?9english?$AA@ 200a4468     LIBCMTD:getqloc.obj
 0002:00012478       ??_C@_0N@EDHBGCKG@german?9swiss?$AA@ 200a4478     LIBCMTD:getqloc.obj
 0002:00012488       ??_C@_0BC@JACMHNBP@german?9luxembourg?$AA@ 200a4488     LIBCMTD:getqloc.obj
 0002:0001249c       ??_C@_0BE@HBGMGFEG@german?9lichtenstein?$AA@ 200a449c     LIBCMTD:getqloc.obj
 0002:000124b0       ??_C@_0BA@HKKBIBKL@german?9austrian?$AA@ 200a44b0     LIBCMTD:getqloc.obj
 0002:000124c0       ??_C@_0N@GCAEPEBK@french?9swiss?$AA@ 200a44c0     LIBCMTD:getqloc.obj
 0002:000124d0       ??_C@_0BC@DJFJJCK@french?9luxembourg?$AA@ 200a44d0     LIBCMTD:getqloc.obj
 0002:000124e4       ??_C@_0BA@NNCEDFIC@french?9canadian?$AA@ 200a44e4     LIBCMTD:getqloc.obj
 0002:000124f4       ??_C@_0P@CMPOCLM@french?9belgian?$AA@ 200a44f4     LIBCMTD:getqloc.obj
 0002:00012504       ??_C@_0M@GHHDJOK@english?9usa?$AA@ 200a4504     LIBCMTD:getqloc.obj
 0002:00012510       ??_C@_0L@PLDJKEIL@english?9us?$AA@ 200a4510     LIBCMTD:getqloc.obj
 0002:0001251c       ??_C@_0L@HJCCDMNC@english?9uk?$AA@ 200a451c     LIBCMTD:getqloc.obj
 0002:00012528       ??_C@_0BK@CKLIAGJB@english?9trinidad?5y?5tobago?$AA@ 200a4528     LIBCMTD:getqloc.obj
 0002:00012544       ??_C@_0BF@JMJMGNNF@english?9south?5africa?$AA@ 200a4544     LIBCMTD:getqloc.obj
 0002:0001255c       ??_C@_0L@DKIIFDFD@english?9nz?$AA@ 200a455c     LIBCMTD:getqloc.obj
 0002:00012568       ??_C@_0BA@ONHGJCLH@english?9jamaica?$AA@ 200a4568     LIBCMTD:getqloc.obj
 0002:00012578       ??_C@_0M@HJBGHOPO@english?9ire?$AA@ 200a4578     LIBCMTD:getqloc.obj
 0002:00012584       ??_C@_0BC@LFEKMIFB@english?9caribbean?$AA@ 200a4584     LIBCMTD:getqloc.obj
 0002:00012598       ??_C@_0M@OLDPFKHI@english?9can?$AA@ 200a4598     LIBCMTD:getqloc.obj
 0002:000125a4       ??_C@_0P@OMDEHBMP@english?9belize?$AA@ 200a45a4     LIBCMTD:getqloc.obj
 0002:000125b4       ??_C@_0M@KFHFPFED@english?9aus?$AA@ 200a45b4     LIBCMTD:getqloc.obj
 0002:000125c0       ??_C@_0BB@MNMBKDFE@english?9american?$AA@ 200a45c0     LIBCMTD:getqloc.obj
 0002:000125d4       ??_C@_0O@KIDLNNBA@dutch?9belgian?$AA@ 200a45d4     LIBCMTD:getqloc.obj
 0002:000125e4       ??_C@_0BE@JBKABBMH@chinese?9traditional?$AA@ 200a45e4     LIBCMTD:getqloc.obj
 0002:000125f8       ??_C@_0BC@MJJMPKCG@chinese?9singapore?$AA@ 200a45f8     LIBCMTD:getqloc.obj
 0002:0001260c       ??_C@_0BD@FDKADDCP@chinese?9simplified?$AA@ 200a460c     LIBCMTD:getqloc.obj
 0002:00012620       ??_C@_0BB@DBEFDDME@chinese?9hongkong?$AA@ 200a4620     LIBCMTD:getqloc.obj
 0002:00012634       ??_C@_07DHNMFMCI@chinese?$AA@ 200a4634     LIBCMTD:getqloc.obj
 0002:0001263c       ??_C@_03FNDDCHI@chi?$AA@   200a463c     LIBCMTD:getqloc.obj
 0002:00012640       ??_C@_03BMMIADDJ@chh?$AA@  200a4640     LIBCMTD:getqloc.obj
 0002:00012644       ??_C@_08OAIPJDGI@canadian?$AA@ 200a4644     LIBCMTD:getqloc.obj
 0002:00012650       ??_C@_07HBPMNPNJ@belgian?$AA@ 200a4650     LIBCMTD:getqloc.obj
 0002:00012658       ??_C@_0L@OEKOPBEL@australian?$AA@ 200a4658     LIBCMTD:getqloc.obj
 0002:00012664       ??_C@_0BB@MEIMBEDG@american?9english?$AA@ 200a4664     LIBCMTD:getqloc.obj
 0002:00012678       ??_C@_0BB@DFMDPDGB@american?5english?$AA@ 200a4678     LIBCMTD:getqloc.obj
 0002:0001268c       ??_C@_08IJLOKOLL@american?$AA@ 200a468c     LIBCMTD:getqloc.obj
 0002:00012698       ___rg_language             200a4698     LIBCMTD:getqloc.obj
 0002:000128a0       ___rg_country              200a48a0     LIBCMTD:getqloc.obj
 0002:00012958       ___rglangidNotDefault      200a4958     LIBCMTD:getqloc.obj
 0002:0001296c       ??_C@_0BC@NFIEMBLL@Norwegian?9Nynorsk?$AA@ 200a496c     LIBCMTD:getqloc.obj
 0002:00012980       ??_C@_1OM@OECHDGCF@?$AAs?$AAt?$AAr?$AAc?$AAp?$AAy?$AA_?$AAs?$AA?$CI?$AAl?$AAp?$AAO?$AAu?$AAt?$AAS?$AAt?$AAr?$AA?9?$AA?$DO?$AAs?$AAz?$AAL?$AAa?$AAn?$AAg?$AAu?$AAa?$AAg?$AAe?$AA?0?$AA?5?$AA?$CI@ 200a4980     LIBCMTD:getqloc.obj
 0002:00012a6c       ??_C@_1CO@NJACLALJ@?$AA_?$AA_?$AAg?$AAe?$AAt?$AA_?$AAq?$AAu?$AAa?$AAl?$AAi?$AAf?$AAi?$AAe?$AAd?$AA_?$AAl?$AAo?$AAc?$AAa?$AAl?$AAe?$AA?$AA@ 200a4a6c     LIBCMTD:getqloc.obj
 0002:00012aa0       ??_C@_1GC@FECJGAE@?$AAf?$AA?3?$AA?2?$AAd?$AAd?$AA?2?$AAv?$AAc?$AAt?$AAo?$AAo?$AAl?$AAs?$AA?2?$AAc?$AAr?$AAt?$AA_?$AAb?$AAl?$AAd?$AA?2?$AAs?$AAe?$AAl?$AAf?$AA_?$AAx?$AA8?$AA6?$AA?2?$AAc@ 200a4aa0     LIBCMTD:getqloc.obj
 0002:00012b04       ??_C@_03NFKLAGEF@OCP?$AA@  200a4b04     LIBCMTD:getqloc.obj
 0002:00012b08       ??_C@_03DFHEHBHG@ACP?$AA@  200a4b08     LIBCMTD:getqloc.obj
 0002:00012b0c       ??_C@_0DA@HMCPFNKN@f?3?2dd?2vctools?2crt_bld?2self_x86?2c@ 200a4b0c     LIBCMTD:onexit.obj
 0002:00012b3c       ??_C@_1BO@BKOMIGKJ@?$AAr?$AAu?$AAn?$AAt?$AAi?$AAm?$AAe?$AA?5?$AAe?$AAr?$AAr?$AAo?$AAr?$AA?5?$AA?$AA@ 200a4b3c     LIBCMTD:crt0msg.obj
 0002:00012b5c       ??_C@_15JNBOKNOG@?$AA?$AN?$AA?6?$AA?$AA@ 200a4b5c     LIBCMTD:crt0msg.obj
 0002:00012b64       ??_C@_1BM@JBBEPPHI@?$AAT?$AAL?$AAO?$AAS?$AAS?$AA?5?$AAe?$AAr?$AAr?$AAo?$AAr?$AA?$AN?$AA?6?$AA?$AA@ 200a4b64     LIBCMTD:crt0msg.obj
 0002:00012b80       ??_C@_1BK@KMOMNAAI@?$AAS?$AAI?$AAN?$AAG?$AA?5?$AAe?$AAr?$AAr?$AAo?$AAr?$AA?$AN?$AA?6?$AA?$AA@ 200a4b80     LIBCMTD:crt0msg.obj
 0002:00012b9c       ??_C@_1BO@BFCDCGC@?$AAD?$AAO?$AAM?$AAA?$AAI?$AAN?$AA?5?$AAe?$AAr?$AAr?$AAo?$AAr?$AA?$AN?$AA?6?$AA?$AA@ 200a4b9c     LIBCMTD:crt0msg.obj
 0002:00012bc0       ??_C@_1BOO@KGEDBGAJ@?$AAR?$AA6?$AA0?$AA3?$AA3?$AA?$AN?$AA?6?$AA?9?$AA?5?$AAA?$AAt?$AAt?$AAe?$AAm?$AAp?$AAt?$AA?5?$AAt?$AAo?$AA?5?$AAu?$AAs?$AAe?$AA?5?$AAM?$AAS?$AAI?$AAL?$AA?5?$AAc?$AAo?$AAd@ 200a4bc0     LIBCMTD:crt0msg.obj
 0002:00012db0       ??_C@_1GG@GOPILAJP@?$AAR?$AA6?$AA0?$AA3?$AA2?$AA?$AN?$AA?6?$AA?9?$AA?5?$AAn?$AAo?$AAt?$AA?5?$AAe?$AAn?$AAo?$AAu?$AAg?$AAh?$AA?5?$AAs?$AAp?$AAa?$AAc?$AAe?$AA?5?$AAf?$AAo?$AAr?$AA?5?$AAl?$AAo@ 200a4db0     LIBCMTD:crt0msg.obj
 0002:00012e18       ??_C@_1MG@ENCOOIDF@?$AAR?$AA6?$AA0?$AA3?$AA1?$AA?$AN?$AA?6?$AA?9?$AA?5?$AAA?$AAt?$AAt?$AAe?$AAm?$AAp?$AAt?$AA?5?$AAt?$AAo?$AA?5?$AAi?$AAn?$AAi?$AAt?$AAi?$AAa?$AAl?$AAi?$AAz?$AAe?$AA?5?$AAt@ 200a4e18     LIBCMTD:crt0msg.obj
 0002:00012ee0       ??_C@_1DO@BMFCDCD@?$AAR?$AA6?$AA0?$AA3?$AA0?$AA?$AN?$AA?6?$AA?9?$AA?5?$AAC?$AAR?$AAT?$AA?5?$AAn?$AAo?$AAt?$AA?5?$AAi?$AAn?$AAi?$AAt?$AAi?$AAa?$AAl?$AAi?$AAz?$AAe?$AAd?$AA?$AN?$AA?6?$AA?$AA@ 200a4ee0     LIBCMTD:crt0msg.obj
 0002:00012f20       ??_C@_1EK@HHFLMAOL@?$AAR?$AA6?$AA0?$AA2?$AA8?$AA?$AN?$AA?6?$AA?9?$AA?5?$AAu?$AAn?$AAa?$AAb?$AAl?$AAe?$AA?5?$AAt?$AAo?$AA?5?$AAi?$AAn?$AAi?$AAt?$AAi?$AAa?$AAl?$AAi?$AAz?$AAe?$AA?5?$AAh?$AAe@ 200a4f20     LIBCMTD:crt0msg.obj
 0002:00012f70       ??_C@_1GK@MFGOKLAG@?$AAR?$AA6?$AA0?$AA2?$AA7?$AA?$AN?$AA?6?$AA?9?$AA?5?$AAn?$AAo?$AAt?$AA?5?$AAe?$AAn?$AAo?$AAu?$AAg?$AAh?$AA?5?$AAs?$AAp?$AAa?$AAc?$AAe?$AA?5?$AAf?$AAo?$AAr?$AA?5?$AAl?$AAo@ 200a4f70     LIBCMTD:crt0msg.obj
 0002:00012fe0       ??_C@_1GK@MCAAGJMO@?$AAR?$AA6?$AA0?$AA2?$AA6?$AA?$AN?$AA?6?$AA?9?$AA?5?$AAn?$AAo?$AAt?$AA?5?$AAe?$AAn?$AAo?$AAu?$AAg?$AAh?$AA?5?$AAs?$AAp?$AAa?$AAc?$AAe?$AA?5?$AAf?$AAo?$AAr?$AA?5?$AAs?$AAt@ 200a4fe0     LIBCMTD:crt0msg.obj
 0002:00013050       ??_C@_1EM@MAADIHMB@?$AAR?$AA6?$AA0?$AA2?$AA5?$AA?$AN?$AA?6?$AA?9?$AA?5?$AAp?$AAu?$AAr?$AAe?$AA?5?$AAv?$AAi?$AAr?$AAt?$AAu?$AAa?$AAl?$AA?5?$AAf?$AAu?$AAn?$AAc?$AAt?$AAi?$AAo?$AAn?$AA?5?$AAc@ 200a5050     LIBCMTD:crt0msg.obj
 0002:000130a0       ??_C@_1GK@FHCKBEFA@?$AAR?$AA6?$AA0?$AA2?$AA4?$AA?$AN?$AA?6?$AA?9?$AA?5?$AAn?$AAo?$AAt?$AA?5?$AAe?$AAn?$AAo?$AAu?$AAg?$AAh?$AA?5?$AAs?$AAp?$AAa?$AAc?$AAe?$AA?5?$AAf?$AAo?$AAr?$AA?5?$AA_?$AAo@ 200a50a0     LIBCMTD:crt0msg.obj
 0002:00013110       ??_C@_1FC@ECHBIFBC@?$AAR?$AA6?$AA0?$AA1?$AA9?$AA?$AN?$AA?6?$AA?9?$AA?5?$AAu?$AAn?$AAa?$AAb?$AAl?$AAe?$AA?5?$AAt?$AAo?$AA?5?$AAo?$AAp?$AAe?$AAn?$AA?5?$AAc?$AAo?$AAn?$AAs?$AAo?$AAl?$AAe?$AA?5@ 200a5110     LIBCMTD:crt0msg.obj
 0002:00013168       ??_C@_1EC@JIBHAOPH@?$AAR?$AA6?$AA0?$AA1?$AA8?$AA?$AN?$AA?6?$AA?9?$AA?5?$AAu?$AAn?$AAe?$AAx?$AAp?$AAe?$AAc?$AAt?$AAe?$AAd?$AA?5?$AAh?$AAe?$AAa?$AAp?$AA?5?$AAe?$AAr?$AAr?$AAo?$AAr?$AA?$AN?$AA?6@ 200a5168     LIBCMTD:crt0msg.obj
 0002:000131b0       ??_C@_1FK@BEOGODMC@?$AAR?$AA6?$AA0?$AA1?$AA7?$AA?$AN?$AA?6?$AA?9?$AA?5?$AAu?$AAn?$AAe?$AAx?$AAp?$AAe?$AAc?$AAt?$AAe?$AAd?$AA?5?$AAm?$AAu?$AAl?$AAt?$AAi?$AAt?$AAh?$AAr?$AAe?$AAa?$AAd?$AA?5@ 200a51b0     LIBCMTD:crt0msg.obj
 0002:00013210       ??_C@_1FI@LOGNIKDM@?$AAR?$AA6?$AA0?$AA1?$AA6?$AA?$AN?$AA?6?$AA?9?$AA?5?$AAn?$AAo?$AAt?$AA?5?$AAe?$AAn?$AAo?$AAu?$AAg?$AAh?$AA?5?$AAs?$AAp?$AAa?$AAc?$AAe?$AA?5?$AAf?$AAo?$AAr?$AA?5?$AAt?$AAh@ 200a5210     LIBCMTD:crt0msg.obj
 0002:00013268       ??_C@_1EG@BEHAGFJD@?$AAR?$AA6?$AA0?$AA1?$AA0?$AA?$AN?$AA?6?$AA?9?$AA?5?$AAa?$AAb?$AAo?$AAr?$AAt?$AA?$CI?$AA?$CJ?$AA?5?$AAh?$AAa?$AAs?$AA?5?$AAb?$AAe?$AAe?$AAn?$AA?5?$AAc?$AAa?$AAl?$AAl?$AAe?$AAd@ 200a5268     LIBCMTD:crt0msg.obj
 0002:000132b0       ??_C@_1FI@HONFMGBI@?$AAR?$AA6?$AA0?$AA0?$AA9?$AA?$AN?$AA?6?$AA?9?$AA?5?$AAn?$AAo?$AAt?$AA?5?$AAe?$AAn?$AAo?$AAu?$AAg?$AAh?$AA?5?$AAs?$AAp?$AAa?$AAc?$AAe?$AA?5?$AAf?$AAo?$AAr?$AA?5?$AAe?$AAn@ 200a52b0     LIBCMTD:crt0msg.obj
 0002:00013308       ??_C@_1FE@LLNEDJMD@?$AAR?$AA6?$AA0?$AA0?$AA8?$AA?$AN?$AA?6?$AA?9?$AA?5?$AAn?$AAo?$AAt?$AA?5?$AAe?$AAn?$AAo?$AAu?$AAg?$AAh?$AA?5?$AAs?$AAp?$AAa?$AAc?$AAe?$AA?5?$AAf?$AAo?$AAr?$AA?5?$AAa?$AAr@ 200a5308     LIBCMTD:crt0msg.obj
 0002:00013360       ??_C@_1FK@PGACCAFB@?$AAR?$AA6?$AA0?$AA0?$AA2?$AA?$AN?$AA?6?$AA?9?$AA?5?$AAf?$AAl?$AAo?$AAa?$AAt?$AAi?$AAn?$AAg?$AA?5?$AAp?$AAo?$AAi?$AAn?$AAt?$AA?5?$AAs?$AAu?$AAp?$AAp?$AAo?$AAr?$AAt?$AA?5@ 200a5360     LIBCMTD:crt0msg.obj
 0002:00013470       ??_C@_1EK@MBDPDCGA@?$AAM?$AAi?$AAc?$AAr?$AAo?$AAs?$AAo?$AAf?$AAt?$AA?5?$AAV?$AAi?$AAs?$AAu?$AAa?$AAl?$AA?5?$AAC?$AA?$CL?$AA?$CL?$AA?5?$AAR?$AAu?$AAn?$AAt?$AAi?$AAm?$AAe?$AA?5?$AAL?$AAi?$AAb@ 200a5470     LIBCMTD:crt0msg.obj
 0002:000134c0       ??_C@_1IG@NMONDPP@?$AAw?$AAc?$AAs?$AAc?$AAa?$AAt?$AA_?$AAs?$AA?$CI?$AAo?$AAu?$AAt?$AAm?$AAs?$AAg?$AA?0?$AA?5?$AA?$CI?$AAs?$AAi?$AAz?$AAe?$AAo?$AAf?$AA?$CI?$AAo?$AAu?$AAt?$AAm?$AAs?$AAg?$AA?$CJ@ 200a54c0     LIBCMTD:crt0msg.obj
 0002:00013548       ??_C@_1IA@DCJGKHFO@?$AAw?$AAc?$AAs?$AAc?$AAa?$AAt?$AA_?$AAs?$AA?$CI?$AAo?$AAu?$AAt?$AAm?$AAs?$AAg?$AA?0?$AA?5?$AA?$CI?$AAs?$AAi?$AAz?$AAe?$AAo?$AAf?$AA?$CI?$AAo?$AAu?$AAt?$AAm?$AAs?$AAg?$AA?$CJ@ 200a5548     LIBCMTD:crt0msg.obj
 0002:000135c8       ??_C@_1HI@FLHKGEBE@?$AAw?$AAc?$AAs?$AAn?$AAc?$AAp?$AAy?$AA_?$AAs?$AA?$CI?$AAp?$AAc?$AAh?$AA?0?$AA?5?$AAp?$AAr?$AAo?$AAg?$AAn?$AAa?$AAm?$AAe?$AA_?$AAs?$AAi?$AAz?$AAe?$AA?5?$AA?9?$AA?5?$AA?$CI@ 200a55c8     LIBCMTD:crt0msg.obj
 0002:00013640       ??_C@_1HK@FJJNAABO@?$AAw?$AAc?$AAs?$AAc?$AAp?$AAy?$AA_?$AAs?$AA?$CI?$AAp?$AAr?$AAo?$AAg?$AAn?$AAa?$AAm?$AAe?$AA?0?$AA?5?$AAp?$AAr?$AAo?$AAg?$AAn?$AAa?$AAm?$AAe?$AA_?$AAs?$AAi?$AAz?$AAe@ 200a5640     LIBCMTD:crt0msg.obj
 0002:000136bc       ??_C@_1DE@JNGNBFGO@?$AAR?$AAu?$AAn?$AAt?$AAi?$AAm?$AAe?$AA?5?$AAE?$AAr?$AAr?$AAo?$AAr?$AA?$CB?$AA?6?$AA?6?$AAP?$AAr?$AAo?$AAg?$AAr?$AAa?$AAm?$AA?3?$AA?5?$AA?$AA@ 200a56bc     LIBCMTD:crt0msg.obj
 0002:000136f0       ??_C@_1KO@BKLCKNFL@?$AAw?$AAc?$AAs?$AAc?$AAp?$AAy?$AA_?$AAs?$AA?$CI?$AAo?$AAu?$AAt?$AAm?$AAs?$AAg?$AA?0?$AA?5?$AA?$CI?$AAs?$AAi?$AAz?$AAe?$AAo?$AAf?$AA?$CI?$AAo?$AAu?$AAt?$AAm?$AAs?$AAg?$AA?$CJ@ 200a56f0     LIBCMTD:crt0msg.obj
 0002:000137a0       ??_C@_1BI@EAHMBMEC@?$AA_?$AAN?$AAM?$AAS?$AAG?$AA_?$AAW?$AAR?$AAI?$AAT?$AAE?$AA?$AA@ 200a57a0     LIBCMTD:crt0msg.obj
 0002:000137b8       ??_C@_1GC@HKOJBOFF@?$AAf?$AA?3?$AA?2?$AAd?$AAd?$AA?2?$AAv?$AAc?$AAt?$AAo?$AAo?$AAl?$AAs?$AA?2?$AAc?$AAr?$AAt?$AA_?$AAb?$AAl?$AAd?$AA?2?$AAs?$AAe?$AAl?$AAf?$AA_?$AAx?$AA8?$AA6?$AA?2?$AAc@ 200a57b8     LIBCMTD:crt0msg.obj
 0002:0001381c       ??_C@_0BC@JEAENNKH@SystemFunction036?$AA@ 200a581c     LIBCMTD:rand_s.obj
 0002:00013830       ??_C@_1GA@EBEDGGGB@?$AA?$CI?$AA?$CC?$AAr?$AAa?$AAn?$AAd?$AA_?$AAs?$AA?5?$AAi?$AAs?$AA?5?$AAn?$AAo?$AAt?$AA?5?$AAa?$AAv?$AAa?$AAi?$AAl?$AAa?$AAb?$AAl?$AAe?$AA?5?$AAo?$AAn?$AA?5?$AAt?$AAh?$AAi@ 200a5830     LIBCMTD:rand_s.obj
 0002:00013890       ??_C@_1BK@GAEMIDIL@?$AAA?$AAD?$AAV?$AAA?$AAP?$AAI?$AA3?$AA2?$AA?4?$AAD?$AAL?$AAL?$AA?$AA@ 200a5890     LIBCMTD:rand_s.obj
 0002:000138ac       ??_C@_1O@IJGPPOGF@?$AAr?$AAa?$AAn?$AAd?$AA_?$AAs?$AA?$AA@ 200a58ac     LIBCMTD:rand_s.obj
 0002:000138c0       ??_C@_1GA@HBGBBKCD@?$AAf?$AA?3?$AA?2?$AAd?$AAd?$AA?2?$AAv?$AAc?$AAt?$AAo?$AAo?$AAl?$AAs?$AA?2?$AAc?$AAr?$AAt?$AA_?$AAb?$AAl?$AAd?$AA?2?$AAs?$AAe?$AAl?$AAf?$AA_?$AAx?$AA8?$AA6?$AA?2?$AAc@ 200a58c0     LIBCMTD:rand_s.obj
 0002:00013920       ??_C@_1CK@GFDNDKK@?$AA_?$AAR?$AAa?$AAn?$AAd?$AAo?$AAm?$AAV?$AAa?$AAl?$AAu?$AAe?$AA?5?$AA?$CB?$AA?$DN?$AA?5?$AAN?$AAU?$AAL?$AAL?$AA?$AA@ 200a5920     LIBCMTD:rand_s.obj
 0002:00013950       ??_C@_1GO@NGIGJNHH@?$AAs?$AAt?$AAr?$AAn?$AAc?$AAp?$AAy?$AA_?$AAs?$AA?$CI?$AA?$CK?$AAs?$AAt?$AAr?$AAa?$AAd?$AAd?$AAr?$AAe?$AAs?$AAs?$AA?0?$AA?5?$AAo?$AAu?$AAt?$AAs?$AAi?$AAz?$AAe?$AA?0?$AA?5@ 200a5950     LIBCMTD:inithelp.obj
 0002:000139c0       ??_C@_1CA@KHHCPEI@?$AA_?$AA_?$AAg?$AAe?$AAt?$AAl?$AAo?$AAc?$AAa?$AAl?$AAe?$AAi?$AAn?$AAf?$AAo?$AA?$AA@ 200a59c0     LIBCMTD:inithelp.obj
 0002:000139e0       ??_C@_1GE@PLPIMDHG@?$AAf?$AA?3?$AA?2?$AAd?$AAd?$AA?2?$AAv?$AAc?$AAt?$AAo?$AAo?$AAl?$AAs?$AA?2?$AAc?$AAr?$AAt?$AA_?$AAb?$AAl?$AAd?$AA?2?$AAs?$AAe?$AAl?$AAf?$AA_?$AAx?$AA8?$AA6?$AA?2?$AAc@ 200a59e0     LIBCMTD:inithelp.obj
 0002:00013a44       ??_C@_0DC@CFDMMFIG@f?3?2dd?2vctools?2crt_bld?2self_x86?2c@ 200a5a44     LIBCMTD:inithelp.obj
 0002:00013a78       ?commonFlags@?1??_control87@@9@9 200a5a78     LIBCMTD:_ieee87_.obj
 0002:00013a80       ??_C@_1GO@OKJGOMCB@?$AA_?$AAc?$AAo?$AAn?$AAt?$AAr?$AAo?$AAl?$AAf?$AAp?$AA_?$AAs?$AA?$CI?$AA?$CI?$AA?$CI?$AAv?$AAo?$AAi?$AAd?$AA?5?$AA?$CK?$AA?$CJ?$AA0?$AA?$CJ?$AA?0?$AA?5?$AAn?$AAe?$AAw?$AAc?$AAt?$AAr@ 200a5a80     LIBCMTD:_ieee87_.obj
 0002:00013af0       ??_C@_1BO@OFDNCLL@?$AA_?$AAs?$AAe?$AAt?$AA_?$AAc?$AAo?$AAn?$AAt?$AAr?$AAo?$AAl?$AAf?$AAp?$AA?$AA@ 200a5af0     LIBCMTD:_ieee87_.obj
 0002:00013b10       ??_C@_1HO@BFDKGHOI@?$AAf?$AA?3?$AA?2?$AAd?$AAd?$AA?2?$AAv?$AAc?$AAt?$AAo?$AAo?$AAl?$AAs?$AA?2?$AAc?$AAr?$AAt?$AA_?$AAb?$AAl?$AAd?$AA?2?$AAs?$AAe?$AAl?$AAf?$AA_?$AAx?$AA8?$AA6?$AA?2?$AAc@ 200a5b10     LIBCMTD:_ieee87_.obj
 0002:00013b90       ??_C@_06IMKFLFPG@1?$CDQNAN?$AA@ 200a5b90     LIBCMTD:_x10fout_.obj
 0002:00013b98       ??_C@_1EG@MCFPJJEM@?$AAs?$AAt?$AAr?$AAc?$AAp?$AAy?$AA_?$AAs?$AA?$CI?$AAf?$AAo?$AAs?$AA?9?$AA?$DO?$AAm?$AAa?$AAn?$AA?0?$AA?5?$AA2?$AA1?$AA?$CL?$AA1?$AA?0?$AA?5?$AA?$CC?$AA1?$AA?$CD?$AAQ?$AAN?$AAA?$AAN@ 200a5b98     LIBCMTD:_x10fout_.obj
 0002:00013be0       ??_C@_05DNEBIAHO@1?$CDINF?$AA@ 200a5be0     LIBCMTD:_x10fout_.obj
 0002:00013be8       ??_C@_1EE@ICBBBPAI@?$AAs?$AAt?$AAr?$AAc?$AAp?$AAy?$AA_?$AAs?$AA?$CI?$AAf?$AAo?$AAs?$AA?9?$AA?$DO?$AAm?$AAa?$AAn?$AA?0?$AA?5?$AA2?$AA1?$AA?$CL?$AA1?$AA?0?$AA?5?$AA?$CC?$AA1?$AA?$CD?$AAI?$AAN?$AAF?$AA?$CC@ 200a5be8     LIBCMTD:_x10fout_.obj
 0002:00013c2c       ??_C@_05PHHOCPM@1?$CDIND?$AA@ 200a5c2c     LIBCMTD:_x10fout_.obj
 0002:00013c38       ??_C@_1EE@MADEBIHF@?$AAs?$AAt?$AAr?$AAc?$AAp?$AAy?$AA_?$AAs?$AA?$CI?$AAf?$AAo?$AAs?$AA?9?$AA?$DO?$AAm?$AAa?$AAn?$AA?0?$AA?5?$AA2?$AA1?$AA?$CL?$AA1?$AA?0?$AA?5?$AA?$CC?$AA1?$AA?$CD?$AAI?$AAN?$AAD?$AA?$CC@ 200a5c38     LIBCMTD:_x10fout_.obj
 0002:00013c7c       ??_C@_06PGGFOGJG@1?$CDSNAN?$AA@ 200a5c7c     LIBCMTD:_x10fout_.obj
 0002:00013c88       ??_C@_1EG@CDDBFNOB@?$AAs?$AAt?$AAr?$AAc?$AAp?$AAy?$AA_?$AAs?$AA?$CI?$AAf?$AAo?$AAs?$AA?9?$AA?$DO?$AAm?$AAa?$AAn?$AA?0?$AA?5?$AA2?$AA1?$AA?$CL?$AA1?$AA?0?$AA?5?$AA?$CC?$AA1?$AA?$CD?$AAS?$AAN?$AAA?$AAN@ 200a5c88     LIBCMTD:_x10fout_.obj
 0002:00013cd0       ??_C@_1BI@ELMAAFLN@?$AA$?$AAI?$AA1?$AA0?$AA_?$AAO?$AAU?$AAT?$AAP?$AAU?$AAT?$AA?$AA@ 200a5cd0     LIBCMTD:_x10fout_.obj
 0002:00013ce8       ??_C@_1HG@HFJMHCFK@?$AAf?$AA?3?$AA?2?$AAd?$AAd?$AA?2?$AAv?$AAc?$AAt?$AAo?$AAo?$AAl?$AAs?$AA?2?$AAc?$AAr?$AAt?$AA_?$AAb?$AAl?$AAd?$AA?2?$AAs?$AAe?$AAl?$AAf?$AA_?$AAx?$AA8?$AA6?$AA?2?$AAc@ 200a5ce8     LIBCMTD:_x10fout_.obj
 0002:00013d60       __pDestructExceptionObject 200a5d60     LIBCMTD:frame.obj
 0002:00013d64       ??_C@_0O@DPKOEFFH@bad?5exception?$AA@ 200a5d64     LIBCMTD:frame.obj
 0002:00013d78       ??_7bad_exception@std@@6B@ 200a5d78     LIBCMTD:frame.obj
 0002:00013d80       ??_C@_1CG@JEHFHLNG@?$AA_?$AAm?$AAb?$AAs?$AAt?$AAo?$AAw?$AAc?$AAs?$AA_?$AAl?$AA_?$AAh?$AAe?$AAl?$AAp?$AAe?$AAr?$AA?$AA@ 200a5d80     LIBCMTD:mbstowcs.obj
 0002:00013da8       ??_C@_1GE@LCCDHBMH@?$AAf?$AA?3?$AA?2?$AAd?$AAd?$AA?2?$AAv?$AAc?$AAt?$AAo?$AAo?$AAl?$AAs?$AA?2?$AAc?$AAr?$AAt?$AA_?$AAb?$AAl?$AAd?$AA?2?$AAs?$AAe?$AAl?$AAf?$AA_?$AAx?$AA8?$AA6?$AA?2?$AAc@ 200a5da8     LIBCMTD:mbstowcs.obj
 0002:00013e0c       ??_C@_1BE@EEKACIGI@?$AAs?$AA?5?$AA?$CB?$AA?$DN?$AA?5?$AAN?$AAU?$AAL?$AAL?$AA?$AA@ 200a5e0c     LIBCMTD:mbstowcs.obj
 0002:00013e20       ??_C@_1CO@JNPEPJAL@?$AAr?$AAe?$AAt?$AAs?$AAi?$AAz?$AAe?$AA?5?$AA?$DM?$AA?$DN?$AA?5?$AAs?$AAi?$AAz?$AAe?$AAI?$AAn?$AAW?$AAo?$AAr?$AAd?$AAs?$AA?$AA@ 200a5e20     LIBCMTD:mbstowcs.obj
 0002:00013e50       ??_C@_1CM@LLECFMFH@?$AAb?$AAu?$AAf?$AAf?$AAe?$AAr?$AAS?$AAi?$AAz?$AAe?$AA?5?$AA?$DM?$AA?$DN?$AA?5?$AAI?$AAN?$AAT?$AA_?$AAM?$AAA?$AAX?$AA?$AA@ 200a5e50     LIBCMTD:mbstowcs.obj
 0002:00013e7c       ??_C@_1BM@PHENIGHD@?$AA_?$AAm?$AAb?$AAs?$AAt?$AAo?$AAw?$AAc?$AAs?$AA_?$AAs?$AA_?$AAl?$AA?$AA@ 200a5e7c     LIBCMTD:mbstowcs.obj
 0002:00013e98       ??_C@_1JA@JKDFMOPO@?$AA?$CI?$AAp?$AAw?$AAc?$AAs?$AA?5?$AA?$DN?$AA?$DN?$AA?5?$AAN?$AAU?$AAL?$AAL?$AA?5?$AA?$CG?$AA?$CG?$AA?5?$AAs?$AAi?$AAz?$AAe?$AAI?$AAn?$AAW?$AAo?$AAr?$AAd?$AAs?$AA?5?$AA?$DN?$AA?$DN?$AA?5@ 200a5e98     LIBCMTD:mbstowcs.obj
 0002:00013f28       ??_C@_1CM@HABGDNLJ@?$AAl?$AAe?$AAn?$AAg?$AAt?$AAh?$AA?5?$AA?$DM?$AA?5?$AAs?$AAi?$AAz?$AAe?$AAI?$AAn?$AAT?$AAC?$AAh?$AAa?$AAr?$AAs?$AA?$AA@ 200a5f28     LIBCMTD:xtoas.obj
 0002:00013f54       ??_C@_1DE@PCJGDBBD@?$AA2?$AA?5?$AA?$DM?$AA?$DN?$AA?5?$AAr?$AAa?$AAd?$AAi?$AAx?$AA?5?$AA?$CG?$AA?$CG?$AA?5?$AAr?$AAa?$AAd?$AAi?$AAx?$AA?5?$AA?$DM?$AA?$DN?$AA?5?$AA3?$AA6?$AA?$AA@ 200a5f54     LIBCMTD:xtoas.obj
 0002:00013f88       ??_C@_1FA@MKGGAGEI@?$AAs?$AAi?$AAz?$AAe?$AAI?$AAn?$AAT?$AAC?$AAh?$AAa?$AAr?$AAs?$AA?5?$AA?$DO?$AA?5?$AA?$CI?$AAs?$AAi?$AAz?$AAe?$AA_?$AAt?$AA?$CJ?$AA?$CI?$AAi?$AAs?$AA_?$AAn?$AAe?$AAg?$AA?5?$AA?$DP@ 200a5f88     LIBCMTD:xtoas.obj
 0002:00013fd8       ??_C@_1CC@JNJFIMGE@?$AAs?$AAi?$AAz?$AAe?$AAI?$AAn?$AAT?$AAC?$AAh?$AAa?$AAr?$AAs?$AA?5?$AA?$DO?$AA?5?$AA0?$AA?$AA@ 200a5fd8     LIBCMTD:xtoas.obj
 0002:00013ffc       ??_C@_1O@GIMBNLEI@?$AAx?$AAt?$AAo?$AAa?$AA_?$AAs?$AA?$AA@ 200a5ffc     LIBCMTD:xtoas.obj
 0002:00014010       ??_C@_1FM@MFCBFCGB@?$AAf?$AA?3?$AA?2?$AAd?$AAd?$AA?2?$AAv?$AAc?$AAt?$AAo?$AAo?$AAl?$AAs?$AA?2?$AAc?$AAr?$AAt?$AA_?$AAb?$AAl?$AAd?$AA?2?$AAs?$AAe?$AAl?$AAf?$AA_?$AAx?$AA8?$AA6?$AA?2?$AAc@ 200a6010     LIBCMTD:xtoas.obj
 0002:0001406c       ??_C@_1BC@MJJNBNFN@?$AAx?$AA6?$AA4?$AAt?$AAo?$AAa?$AA_?$AAs?$AA?$AA@ 200a606c     LIBCMTD:xtoas.obj
 0002:00014080       ??_C@_1CG@LLJCAOHF@?$AA_?$AAw?$AAc?$AAs?$AAt?$AAo?$AAm?$AAb?$AAs?$AA_?$AAl?$AA_?$AAh?$AAe?$AAl?$AAp?$AAe?$AAr?$AA?$AA@ 200a6080     LIBCMTD:wcstombs.obj
 0002:000140a8       ??_C@_1GE@OAENIBOD@?$AAf?$AA?3?$AA?2?$AAd?$AAd?$AA?2?$AAv?$AAc?$AAt?$AAo?$AAo?$AAl?$AAs?$AA?2?$AAc?$AAr?$AAt?$AA_?$AAb?$AAl?$AAd?$AA?2?$AAs?$AAe?$AAl?$AAf?$AA_?$AAx?$AA8?$AA6?$AA?2?$AAc@ 200a60a8     LIBCMTD:wcstombs.obj
 0002:0001410c       ??_C@_1BK@OIBENBPM@?$AAp?$AAw?$AAc?$AAs?$AA?5?$AA?$CB?$AA?$DN?$AA?5?$AAN?$AAU?$AAL?$AAL?$AA?$AA@ 200a610c     LIBCMTD:wcstombs.obj
 0002:00014128       ??_C@_1CM@KEOGBFLI@?$AAs?$AAi?$AAz?$AAe?$AAI?$AAn?$AAB?$AAy?$AAt?$AAe?$AAs?$AA?5?$AA?$DO?$AA?5?$AAr?$AAe?$AAt?$AAs?$AAi?$AAz?$AAe?$AA?$AA@ 200a6128     LIBCMTD:wcstombs.obj
 0002:00014154       ??_C@_1BM@BDMCLLDL@?$AA_?$AAw?$AAc?$AAs?$AAt?$AAo?$AAm?$AAb?$AAs?$AA_?$AAs?$AA_?$AAl?$AA?$AA@ 200a6154     LIBCMTD:wcstombs.obj
 0002:00014170       ??_C@_1IM@MFGKHGBP@?$AA?$CI?$AAd?$AAs?$AAt?$AA?5?$AA?$CB?$AA?$DN?$AA?5?$AAN?$AAU?$AAL?$AAL?$AA?5?$AA?$CG?$AA?$CG?$AA?5?$AAs?$AAi?$AAz?$AAe?$AAI?$AAn?$AAB?$AAy?$AAt?$AAe?$AAs?$AA?5?$AA?$DO?$AA?5?$AA0?$AA?$CJ@ 200a6170     LIBCMTD:wcstombs.obj
 0002:000141fc       ??_C@_1BC@PLIEPKPJ@?$AAw?$AAc?$AAs?$AAc?$AAa?$AAt?$AA_?$AAs?$AA?$AA@ 200a61fc     LIBCMTD:wcscat_s.obj
 0002:00014210       ??_C@_1CE@IGKFIJFD@?$AA_?$AAv?$AAs?$AAw?$AAp?$AAr?$AAi?$AAn?$AAt?$AAf?$AA_?$AAh?$AAe?$AAl?$AAp?$AAe?$AAr?$AA?$AA@ 200a6210     LIBCMTD:vswprnc.obj
 0002:00014238       ??_C@_1GE@KINELFI@?$AAf?$AA?3?$AA?2?$AAd?$AAd?$AA?2?$AAv?$AAc?$AAt?$AAo?$AAo?$AAl?$AAs?$AA?2?$AAc?$AAr?$AAt?$AA_?$AAb?$AAl?$AAd?$AA?2?$AAs?$AAe?$AAl?$AAf?$AA_?$AAx?$AA8?$AA6?$AA?2?$AAc@ 200a6238     LIBCMTD:vswprnc.obj
 0002:000142a0       ??_C@_1EE@MPCHJFGP@?$AAs?$AAt?$AAr?$AAi?$AAn?$AAg?$AA?5?$AA?$CB?$AA?$DN?$AA?5?$AAN?$AAU?$AAL?$AAL?$AA?5?$AA?$CG?$AA?$CG?$AA?5?$AAs?$AAi?$AAz?$AAe?$AAI?$AAn?$AAW?$AAo?$AAr?$AAd?$AAs?$AA?5?$AA?$DO?$AA?5@ 200a62a0     LIBCMTD:vswprnc.obj
 0002:000142e4       ??_C@_1BO@OALHJLCI@?$AA_?$AAv?$AAs?$AAw?$AAp?$AAr?$AAi?$AAn?$AAt?$AAf?$AA_?$AAs?$AA_?$AAl?$AA?$AA@ 200a62e4     LIBCMTD:vswprnc.obj
 0002:00014304       ??_C@_1CA@BKFKMJFF@?$AA_?$AAv?$AAs?$AAn?$AAw?$AAp?$AAr?$AAi?$AAn?$AAt?$AAf?$AA_?$AAs?$AA_?$AAl?$AA?$AA@ 200a6304     LIBCMTD:vswprnc.obj
 0002:00014324       ??_C@_1O@NCBFODOE@?$AAx?$AAt?$AAo?$AAw?$AA_?$AAs?$AA?$AA@ 200a6324     LIBCMTD:xtows.obj
 0002:00014334       ??_C@_1BC@HDEJCFPB@?$AAx?$AA6?$AA4?$AAt?$AAo?$AAw?$AA_?$AAs?$AA?$AA@ 200a6334     LIBCMTD:xtows.obj
 0002:00014348       ??_C@_1BG@BBCDFOMA@?$AA_?$AAw?$AAo?$AAu?$AAt?$AAp?$AAu?$AAt?$AA_?$AAl?$AA?$AA@ 200a6348     LIBCMTD:woutput.obj
 0002:00014360       ??_C@_1BK@EPLNBKAK@?$AA_?$AAv?$AAs?$AAw?$AAp?$AAr?$AAi?$AAn?$AAt?$AAf?$AA_?$AAl?$AA?$AA@ 200a6360     LIBCMTD:vswprint.obj
 0002:0001437c       ??_C@_1CG@IMMIEPNA@?$AA_?$AAv?$AAs?$AAc?$AAw?$AAp?$AAr?$AAi?$AAn?$AAt?$AAf?$AA_?$AAh?$AAe?$AAl?$AAp?$AAe?$AAr?$AA?$AA@ 200a637c     LIBCMTD:vswprint.obj
 0002:000143a4       ??_C@_1BO@JGFPDJCP@?$AAv?$AAp?$AAr?$AAi?$AAn?$AAt?$AAf?$AA_?$AAh?$AAe?$AAl?$AAp?$AAe?$AAr?$AA?$AA@ 200a63a4     LIBCMTD:vprintf.obj
 0002:000143c8       ??_C@_1GC@DHFFJKMC@?$AAf?$AA?3?$AA?2?$AAd?$AAd?$AA?2?$AAv?$AAc?$AAt?$AAo?$AAo?$AAl?$AAs?$AA?2?$AAc?$AAr?$AAt?$AA_?$AAb?$AAl?$AAd?$AA?2?$AAs?$AAe?$AAl?$AAf?$AA_?$AAx?$AA8?$AA6?$AA?2?$AAc@ 200a63c8     LIBCMTD:vprintf.obj
 0002:0001442c       ??_C@_0BK@CIDNPOGP@GetUserObjectInformationA?$AA@ 200a642c     LIBCMTD:crtmbox.obj
 0002:00014448       ??_C@_0M@CHKKJDAI@MessageBoxA?$AA@ 200a6448     LIBCMTD:crtmbox.obj
 0002:00014454       ??_C@_1BK@CMPKHPEC@?$AAn?$AA?5?$AA?$DM?$AA?$DN?$AA?5?$AAI?$AAN?$AAT?$AA_?$AAM?$AAA?$AAX?$AA?$AA@ 200a6454     LIBCMTD:mbsnbico.obj
 0002:00014470       ??_C@_1BM@FKNNDAHH@?$AA_?$AAm?$AAb?$AAs?$AAn?$AAb?$AAi?$AAc?$AAo?$AAl?$AAl?$AA_?$AAl?$AA?$AA@ 200a6470     LIBCMTD:mbsnbico.obj
 0002:00014490       ??_C@_1GE@NJHAJPKI@?$AAf?$AA?3?$AA?2?$AAd?$AAd?$AA?2?$AAv?$AAc?$AAt?$AAo?$AAo?$AAl?$AAs?$AA?2?$AAc?$AAr?$AAt?$AA_?$AAb?$AAl?$AAd?$AA?2?$AAs?$AAe?$AAl?$AAf?$AA_?$AAx?$AA8?$AA6?$AA?2?$AAc@ 200a6490     LIBCMTD:mbsnbico.obj
 0002:000144f4       ??_C@_0DC@CAFDLBC@f?3?2dd?2vctools?2crt_bld?2self_x86?2c@ 200a64f4     LIBCMTD:wtombenv.obj
 0002:00014528       ??_C@_1BA@BALFACEM@?$AAC?$AAO?$AAN?$AAO?$AAU?$AAT?$AA$?$AA?$AA@ 200a6528     LIBCMTD:initcon.obj
 0002:00014538       ??_C@_1BI@GALBKMKE@?$AA?$CI?$AAs?$AAi?$AAz?$AAe?$AA?5?$AA?$DO?$AA?$DN?$AA?5?$AA0?$AA?$CJ?$AA?$AA@ 200a6538     LIBCMTD:chsize.obj
 0002:00014550       ??_C@_1BE@MAFDNGED@?$AA_?$AAc?$AAh?$AAs?$AAi?$AAz?$AAe?$AA_?$AAs?$AA?$AA@ 200a6550     LIBCMTD:chsize.obj
 0002:00014568       ??_C@_1GA@DBKMEDOF@?$AAf?$AA?3?$AA?2?$AAd?$AAd?$AA?2?$AAv?$AAc?$AAt?$AAo?$AAo?$AAl?$AAs?$AA?2?$AAc?$AAr?$AAt?$AA_?$AAb?$AAl?$AAd?$AA?2?$AAs?$AAe?$AAl?$AAf?$AA_?$AAx?$AA8?$AA6?$AA?2?$AAc@ 200a6568     LIBCMTD:chsize.obj
 0002:000145c8       ??_C@_1O@EDOIKGHF@?$AA_?$AAl?$AAs?$AAe?$AAe?$AAk?$AA?$AA@ 200a65c8     LIBCMTD:lseek.obj
 0002:000145d8       ??_C@_1FO@LGKMLCAL@?$AAf?$AA?3?$AA?2?$AAd?$AAd?$AA?2?$AAv?$AAc?$AAt?$AAo?$AAo?$AAl?$AAs?$AA?2?$AAc?$AAr?$AAt?$AA_?$AAb?$AAl?$AAd?$AA?2?$AAs?$AAe?$AAl?$AAf?$AA_?$AAx?$AA8?$AA6?$AA?2?$AAc@ 200a65d8     LIBCMTD:lseek.obj
 0002:00014638       ??_C@_1DM@LMLOLGJ@?$AA?$CI?$AA?$CC?$AAI?$AAn?$AAv?$AAa?$AAl?$AAi?$AAd?$AA?5?$AAf?$AAi?$AAl?$AAe?$AA?5?$AAd?$AAe?$AAs?$AAc?$AAr?$AAi?$AAp?$AAt?$AAo?$AAr?$AA?$CC?$AA?0?$AA0?$AA?$CJ?$AA?$AA@ 200a6638     LIBCMTD:lseek.obj
 0002:00014674       ??_C@_1BC@JBGGJDCM@?$AA_?$AAs?$AAe?$AAt?$AAm?$AAo?$AAd?$AAe?$AA?$AA@ 200a6674     LIBCMTD:setmode.obj
 0002:00014688       ??_C@_1GC@KODPFLLJ@?$AAf?$AA?3?$AA?2?$AAd?$AAd?$AA?2?$AAv?$AAc?$AAt?$AAo?$AAo?$AAl?$AAs?$AA?2?$AAc?$AAr?$AAt?$AA_?$AAb?$AAl?$AAd?$AA?2?$AAs?$AAe?$AAl?$AAf?$AA_?$AAx?$AA8?$AA6?$AA?2?$AAc@ 200a6688     LIBCMTD:setmode.obj
 0002:000146f0       ??_C@_1OA@HGPJIFPM@?$AA?$CI?$AA?$CI?$AAm?$AAo?$AAd?$AAe?$AA?5?$AA?$DN?$AA?$DN?$AA?5?$AA_?$AAO?$AA_?$AAT?$AAE?$AAX?$AAT?$AA?$CJ?$AA?5?$AA?$HM?$AA?$HM?$AA?5?$AA?$CI?$AAm?$AAo?$AAd?$AAe?$AA?5?$AA?$DN?$AA?$DN?$AA?5?$AA_@ 200a66f0     LIBCMTD:setmode.obj
 0002:000147d0       ??_C@_1BG@IEEHLOCL@?$AA_?$AAs?$AAe?$AAt?$AA_?$AAf?$AAm?$AAo?$AAd?$AAe?$AA?$AA@ 200a67d0     LIBCMTD:setmode.obj
 0002:000147e8       ??_C@_1IC@NDCJMLB@?$AA?$CI?$AA?$CI?$AAm?$AAo?$AAd?$AAe?$AA?5?$AA?$DN?$AA?$DN?$AA?5?$AA_?$AAO?$AA_?$AAT?$AAE?$AAX?$AAT?$AA?$CJ?$AA?5?$AA?$HM?$AA?$HM?$AA?5?$AA?$CI?$AAm?$AAo?$AAd?$AAe?$AA?5?$AA?$DN?$AA?$DN?$AA?5?$AA_@ 200a67e8     LIBCMTD:setmode.obj
 0002:0001486c       ??_C@_1BG@CKGMPOFH@?$AA_?$AAg?$AAe?$AAt?$AA_?$AAf?$AAm?$AAo?$AAd?$AAe?$AA?$AA@ 200a686c     LIBCMTD:setmode.obj
 0002:00014884       ??_C@_1CA@GPIGPPFN@?$AA?$CI?$AAp?$AAM?$AAo?$AAd?$AAe?$AA?5?$AA?$CB?$AA?$DN?$AA?5?$AAN?$AAU?$AAL?$AAL?$AA?$CJ?$AA?$AA@ 200a6884     LIBCMTD:setmode.obj
 0002:000148a4       ??_C@_1CC@JLPHKJPH@?$AAc?$AAo?$AAu?$AAn?$AAt?$AA?5?$AA?$DM?$AA?$DN?$AA?5?$AAI?$AAN?$AAT?$AA_?$AAM?$AAA?$AAX?$AA?$AA@ 200a68a4     LIBCMTD:strnicmp.obj
 0002:000148c8       ??_C@_1BI@BJLEPLEF@?$AA_?$AAs?$AAt?$AAr?$AAn?$AAi?$AAc?$AAm?$AAp?$AA_?$AAl?$AA?$AA@ 200a68c8     LIBCMTD:strnicmp.obj
 0002:000148e0       ??_C@_1GE@CONPOJMA@?$AAf?$AA?3?$AA?2?$AAd?$AAd?$AA?2?$AAv?$AAc?$AAt?$AAo?$AAo?$AAl?$AAs?$AA?2?$AAc?$AAr?$AAt?$AA_?$AAb?$AAl?$AAd?$AA?2?$AAs?$AAe?$AAl?$AAf?$AA_?$AAx?$AA8?$AA6?$AA?2?$AAc@ 200a68e0     LIBCMTD:strnicmp.obj
 0002:00014944       ??_C@_1BE@BHJDFFNA@?$AA_?$AAs?$AAt?$AAr?$AAn?$AAi?$AAc?$AAm?$AAp?$AA?$AA@ 200a6944     LIBCMTD:strnicmp.obj
 0002:00014958       ??_C@_1CA@LFDHAMEM@?$AA_?$AAs?$AAe?$AAt?$AA_?$AAe?$AAr?$AAr?$AAo?$AAr?$AA_?$AAm?$AAo?$AAd?$AAe?$AA?$AA@ 200a6958     LIBCMTD:errmode.obj
 0002:00014978       ??_C@_1GC@FGMGFCNB@?$AAf?$AA?3?$AA?2?$AAd?$AAd?$AA?2?$AAv?$AAc?$AAt?$AAo?$AAo?$AAl?$AAs?$AA?2?$AAc?$AAr?$AAt?$AA_?$AAb?$AAl?$AAd?$AA?2?$AAs?$AAe?$AAl?$AAf?$AA_?$AAx?$AA8?$AA6?$AA?2?$AAc@ 200a6978     LIBCMTD:errmode.obj
 0002:000149dc       ??_C@_1DE@BCNCAIK@?$AA?$CI?$AA?$CC?$AAI?$AAn?$AAv?$AAa?$AAl?$AAi?$AAd?$AA?5?$AAe?$AAr?$AAr?$AAo?$AAr?$AA_?$AAm?$AAo?$AAd?$AAe?$AA?$CC?$AA?0?$AA?5?$AA0?$AA?$CJ?$AA?$AA@ 200a69dc     LIBCMTD:errmode.obj
 0002:00014a10       ??_C@_1BE@PMMBFFCC@?$AAw?$AAc?$AAs?$AAn?$AAc?$AAp?$AAy?$AA_?$AAs?$AA?$AA@ 200a6a10     LIBCMTD:wcsncpy_s.obj
 0002:00014a48       ??_7type_info@@6B@         200a6a48     LIBCMTD:typinfo.obj
 0002:00014a50       ??_7exception@std@@6B@     200a6a50     LIBCMTD:stdexcpt.obj
 0002:00014a58       ??_C@_0BC@EOODALEL@Unknown?5exception?$AA@ 200a6a58     LIBCMTD:stdexcpt.obj
 0002:00014a70       ??_7bad_cast@std@@6B@      200a6a70     LIBCMTD:stdexcpt.obj
 0002:00014a7c       ??_7bad_typeid@std@@6B@    200a6a7c     LIBCMTD:stdexcpt.obj
 0002:00014a88       ??_7__non_rtti_object@std@@6B@ 200a6a88     LIBCMTD:stdexcpt.obj
 0002:00014a90       ??_C@_1GE@BDAODJCD@?$AAf?$AA?3?$AA?2?$AAd?$AAd?$AA?2?$AAv?$AAc?$AAt?$AAo?$AAo?$AAl?$AAs?$AA?2?$AAc?$AAr?$AAt?$AA_?$AAb?$AAl?$AAd?$AA?2?$AAs?$AAe?$AAl?$AAf?$AA_?$AAx?$AA8?$AA6?$AA?2?$AAc@ 200a6a90     LIBCMTD:dbgdel.obj
 0002:00014af4       ??_C@_1BK@ONMFGLDB@?$AA_?$AAw?$AAo?$AAu?$AAt?$AAp?$AAu?$AAt?$AA_?$AAs?$AA_?$AAl?$AA?$AA@ 200a6af4     LIBCMTD:woutputs.obj
 0002:00014b10       ??_C@_1BK@GDEKGMNC@?$AA_?$AAw?$AAo?$AAu?$AAt?$AAp?$AAu?$AAt?$AA_?$AAp?$AA_?$AAl?$AA?$AA@ 200a6b10     LIBCMTD:woutputp.obj
 0002:00014b2c       ??_C@_1O@HJNPHHHB@?$AAf?$AAp?$AAu?$AAt?$AAw?$AAc?$AA?$AA@ 200a6b2c     LIBCMTD:fputwc.obj
 0002:00014b40       ??_C@_1GA@BJIGKGEA@?$AAf?$AA?3?$AA?2?$AAd?$AAd?$AA?2?$AAv?$AAc?$AAt?$AAo?$AAo?$AAl?$AAs?$AA?2?$AAc?$AAr?$AAt?$AA_?$AAb?$AAl?$AAd?$AA?2?$AAs?$AAe?$AAl?$AAf?$AA_?$AAx?$AA8?$AA6?$AA?2?$AAc@ 200a6b40     LIBCMTD:fputwc.obj
 0002:00014ba0       ??_C@_1FO@IFEMNBMO@?$AAf?$AA?3?$AA?2?$AAd?$AAd?$AA?2?$AAv?$AAc?$AAt?$AAo?$AAo?$AAl?$AAs?$AA?2?$AAc?$AAr?$AAt?$AA_?$AAb?$AAl?$AAd?$AA?2?$AAs?$AAe?$AAl?$AAf?$AA_?$AAx?$AA8?$AA6?$AA?2?$AAc@ 200a6ba0     LIBCMTD:a_cmp.obj
 0002:00014c00       ??_C@_1HK@ELDMAMK@?$AAc?$AAc?$AAh?$AAC?$AAo?$AAu?$AAn?$AAt?$AA1?$AA?$DN?$AA?$DN?$AA0?$AA?5?$AA?$CG?$AA?$CG?$AA?5?$AAc?$AAc?$AAh?$AAC?$AAo?$AAu?$AAn?$AAt?$AA2?$AA?$DN?$AA?$DN?$AA1?$AA?5?$AA?$HM?$AA?$HM?$AA?5@ 200a6c00     LIBCMTD:a_cmp.obj
 0002:00014c7c       ??_C@_1CC@CNADELFK@?$AA_?$AAs?$AAt?$AAr?$AAi?$AAn?$AAg?$AA2?$AA?5?$AA?$CB?$AA?$DN?$AA?5?$AAN?$AAU?$AAL?$AAL?$AA?$AA@ 200a6c7c     LIBCMTD:strnicol.obj
 0002:00014ca0       ??_C@_1BK@IOJEBPLP@?$AA_?$AAs?$AAt?$AAr?$AAn?$AAi?$AAc?$AAo?$AAl?$AAl?$AA_?$AAl?$AA?$AA@ 200a6ca0     LIBCMTD:strnicol.obj
 0002:00014cc0       ??_C@_1GE@BDOBNJJ@?$AAf?$AA?3?$AA?2?$AAd?$AAd?$AA?2?$AAv?$AAc?$AAt?$AAo?$AAo?$AAl?$AAs?$AA?2?$AAc?$AAr?$AAt?$AA_?$AAb?$AAl?$AAd?$AA?2?$AAs?$AAe?$AAl?$AAf?$AA_?$AAx?$AA8?$AA6?$AA?2?$AAc@ 200a6cc0     LIBCMTD:strnicol.obj
 0002:00014d24       ??_C@_1CC@ICKKAGJA@?$AA_?$AAs?$AAt?$AAr?$AAi?$AAn?$AAg?$AA1?$AA?5?$AA?$CB?$AA?$DN?$AA?5?$AAN?$AAU?$AAL?$AAL?$AA?$AA@ 200a6d24     LIBCMTD:strnicol.obj
 0002:00014d48       ??_C@_1FG@OKIAKKPK@?$AAs?$AAt?$AAr?$AAc?$AAp?$AAy?$AA_?$AAs?$AA?$CI?$AAn?$AAa?$AAm?$AAe?$AA?0?$AA?5?$AAs?$AAt?$AAr?$AAl?$AAe?$AAn?$AA?$CI?$AAo?$AAp?$AAt?$AAi?$AAo?$AAn?$AA?$CJ?$AA?5?$AA?$CL?$AA?5@ 200a6d48     LIBCMTD:setenv.obj
 0002:00014da0       ??_C@_1EI@GHDNAPMG@?$AA?$CI?$AA?$CC?$AAC?$AAR?$AAT?$AA?5?$AAL?$AAo?$AAg?$AAi?$AAc?$AA?5?$AAe?$AAr?$AAr?$AAo?$AAr?$AA?5?$AAd?$AAu?$AAr?$AAi?$AAn?$AAg?$AA?5?$AAs?$AAe?$AAt?$AAe?$AAn?$AAv?$AA?$CC@ 200a6da0     LIBCMTD:setenv.obj
 0002:00014de8       ??_C@_0DA@NHJGCDK@f?3?2dd?2vctools?2crt_bld?2self_x86?2c@ 200a6de8     LIBCMTD:setenv.obj
 0002:00014e18       ??_C@_1FC@EEJIEIDF@?$AA_?$AAt?$AAc?$AAs?$AAn?$AAl?$AAe?$AAn?$AA?$CI?$AAe?$AAq?$AAu?$AAa?$AAl?$AA?5?$AA?$CL?$AA?5?$AA1?$AA?0?$AA?5?$AA_?$AAM?$AAA?$AAX?$AA_?$AAE?$AAN?$AAV?$AA?$CJ?$AA?5?$AA?$DM?$AA?5@ 200a6e18     LIBCMTD:setenv.obj
 0002:00014e6c       ??_C@_1DE@EEHFNNGH@?$AAe?$AAq?$AAu?$AAa?$AAl?$AA?5?$AA?9?$AA?5?$AAo?$AAp?$AAt?$AAi?$AAo?$AAn?$AA?5?$AA?$DM?$AA?5?$AA_?$AAM?$AAA?$AAX?$AA_?$AAE?$AAN?$AAV?$AA?$AA@ 200a6e6c     LIBCMTD:setenv.obj
 0002:00014ea0       ??_C@_1BI@CDAFOAAL@?$AA_?$AA_?$AAc?$AAr?$AAt?$AAs?$AAe?$AAt?$AAe?$AAn?$AAv?$AA?$AA@ 200a6ea0     LIBCMTD:setenv.obj
 0002:00014eb8       ??_C@_1GA@KKPDKNLP@?$AAf?$AA?3?$AA?2?$AAd?$AAd?$AA?2?$AAv?$AAc?$AAt?$AAo?$AAo?$AAl?$AAs?$AA?2?$AAc?$AAr?$AAt?$AA_?$AAb?$AAl?$AAd?$AA?2?$AAs?$AAe?$AAl?$AAf?$AA_?$AAx?$AA8?$AA6?$AA?2?$AAc@ 200a6eb8     LIBCMTD:setenv.obj
 0002:00014f18       ??_C@_1CA@LMBEKBDN@?$AAp?$AAo?$AAp?$AAt?$AAi?$AAo?$AAn?$AA?5?$AA?$CB?$AA?$DN?$AA?5?$AAN?$AAU?$AAL?$AAL?$AA?$AA@ 200a6f18     LIBCMTD:setenv.obj
 0002:00014f38       ??_C@_1FK@DNFLNPD@?$AAs?$AAt?$AAr?$AAc?$AAp?$AAy?$AA_?$AAs?$AA?$CI?$AA?$CK?$AAn?$AAe?$AAw?$AAe?$AAn?$AAv?$AAp?$AAt?$AAr?$AA?0?$AA?5?$AAe?$AAn?$AAv?$AAp?$AAt?$AAr?$AAS?$AAi?$AAz?$AAe?$AA?0@ 200a6f38     LIBCMTD:setenv.obj
 0002:00014f94       ??_C@_1BK@ECKIJLPM@?$AAc?$AAo?$AAp?$AAy?$AA_?$AAe?$AAn?$AAv?$AAi?$AAr?$AAo?$AAn?$AA?$AA@ 200a6f94     LIBCMTD:setenv.obj
 0002:00014fb0       ??_C@_1HG@KNCBMCDD@?$AAf?$AA?3?$AA?2?$AAd?$AAd?$AA?2?$AAv?$AAc?$AAt?$AAo?$AAo?$AAl?$AAs?$AA?2?$AAc?$AAr?$AAt?$AA_?$AAb?$AAl?$AAd?$AA?2?$AAs?$AAe?$AAl?$AAf?$AA_?$AAx?$AA8?$AA6?$AA?2?$AAc@ 200a6fb0     LIBCMTD:typname.obj
 0002:00015028       ??_C@_1CK@GELGGBDK@?$AAp?$AAN?$AAo?$AAd?$AAe?$AA?9?$AA?$DO?$AA_?$AAN?$AAe?$AAx?$AAt?$AA?5?$AA?$CB?$AA?$DN?$AA?5?$AAN?$AAU?$AAL?$AAL?$AA?$AA@ 200a7028     LIBCMTD:typname.obj
 0002:00015058       ??_C@_1JK@NAFNEPGC@?$AAs?$AAt?$AAr?$AAc?$AAp?$AAy?$AA_?$AAs?$AA?5?$AA?$CI?$AA?$CI?$AAc?$AAh?$AAa?$AAr?$AA?5?$AA?$CK?$AA?$CJ?$AA?$CI?$AA?$CI?$AAt?$AAy?$AAp?$AAe?$AA_?$AAi?$AAn?$AAf?$AAo?$AA?5?$AA?$CK?$AA?$CJ@ 200a7058     LIBCMTD:typname.obj
 0002:000150f4       ??_C@_1CM@OOICDMK@?$AAt?$AAy?$AAp?$AAe?$AA_?$AAi?$AAn?$AAf?$AAo?$AA?3?$AA?3?$AA_?$AAN?$AAa?$AAm?$AAe?$AA_?$AAb?$AAa?$AAs?$AAe?$AA?$AA@ 200a70f4     LIBCMTD:typname.obj
 0002:00015120       ??_C@_1GI@EAJKJPED@?$AAs?$AAt?$AAr?$AAc?$AAp?$AAy?$AA_?$AAs?$AA?5?$AA?$CI?$AAp?$AAT?$AAm?$AAp?$AAT?$AAy?$AAp?$AAe?$AAN?$AAa?$AAm?$AAe?$AA?0?$AA?5?$AAl?$AAe?$AAn?$AA?$CL?$AA2?$AA?0?$AA?5?$AA?$CI@ 200a7120     LIBCMTD:typname.obj
 0002:00015188       ??_C@_1DO@OJJLFJPE@?$AAt?$AAy?$AAp?$AAe?$AA_?$AAi?$AAn?$AAf?$AAo?$AA?3?$AA?3?$AA_?$AAN?$AAa?$AAm?$AAe?$AA_?$AAb?$AAa?$AAs?$AAe?$AA_?$AAi?$AAn?$AAt?$AAe?$AAr?$AAn?$AAa?$AAl?$AA?$AA@ 200a7188     LIBCMTD:typname.obj
 0002:000151c8       ??_C@_1BA@PCFLFGNC@?$AAw?$AAc?$AAs?$AAt?$AAo?$AAx?$AAl?$AA?$AA@ 200a71c8     LIBCMTD:wcstol.obj
 0002:000151d8       ??_C@_1GA@CADFOND@?$AAf?$AA?3?$AA?2?$AAd?$AAd?$AA?2?$AAv?$AAc?$AAt?$AAo?$AAo?$AAl?$AAs?$AA?2?$AAc?$AAr?$AAt?$AA_?$AAb?$AAl?$AAd?$AA?2?$AAs?$AAe?$AAl?$AAf?$AA_?$AAx?$AA8?$AA6?$AA?2?$AAc@ 200a71d8     LIBCMTD:wcstol.obj
 0002:00015238       ??_C@_1BE@JKKFLIKJ@?$AA_?$AAm?$AAb?$AAs?$AAc?$AAh?$AAr?$AA_?$AAl?$AA?$AA@ 200a7238     LIBCMTD:mbschr.obj
 0002:00015250       ??_C@_1GA@GDCAGKMG@?$AAf?$AA?3?$AA?2?$AAd?$AAd?$AA?2?$AAv?$AAc?$AAt?$AAo?$AAo?$AAl?$AAs?$AA?2?$AAc?$AAr?$AAt?$AA_?$AAb?$AAl?$AAd?$AA?2?$AAs?$AAe?$AAl?$AAf?$AA_?$AAx?$AA8?$AA6?$AA?2?$AAc@ 200a7250     LIBCMTD:mbschr.obj
 0002:000152b0       ??_C@_1BO@JIBAMMGI@?$AAs?$AAt?$AAr?$AAi?$AAn?$AAg?$AA?5?$AA?$CB?$AA?$DN?$AA?5?$AAN?$AAU?$AAL?$AAL?$AA?$AA@ 200a72b0     LIBCMTD:mbschr.obj
 0002:000152d0       ??_C@_0BK@CFCOFLF@?5Complete?5Object?5Locator?8?$AA@ 200a72d0     LIBCMTD:undname.obj
 0002:000152ec       ??_C@_0BN@MECKDCOJ@?5Class?5Hierarchy?5Descriptor?8?$AA@ 200a72ec     LIBCMTD:undname.obj
 0002:0001530c       ??_C@_0BD@LGICGFMM@?5Base?5Class?5Array?8?$AA@ 200a730c     LIBCMTD:undname.obj
 0002:00015320       ??_C@_0BM@LDKODKLH@?5Base?5Class?5Descriptor?5at?5?$CI?$AA@ 200a7320     LIBCMTD:undname.obj
 0002:0001533c       ??_C@_0BC@DAFEJGAK@?5Type?5Descriptor?8?$AA@ 200a733c     LIBCMTD:undname.obj
 0002:00015350       ??_C@_0BM@PMGGMLDN@?$GAlocal?5static?5thread?5guard?8?$AA@ 200a7350     LIBCMTD:undname.obj
 0002:0001536c       ??_C@_0CL@FGIJHLCE@?$GAmanaged?5vector?5copy?5constructor@ 200a736c     LIBCMTD:undname.obj
 0002:00015398       ??_C@_0CJ@GJELGAMM@?$GAvector?5vbase?5copy?5constructor?5i@ 200a7398     LIBCMTD:undname.obj
 0002:000153c4       ??_C@_0CD@CGAJBKEJ@?$GAvector?5copy?5constructor?5iterato@ 200a73c4     LIBCMTD:undname.obj
 0002:000153e8       ??_C@_0CB@PDBIFEP@?$GAdynamic?5atexit?5destructor?5for?5?8@ 200a73e8     LIBCMTD:undname.obj
 0002:0001540c       ??_C@_0BL@CLIPGLGB@?$GAdynamic?5initializer?5for?5?8?$AA@ 200a740c     LIBCMTD:undname.obj
 0002:00015428       ??_C@_0CM@FCBBDIGB@?$GAeh?5vector?5vbase?5copy?5constructo@ 200a7428     LIBCMTD:undname.obj
 0002:00015454       ??_C@_0CG@HLDDJMAG@?$GAeh?5vector?5copy?5constructor?5iter@ 200a7454     LIBCMTD:undname.obj
 0002:0001547c       ??_C@_0CF@IMGKMJNO@?$GAmanaged?5vector?5destructor?5itera@ 200a747c     LIBCMTD:undname.obj
 0002:000154a4       ??_C@_0CG@CFDHKGGD@?$GAmanaged?5vector?5constructor?5iter@ 200a74a4     LIBCMTD:undname.obj
 0002:000154cc       ??_C@_0BN@CKNJLHMB@?$GAplacement?5delete?$FL?$FN?5closure?8?$AA@ 200a74cc     LIBCMTD:undname.obj
 0002:000154ec       ??_C@_0BL@CNOONJFP@?$GAplacement?5delete?5closure?8?$AA@ 200a74ec     LIBCMTD:undname.obj
 0002:00015508       ??_C@_0P@HJKNJFNN@?$GAomni?5callsig?8?$AA@ 200a7508     LIBCMTD:undname.obj
 0002:00015518       ??_C@_09LBNFPBCA@?5delete?$FL?$FN?$AA@ 200a7518     LIBCMTD:undname.obj
 0002:00015524       ??_C@_06FHBGPFGH@?5new?$FL?$FN?$AA@ 200a7524     LIBCMTD:undname.obj
 0002:0001552c       ??_C@_0CE@IIHCMGGL@?$GAlocal?5vftable?5constructor?5closu@ 200a752c     LIBCMTD:undname.obj
 0002:00015550       ??_C@_0BA@KKLDJDLB@?$GAlocal?5vftable?8?$AA@ 200a7550     LIBCMTD:undname.obj
 0002:00015560       ??_C@_05KHLCHHI@?$GARTTI?$AA@ 200a7560     LIBCMTD:undname.obj
 0002:00015568       ??_C@_03KLGMFNMG@?$GAEH?$AA@ 200a7568     LIBCMTD:undname.obj
 0002:0001556c       ??_C@_0BA@KBCDOMBN@?$GAudt?5returning?8?$AA@ 200a756c     LIBCMTD:undname.obj
 0002:0001557c       ??_C@_0BL@LLKPOHJI@?$GAcopy?5constructor?5closure?8?$AA@ 200a757c     LIBCMTD:undname.obj
 0002:00015598       ??_C@_0CH@OOJPLCPH@?$GAeh?5vector?5vbase?5constructor?5ite@ 200a7598     LIBCMTD:undname.obj
 0002:000155c0       ??_C@_0CA@GCEOPDGL@?$GAeh?5vector?5destructor?5iterator?8?$AA@ 200a75c0     LIBCMTD:undname.obj
 0002:000155e0       ??_C@_0CB@JONCMFFK@?$GAeh?5vector?5constructor?5iterator?8@ 200a75e0     LIBCMTD:undname.obj
 0002:00015604       ??_C@_0BL@NILFHHPC@?$GAvirtual?5displacement?5map?8?$AA@ 200a7604     LIBCMTD:undname.obj
 0002:00015620       ??_C@_0CE@IKBNEHA@?$GAvector?5vbase?5constructor?5iterat@ 200a7620     LIBCMTD:undname.obj
 0002:00015644       ??_C@_0BN@LFPFMEDL@?$GAvector?5destructor?5iterator?8?$AA@ 200a7644     LIBCMTD:undname.obj
 0002:00015664       ??_C@_0BO@PFGOCPJJ@?$GAvector?5constructor?5iterator?8?$AA@ 200a7664     LIBCMTD:undname.obj
 0002:00015684       ??_C@_0BN@IMDCHIKM@?$GAscalar?5deleting?5destructor?8?$AA@ 200a7684     LIBCMTD:undname.obj
 0002:000156a4       ??_C@_0BO@OBMKPJIG@?$GAdefault?5constructor?5closure?8?$AA@ 200a76a4     LIBCMTD:undname.obj
 0002:000156c4       ??_C@_0BN@DEGPLNFK@?$GAvector?5deleting?5destructor?8?$AA@ 200a76c4     LIBCMTD:undname.obj
 0002:000156e4       ??_C@_0BD@JDLKDPAB@?$GAvbase?5destructor?8?$AA@ 200a76e4     LIBCMTD:undname.obj
 0002:000156f8       ??_C@_08OBABFOLI@?$GAstring?8?$AA@ 200a76f8     LIBCMTD:undname.obj
 0002:00015704       ??_C@_0BF@KDPPACIK@?$GAlocal?5static?5guard?8?$AA@ 200a7704     LIBCMTD:undname.obj
 0002:0001571c       ??_C@_08LLFFHHDJ@?$GAtypeof?8?$AA@ 200a771c     LIBCMTD:undname.obj
 0002:00015728       ??_C@_07FEEIOKP@?$GAvcall?8?$AA@ 200a7728     LIBCMTD:undname.obj
 0002:00015730       ??_C@_09BLBHBJP@?$GAvbtable?8?$AA@ 200a7730     LIBCMTD:undname.obj
 0002:0001573c       ??_C@_09IFPLHPGF@?$GAvftable?8?$AA@ 200a773c     LIBCMTD:undname.obj
 0002:00015748       ??_C@_02MHEGNOJ@?$FO?$DN?$AA@ 200a7748     LIBCMTD:undname.obj
 0002:0001574c       ??_C@_02DHLNPPGH@?$HM?$DN?$AA@ 200a774c     LIBCMTD:undname.obj
 0002:00015750       ??_C@_02FGJGFEAB@?$CG?$DN?$AA@ 200a7750     LIBCMTD:undname.obj
 0002:00015754       ??_C@_03CDNPDDLA@?$DM?$DM?$DN?$AA@ 200a7754     LIBCMTD:undname.obj
 0002:00015758       ??_C@_03IKFCCPFF@?$DO?$DO?$DN?$AA@ 200a7758     LIBCMTD:undname.obj
 0002:0001575c       ??_C@_02FENAOKFI@?$CF?$DN?$AA@ 200a775c     LIBCMTD:undname.obj
 0002:00015760       ??_C@_02FJEHGPIO@?1?$DN?$AA@ 200a7760     LIBCMTD:undname.obj
 0002:00015764       ??_C@_02FKMDLLOA@?9?$DN?$AA@ 200a7764     LIBCMTD:undname.obj
 0002:00015768       ??_C@_02FOEOMHFC@?$CL?$DN?$AA@ 200a7768     LIBCMTD:undname.obj
 0002:0001576c       ??_C@_02FPIMKNGF@?$CK?$DN?$AA@ 200a776c     LIBCMTD:undname.obj
 0002:00015770       ??_C@_02NONPIBCD@?$HM?$HM?$AA@ 200a7770     LIBCMTD:undname.obj
 0002:00015774       ??_C@_02PPKAJPJL@?$CG?$CG?$AA@ 200a7774     LIBCMTD:undname.obj
 0002:00015778       ??_C@_01DNKMNLPK@?$HM?$AA@ 200a7778     LIBCMTD:undname.obj
 0002:0001577c       ??_C@_01JKBOJNNK@?$FO?$AA@ 200a777c     LIBCMTD:undname.obj
 0002:00015780       ??_C@_01PJKLJHI@?$HO?$AA@  200a7780     LIBCMTD:undname.obj
 0002:00015784       ??_C@_02HCKGKOFO@?$CI?$CJ?$AA@ 200a7784     LIBCMTD:undname.obj
 0002:00015788       ??_C@_01IHBHIGKO@?0?$AA@   200a7788     LIBCMTD:undname.obj
 0002:0001578c       ??_C@_02EEKDKGMJ@?$DO?$DN?$AA@ 200a778c     LIBCMTD:undname.obj
 0002:00015790       ??_C@_01PPODPGHN@?$DO?$AA@ 200a7790     LIBCMTD:undname.obj
 0002:00015794       ??_C@_02EHCHHCKH@?$DM?$DN?$AA@ 200a7794     LIBCMTD:undname.obj
 0002:00015798       ??_C@_01MNNFJEPP@?$DM?$AA@ 200a7798     LIBCMTD:undname.obj
 0002:0001579c       ??_C@_01FGNFDNOH@?$CF?$AA@ 200a779c     LIBCMTD:undname.obj
 0002:000157a0       ??_C@_01KMDKNFGN@?1?$AA@   200a77a0     LIBCMTD:undname.obj
 0002:000157a4       ??_C@_03MNHNFDLC@?9?$DO?$CK?$AA@ 200a77a4     LIBCMTD:undname.obj
 0002:000157a8       ??_C@_01HNPIGOCE@?$CG?$AA@ 200a77a8     LIBCMTD:undname.obj
 0002:000157ac       ??_C@_01MIFGBAGJ@?$CL?$AA@ 200a77ac     LIBCMTD:undname.obj
 0002:000157b0       ??_C@_01JOAMLHOP@?9?$AA@   200a77b0     LIBCMTD:undname.obj
 0002:000157b4       ??_C@_02BAABKJLB@?9?9?$AA@ 200a77b4     LIBCMTD:undname.obj
 0002:000157b8       ??_C@_02ECNGHCIF@?$CL?$CL?$AA@ 200a77b8     LIBCMTD:undname.obj
 0002:000157bc       ??_C@_02HBOOOICD@?9?$DO?$AA@ 200a77bc     LIBCMTD:undname.obj
 0002:000157c0       ??_C@_08LHJFAFGD@operator?$AA@ 200a77c0     LIBCMTD:undname.obj
 0002:000157cc       ??_C@_02GPECMEKF@?$FL?$FN?$AA@ 200a77cc     LIBCMTD:undname.obj
 0002:000157d0       ??_C@_02FDNJECIE@?$CB?$DN?$AA@ 200a77d0     LIBCMTD:undname.obj
 0002:000157d4       ??_C@_02EGOFBIJA@?$DN?$DN?$AA@ 200a77d4     LIBCMTD:undname.obj
 0002:000157d8       ??_C@_01DCLJPIOD@?$CB?$AA@ 200a77d8     LIBCMTD:undname.obj
 0002:000157dc       ??_C@_02FODMEDOG@?$DM?$DM?$AA@ 200a77dc     LIBCMTD:undname.obj
 0002:000157e0       ??_C@_02GPIOPFAK@?$DO?$DO?$AA@ 200a77e0     LIBCMTD:undname.obj
 0002:000157e4       ??_C@_07FPCDHGMM@?5delete?$AA@ 200a77e4     LIBCMTD:undname.obj
 0002:000157ec       ??_C@_04NIHEBCM@?5new?$AA@ 200a77ec     LIBCMTD:undname.obj
 0002:000157f4       ??_C@_0M@GFIIJFMG@__unaligned?$AA@ 200a77f4     LIBCMTD:undname.obj
 0002:00015800       ??_C@_0L@PILCLIHE@__restrict?$AA@ 200a7800     LIBCMTD:undname.obj
 0002:0001580c       ??_C@_07JOMMBBKO@__ptr64?$AA@ 200a780c     LIBCMTD:undname.obj
 0002:00015814       ??_C@_06GHPCKEAG@__eabi?$AA@ 200a7814     LIBCMTD:undname.obj
 0002:0001581c       ??_C@_09HIJEGCPM@__clrcall?$AA@ 200a781c     LIBCMTD:undname.obj
 0002:00015828       ??_C@_0L@JMKHOMEK@__fastcall?$AA@ 200a7828     LIBCMTD:undname.obj
 0002:00015834       ??_C@_0L@NPHFGOKO@__thiscall?$AA@ 200a7834     LIBCMTD:undname.obj
 0002:00015840       ??_C@_09IFJBGAPI@__stdcall?$AA@ 200a7840     LIBCMTD:undname.obj
 0002:0001584c       ??_C@_08GHMPAG@__pascal?$AA@ 200a784c     LIBCMTD:undname.obj
 0002:00015858       ??_C@_07KOLFKCDI@__cdecl?$AA@ 200a7858     LIBCMTD:undname.obj
 0002:00015860       ??_C@_08EHJDFFNH@__based?$CI?$AA@ 200a7860     LIBCMTD:undname.obj
 0002:000159f4       ??_C@_04HEJADOOB@CV?3?5?$AA@ 200a79f4     LIBCMTD:undname.obj
 0002:000159fc       ??_C@_02MOLJINC@?3?3?$AA@  200a79fc     LIBCMTD:undname.obj
 0002:00015a00       ??_C@_01GEODFPGF@?8?$AA@   200a7a00     LIBCMTD:undname.obj
 0002:00015a04       ??_C@_01NLNLIGKH@?$GA?$AA@ 200a7a04     LIBCMTD:undname.obj
 0002:00015a08       ??_C@_0O@KHGCOMHP@generic?9type?9?$AA@ 200a7a08     LIBCMTD:undname.obj
 0002:00015a18       ??_C@_0BE@JAEOCHPE@template?9parameter?9?$AA@ 200a7a18     LIBCMTD:undname.obj
 0002:00015a2c       ??_C@_02OHHJMEON@?8?8?$AA@ 200a7a2c     LIBCMTD:undname.obj
 0002:00015a30       ??_C@_0BG@JNJLAMPM@?$GAanonymous?5namespace?8?$AA@ 200a7a30     LIBCMTD:undname.obj
 0002:00015a48       ??_C@_0BN@IBLMMFAP@?$GAnon?9type?9template?9parameter?$AA@ 200a7a48     LIBCMTD:undname.obj
 0002:00015a68       ??_C@_0BE@EODMJLIF@?$GAtemplate?9parameter?$AA@ 200a7a68     LIBCMTD:undname.obj
 0002:00015a7c       ??_C@_04GKJNKENE@void?$AA@ 200a7a7c     LIBCMTD:undname.obj
 0002:00015a84       ??_C@_04HIBGFPH@NULL?$AA@  200a7a84     LIBCMTD:undname.obj
 0002:00015a8c       ??_C@_0M@DHNBOJMP@extern?5?$CCC?$CC?5?$AA@ 200a7a8c     LIBCMTD:undname.obj
 0002:00015a98       ??_C@_08KJLFOPNE@?$FLthunk?$FN?3?$AA@ 200a7a98     LIBCMTD:undname.obj
 0002:00015aa4       ??_C@_08GPDDCMKI@public?3?5?$AA@ 200a7aa4     LIBCMTD:undname.obj
 0002:00015ab0       ??_C@_0M@GAIFPFIP@protected?3?5?$AA@ 200a7ab0     LIBCMTD:undname.obj
 0002:00015abc       ??_C@_09LAPHOOG@private?3?5?$AA@ 200a7abc     LIBCMTD:undname.obj
 0002:00015ac8       ??_C@_08NIEOINHE@virtual?5?$AA@ 200a7ac8     LIBCMTD:undname.obj
 0002:00015ad4       ??_C@_07PGOEDBHP@static?5?$AA@ 200a7ad4     LIBCMTD:undname.obj
 0002:00015adc       ??_C@_0DA@HGFJFBBE@?$GAtemplate?5static?5data?5member?5des@ 200a7adc     LIBCMTD:undname.obj
 0002:00015b0c       ??_C@_0DB@ILEFOCIJ@?$GAtemplate?5static?5data?5member?5con@ 200a7b0c     LIBCMTD:undname.obj
 0002:00015b40       ??_C@_0CB@KJDOOODE@?$GAlocal?5static?5destructor?5helper?8@ 200a7b40     LIBCMTD:undname.obj
 0002:00015b64       ??_C@_0L@HNGCOGAE@?$GAadjustor?$HL?$AA@ 200a7b64     LIBCMTD:undname.obj
 0002:00015b70       ??_C@_0L@GHPFDFH@?$GAvtordisp?$HL?$AA@ 200a7b70     LIBCMTD:undname.obj
 0002:00015b7c       ??_C@_0N@CBHHHENL@?$GAvtordispex?$HL?$AA@ 200a7b7c     LIBCMTD:undname.obj
 0002:00015b8c       ??_C@_02IGFCGPIL@?$HN?8?$AA@ 200a7b8c     LIBCMTD:undname.obj
 0002:00015b90       ??_C@_03OPGICMGF@?$HN?8?5?$AA@ 200a7b90     LIBCMTD:undname.obj
 0002:00015b94       ??_C@_02KCKGHPCA@?$CJ?5?$AA@ 200a7b94     LIBCMTD:undname.obj
 0002:00015b98       ??_C@_05BEFAKPML@void?5?$AA@ 200a7b98     LIBCMTD:undname.obj
 0002:00015ba0       ??_C@_0P@GCOCNKDM@std?3?3nullptr_t?$AA@ 200a7ba0     LIBCMTD:undname.obj
 0002:00015bb0       ??_C@_08PABEKFH@volatile?$AA@ 200a7bb0     LIBCMTD:undname.obj
 0002:00015bbc       ??_C@_0M@ELJOJFFH@?0?$DMellipsis?$DO?$AA@ 200a7bbc     LIBCMTD:undname.obj
 0002:00015bc8       ??_C@_04EENFHACM@?0?4?4?4?$AA@ 200a7bc8     LIBCMTD:undname.obj
 0002:00015bd0       ??_C@_0L@EGPHHEKN@?$DMellipsis?$DO?$AA@ 200a7bd0     LIBCMTD:undname.obj
 0002:00015bdc       ??_C@_07HDJPLPEK@?5throw?$CI?$AA@ 200a7bdc     LIBCMTD:undname.obj
 0002:00015be4       ??_C@_09EFNPDFFP@?5volatile?$AA@ 200a7be4     LIBCMTD:undname.obj
 0002:00015bf0       ??_C@_05BNCCCJPP@const?$AA@ 200a7bf0     LIBCMTD:undname.obj
 0002:00015bf8       ??_C@_07EDHNAJHC@signed?5?$AA@ 200a7bf8     LIBCMTD:undname.obj
 0002:00015c00       ??_C@_09EBBEKKIH@unsigned?5?$AA@ 200a7c00     LIBCMTD:undname.obj
 0002:00015c0c       ??_C@_07NFANNNEC@UNKNOWN?$AA@ 200a7c0c     LIBCMTD:undname.obj
 0002:00015c14       ??_C@_06GCICPBLB@__w64?5?$AA@ 200a7c14     LIBCMTD:undname.obj
 0002:00015c1c       ??_C@_07CLGGIAMF@wchar_t?$AA@ 200a7c1c     LIBCMTD:undname.obj
 0002:00015c24       ??_C@_09EEKGDCPH@?$DMunknown?$DO?$AA@ 200a7c24     LIBCMTD:undname.obj
 0002:00015c30       ??_C@_08GAHOLHEO@__int128?$AA@ 200a7c30     LIBCMTD:undname.obj
 0002:00015c3c       ??_C@_07LFCOJCAC@__int64?$AA@ 200a7c3c     LIBCMTD:undname.obj
 0002:00015c44       ??_C@_07OFLPPHGP@__int32?$AA@ 200a7c44     LIBCMTD:undname.obj
 0002:00015c4c       ??_C@_07ICFHOGAF@__int16?$AA@ 200a7c4c     LIBCMTD:undname.obj
 0002:00015c54       ??_C@_06EBGKOKIG@__int8?$AA@ 200a7c54     LIBCMTD:undname.obj
 0002:00015c5c       ??_C@_04DDKJGDCM@bool?$AA@ 200a7c5c     LIBCMTD:undname.obj
 0002:00015c64       ??_C@_06BNJCAIGJ@double?$AA@ 200a7c64     LIBCMTD:undname.obj
 0002:00015c6c       ??_C@_05CJIMAING@long?5?$AA@ 200a7c6c     LIBCMTD:undname.obj
 0002:00015c74       ??_C@_05KNFBNCOH@float?$AA@ 200a7c74     LIBCMTD:undname.obj
 0002:00015c7c       ??_C@_04GOKPGOLB@long?$AA@ 200a7c7c     LIBCMTD:undname.obj
 0002:00015c84       ??_C@_03JBIPMCLC@int?$AA@  200a7c84     LIBCMTD:undname.obj
 0002:00015c88       ??_C@_05BFKKPKCG@short?$AA@ 200a7c88     LIBCMTD:undname.obj
 0002:00015c90       ??_C@_04ENMBGAPA@char?$AA@ 200a7c90     LIBCMTD:undname.obj
 0002:00015c98       ??_C@_05LJGMCFOG@enum?5?$AA@ 200a7c98     LIBCMTD:undname.obj
 0002:00015ca0       ??_C@_0N@DLIEFKNA@cointerface?5?$AA@ 200a7ca0     LIBCMTD:undname.obj
 0002:00015cb0       ??_C@_08KOFANOFK@coclass?5?$AA@ 200a7cb0     LIBCMTD:undname.obj
 0002:00015cbc       ??_C@_06LJBABKPM@class?5?$AA@ 200a7cbc     LIBCMTD:undname.obj
 0002:00015cc4       ??_C@_07DIBCDNGL@struct?5?$AA@ 200a7cc4     LIBCMTD:undname.obj
 0002:00015ccc       ??_C@_06MOJHIBMG@union?5?$AA@ 200a7ccc     LIBCMTD:undname.obj
 0002:00015cd4       ??_C@_0P@GCIFDJCJ@?$GAunknown?5ecsu?8?$AA@ 200a7cd4     LIBCMTD:undname.obj
 0002:00015ce4       ??_C@_04LAHKHJMA@int?5?$AA@ 200a7ce4     LIBCMTD:undname.obj
 0002:00015cec       ??_C@_06EHJMALKF@short?5?$AA@ 200a7cec     LIBCMTD:undname.obj
 0002:00015cf4       ??_C@_05CIHEBHNO@char?5?$AA@ 200a7cf4     LIBCMTD:undname.obj
 0002:00015cfc       ??_C@_06LIJLOJAG@const?5?$AA@ 200a7cfc     LIBCMTD:undname.obj
 0002:00015d04       ??_C@_09GAIEOBLP@volatile?5?$AA@ 200a7d04     LIBCMTD:undname.obj
 0002:00015d10       ??_C@_0O@GKABPPIF@cli?3?3pin_ptr?$DM?$AA@ 200a7d10     LIBCMTD:undname.obj
 0002:00015d20       ??_C@_0M@EALIELKG@cli?3?3array?$DM?$AA@ 200a7d20     LIBCMTD:undname.obj
 0002:00015d2c       ??_C@_02GOGNNPBN@?$CJ?$FL?$AA@ 200a7d2c     LIBCMTD:undname.obj
 0002:00015d30       ??_C@_06EEGAIFAK@?$HLflat?$HN?$AA@ 200a7d30     LIBCMTD:undname.obj
 0002:00015d38       ??_C@_02MDINNEEG@s?5?$AA@  200a7d38     LIBCMTD:undname.obj
 0002:00015d3c       ??_C@_05JIBOFOHK@?$HLfor?5?$AA@ 200a7d3c     LIBCMTD:undname.obj
 0002:00015d44       ??_7DNameNode@@6B@         200a7d44     LIBCMTD:undname.obj
 0002:00015d50       ??_7charNode@@6B@          200a7d50     LIBCMTD:undname.obj
 0002:00015d5c       ??_7pcharNode@@6B@         200a7d5c     LIBCMTD:undname.obj
 0002:00015d68       ??_7pDNameNode@@6B@        200a7d68     LIBCMTD:undname.obj
 0002:00015d74       ??_7DNameStatusNode@@6B@   200a7d74     LIBCMTD:undname.obj
 0002:00015d80       ??_C@_04OKOHEJBO@?5?$DP?$DP?5?$AA@ 200a7d80     LIBCMTD:undname.obj
 0002:00015d88       ??_7pairNode@@6B@          200a7d88     LIBCMTD:undname.obj
 0002:00015d94       ??_C@_1DO@MOGEFOMO@?$AAs?$AAt?$AAr?$AAc?$AAp?$AAy?$AA_?$AAs?$AA?$CI?$AAm?$AAe?$AAm?$AAo?$AAr?$AAy?$AA?0?$AA?5?$AAs?$AAi?$AAz?$AAe?$AA?0?$AA?5?$AAs?$AAt?$AAr?$AAi?$AAn?$AAg?$AA?$CJ?$AA?$AA@ 200a7d94     LIBCMTD:strdup.obj
 0002:00015dd4       ??_C@_1BI@CBNECNIC@?$AA_?$AAs?$AAt?$AAr?$AAd?$AAu?$AAp?$AA_?$AAd?$AAb?$AAg?$AA?$AA@ 200a7dd4     LIBCMTD:strdup.obj
 0002:00015df0       ??_C@_1GA@JIPKHGPB@?$AAf?$AA?3?$AA?2?$AAd?$AAd?$AA?2?$AAv?$AAc?$AAt?$AAo?$AAo?$AAl?$AAs?$AA?2?$AAc?$AAr?$AAt?$AA_?$AAb?$AAl?$AAd?$AA?2?$AAs?$AAe?$AAl?$AAf?$AA_?$AAx?$AA8?$AA6?$AA?2?$AAc@ 200a7df0     LIBCMTD:strdup.obj
 0002:00015e50       __load_config_used         200a7e50     LIBCMTD:loadcfg.obj
 0002:00015edc       ??_R4bad_exception@std@@6B@ 200a7edc     LIBCMTD:frame.obj
 0002:00015ef0       ??_R3bad_exception@std@@8  200a7ef0     LIBCMTD:frame.obj
 0002:00015f00       ??_R2bad_exception@std@@8  200a7f00     LIBCMTD:frame.obj
 0002:00015f0c       ??_R1A@?0A@EA@bad_exception@std@@8 200a7f0c     LIBCMTD:frame.obj
 0002:00015f28       ??_R1A@?0A@EA@exception@std@@8 200a7f28     LIBCMTD:frame.obj
 0002:00015f44       ??_R3exception@std@@8      200a7f44     LIBCMTD:frame.obj
 0002:00015f54       ??_R2exception@std@@8      200a7f54     LIBCMTD:frame.obj
 0002:00015f5c       ??_R4type_info@@6B@        200a7f5c     LIBCMTD:typinfo.obj
 0002:00015f70       ??_R3type_info@@8          200a7f70     LIBCMTD:typinfo.obj
 0002:00015f80       ??_R2type_info@@8          200a7f80     LIBCMTD:typinfo.obj
 0002:00015f88       ??_R1A@?0A@EA@type_info@@8 200a7f88     LIBCMTD:typinfo.obj
 0002:00015fa4       ??_R4exception@std@@6B@    200a7fa4     LIBCMTD:stdexcpt.obj
 0002:00015fb8       ??_R4bad_cast@std@@6B@     200a7fb8     LIBCMTD:stdexcpt.obj
 0002:00015fcc       ??_R3bad_cast@std@@8       200a7fcc     LIBCMTD:stdexcpt.obj
 0002:00015fdc       ??_R2bad_cast@std@@8       200a7fdc     LIBCMTD:stdexcpt.obj
 0002:00015fe8       ??_R1A@?0A@EA@bad_cast@std@@8 200a7fe8     LIBCMTD:stdexcpt.obj
 0002:00016004       ??_R4bad_typeid@std@@6B@   200a8004     LIBCMTD:stdexcpt.obj
 0002:00016018       ??_R3bad_typeid@std@@8     200a8018     LIBCMTD:stdexcpt.obj
 0002:00016028       ??_R2bad_typeid@std@@8     200a8028     LIBCMTD:stdexcpt.obj
 0002:00016034       ??_R1A@?0A@EA@bad_typeid@std@@8 200a8034     LIBCMTD:stdexcpt.obj
 0002:00016050       ??_R4__non_rtti_object@std@@6B@ 200a8050     LIBCMTD:stdexcpt.obj
 0002:00016064       ??_R3__non_rtti_object@std@@8 200a8064     LIBCMTD:stdexcpt.obj
 0002:00016074       ??_R2__non_rtti_object@std@@8 200a8074     LIBCMTD:stdexcpt.obj
 0002:00016084       ??_R1A@?0A@EA@__non_rtti_object@std@@8 200a8084     LIBCMTD:stdexcpt.obj
 0002:000160a0       ___safe_se_handler_table   200a80a0     <linker-defined>
 0002:000160cc       ___rtc_iaa                 200a80cc     LIBCMTD:_initsect_.obj
 0002:000160d0       ___rtc_izz                 200a80d0     LIBCMTD:_initsect_.obj
 0002:000160d4       ___rtc_taa                 200a80d4     LIBCMTD:_initsect_.obj
 0002:000160d8       ___rtc_tzz                 200a80d8     LIBCMTD:_initsect_.obj
 0002:00016a40       __TI2?AVbad_exception@std@@ 200a8a40     LIBCMTD:frame.obj
 0002:00016a50       __CTA2?AVbad_exception@std@@ 200a8a50     LIBCMTD:frame.obj
 0002:00016a5c       __CT??_R0?AVbad_exception@std@@@8??0bad_exception@std@@QAE@ABV01@@Z12 200a8a5c     LIBCMTD:frame.obj
 0002:00016a78       __CT??_R0?AVexception@std@@@8??0exception@std@@QAE@ABV01@@Z12 200a8a78     LIBCMTD:frame.obj
 0002:00016de8       __IMPORT_DESCRIPTOR_KERNEL32 200a8de8     kernel32:KERNEL32.dll
 0002:00016dfc       __NULL_IMPORT_DESCRIPTOR   200a8dfc     kernel32:KERNEL32.dll
 0003:00000000       _jacketarmor_info          200aa000     g_items.obj
 0003:00000014       _combatarmor_info          200aa014     g_items.obj
 0003:00000028       _bodyarmor_info            200aa028     g_items.obj
 0003:00000040       _itemlist                  200aa040     g_items.obj
 0003:00000d08       _fields                    200aad08     g_save.obj
 0003:00001218       _levelfields               200ab218     g_save.obj
 0003:00001278       _clientfields              200ab278     g_save.obj
 0003:000012b8       _spawns                    200ab2b8     g_spawn.obj
 0003:00001620       _single_statusbar          200ab620     g_spawn.obj
 0003:00001624       _dm_statusbar              200ab624     g_spawn.obj
 0003:00001628       _VEC_UP                    200ab628     g_utils.obj
 0003:00001634       _MOVEDIR_UP                200ab634     g_utils.obj
 0003:00001640       _VEC_DOWN                  200ab640     g_utils.obj
 0003:0000164c       _MOVEDIR_DOWN              200ab64c     g_utils.obj
 0003:00001658       _actor_names               200ab658     m_actor.obj
 0003:00001678       _actor_frames_stand        200ab678     m_actor.obj
 0003:00001858       _actor_move_stand          200ab858     m_actor.obj
 0003:00001868       _actor_frames_walk         200ab868     m_actor.obj
 0003:000018ec       _actor_move_walk           200ab8ec     m_actor.obj
 0003:000018fc       _actor_frames_pain1        200ab8fc     m_actor.obj
 0003:00001920       _actor_frames_run          200ab920     m_actor.obj
 0003:000019b0       _actor_move_run            200ab9b0     m_actor.obj
 0003:000019c0       _actor_move_pain1          200ab9c0     m_actor.obj
 0003:000019d0       _actor_frames_pain2        200ab9d0     m_actor.obj
 0003:000019f4       _actor_move_pain2          200ab9f4     m_actor.obj
 0003:00001a04       _actor_frames_pain3        200aba04     m_actor.obj
 0003:00001a28       _actor_move_pain3          200aba28     m_actor.obj
 0003:00001a38       _actor_frames_flipoff      200aba38     m_actor.obj
 0003:00001ae0       _actor_move_flipoff        200abae0     m_actor.obj
 0003:00001af0       _actor_frames_taunt        200abaf0     m_actor.obj
 0003:00001bbc       _actor_move_taunt          200abbbc     m_actor.obj
 0003:00001bcc       _messages                  200abbcc     m_actor.obj
 0003:00001be0       _actor_frames_death1       200abbe0     m_actor.obj
 0003:00001c34       _actor_move_death1         200abc34     m_actor.obj
 0003:00001c48       _actor_frames_death2       200abc48     m_actor.obj
 0003:00001ce4       _actor_move_death2         200abce4     m_actor.obj
 0003:00001cf4       _actor_frames_attack       200abcf4     m_actor.obj
 0003:00001d24       _actor_move_attack         200abd24     m_actor.obj
 0003:00001d38       _berserk_frames_stand      200abd38     m_berserk.obj
 0003:00001d74       _berserk_move_stand        200abd74     m_berserk.obj
 0003:00001d90       _berserk_frames_stand_fidget 200abd90     m_berserk.obj
 0003:00001e80       _berserk_move_stand_fidget 200abe80     m_berserk.obj
 0003:00001e90       _berserk_frames_walk       200abe90     m_berserk.obj
 0003:00001f20       _berserk_move_walk         200abf20     m_berserk.obj
 0003:00001f30       _berserk_frames_run1       200abf30     m_berserk.obj
 0003:00001f78       _berserk_move_run1         200abf78     m_berserk.obj
 0003:00001f88       _berserk_frames_attack_spike 200abf88     m_berserk.obj
 0003:00001fe8       _berserk_move_attack_spike 200abfe8     m_berserk.obj
 0003:00001ff8       _berserk_frames_attack_club 200abff8     m_berserk.obj
 0003:00002088       _berserk_move_attack_club  200ac088     m_berserk.obj
 0003:00002098       _berserk_frames_attack_strike 200ac098     m_berserk.obj
 0003:00002140       _berserk_move_attack_strike 200ac140     m_berserk.obj
 0003:00002150       _berserk_frames_pain1      200ac150     m_berserk.obj
 0003:00002180       _berserk_move_pain1        200ac180     m_berserk.obj
 0003:00002190       _berserk_frames_pain2      200ac190     m_berserk.obj
 0003:00002280       _berserk_move_pain2        200ac280     m_berserk.obj
 0003:00002290       _berserk_frames_death1     200ac290     m_berserk.obj
 0003:0000232c       _berserk_move_death1       200ac32c     m_berserk.obj
 0003:00002340       _berserk_frames_death2     200ac340     m_berserk.obj
 0003:000023a0       _berserk_move_death2       200ac3a0     m_berserk.obj
 0003:000023b0       _boss2_frames_stand        200ac3b0     m_boss2.obj
 0003:000024ac       _boss2_move_stand          200ac4ac     m_boss2.obj
 0003:000024c0       _boss2_frames_fidget       200ac4c0     m_boss2.obj
 0003:00002628       _boss2_move_fidget         200ac628     m_boss2.obj
 0003:00002638       _boss2_frames_walk         200ac638     m_boss2.obj
 0003:00002728       _boss2_move_walk           200ac728     m_boss2.obj
 0003:00002738       _boss2_frames_run          200ac738     m_boss2.obj
 0003:00002828       _boss2_move_run            200ac828     m_boss2.obj
 0003:00002838       _boss2_frames_attack_pre_mg 200ac838     m_boss2.obj
 0003:000028a4       _boss2_move_attack_pre_mg  200ac8a4     m_boss2.obj
 0003:000028b8       _boss2_frames_attack_mg    200ac8b8     m_boss2.obj
 0003:00002900       _boss2_move_attack_mg      200ac900     m_boss2.obj
 0003:00002910       _boss2_frames_attack_post_mg 200ac910     m_boss2.obj
 0003:00002940       _boss2_move_attack_post_mg 200ac940     m_boss2.obj
 0003:00002950       _boss2_frames_attack_rocket 200ac950     m_boss2.obj
 0003:00002a4c       _boss2_move_attack_rocket  200aca4c     m_boss2.obj
 0003:00002a60       _boss2_frames_pain_heavy   200aca60     m_boss2.obj
 0003:00002b38       _boss2_move_pain_heavy     200acb38     m_boss2.obj
 0003:00002b48       _boss2_frames_pain_light   200acb48     m_boss2.obj
 0003:00002b78       _boss2_move_pain_light     200acb78     m_boss2.obj
 0003:00002b88       _boss2_frames_death        200acb88     m_boss2.obj
 0003:00002dd4       _boss2_move_death          200acdd4     m_boss2.obj
 0003:00002de8       _jorg_frames_stand         200acde8     m_boss31.obj
 0003:0000304c       _jorg_move_stand           200ad04c     m_boss31.obj
 0003:0000305c       _jorg_frames_start_walk    200ad05c     m_boss31.obj
 0003:00003098       _jorg_frames_run           200ad098     m_boss31.obj
 0003:00003140       _jorg_move_run             200ad140     m_boss31.obj
 0003:00003150       _jorg_move_start_walk      200ad150     m_boss31.obj
 0003:00003160       _jorg_frames_walk          200ad160     m_boss31.obj
 0003:00003208       _jorg_move_walk            200ad208     m_boss31.obj
 0003:00003218       _jorg_frames_end_walk      200ad218     m_boss31.obj
 0003:00003260       _jorg_move_end_walk        200ad260     m_boss31.obj
 0003:00003270       _jorg_frames_pain3         200ad270     m_boss31.obj
 0003:0000339c       _jorg_move_pain3           200ad39c     m_boss31.obj
 0003:000033ac       _jorg_frames_pain2         200ad3ac     m_boss31.obj
 0003:000033d0       _jorg_move_pain2           200ad3d0     m_boss31.obj
 0003:000033e0       _jorg_frames_pain1         200ad3e0     m_boss31.obj
 0003:00003404       _jorg_move_pain1           200ad404     m_boss31.obj
 0003:00003418       _jorg_frames_death1        200ad418     m_boss31.obj
 0003:00003670       _jorg_move_death           200ad670     m_boss31.obj
 0003:00003680       _jorg_frames_attack2       200ad680     m_boss31.obj
 0003:0000371c       _jorg_move_attack2         200ad71c     m_boss31.obj
 0003:00003730       _jorg_frames_start_attack1 200ad730     m_boss31.obj
 0003:00003790       _jorg_move_start_attack1   200ad790     m_boss31.obj
 0003:000037a0       _jorg_frames_attack1       200ad7a0     m_boss31.obj
 0003:000037e8       _jorg_move_attack1         200ad7e8     m_boss31.obj
 0003:000037f8       _jorg_frames_end_attack1   200ad7f8     m_boss31.obj
 0003:00003828       _jorg_move_end_attack1     200ad828     m_boss31.obj
 0003:00003838       _makron_frames_stand       200ad838     m_boss32.obj
 0003:00003b08       _makron_move_stand         200adb08     m_boss32.obj
 0003:00003b18       _makron_frames_run         200adb18     m_boss32.obj
 0003:00003b90       _makron_move_run           200adb90     m_boss32.obj
 0003:00003ba0       _makron_frames_walk        200adba0     m_boss32.obj
 0003:00003c18       _makron_move_walk          200adc18     m_boss32.obj
 0003:00003c28       _makron_frames_pain6       200adc28     m_boss32.obj
 0003:00003d6c       _makron_move_pain6         200add6c     m_boss32.obj
 0003:00003d7c       _makron_frames_pain5       200add7c     m_boss32.obj
 0003:00003dac       _makron_move_pain5         200addac     m_boss32.obj
 0003:00003dbc       _makron_frames_pain4       200addbc     m_boss32.obj
 0003:00003dec       _makron_move_pain4         200addec     m_boss32.obj
 0003:00003e00       _makron_frames_death2      200ade00     m_boss32.obj
 0003:00004274       _makron_move_death2        200ae274     m_boss32.obj
 0003:00004288       _makron_frames_death3      200ae288     m_boss32.obj
 0003:00004378       _makron_move_death3        200ae378     m_boss32.obj
 0003:00004388       _makron_frames_sight       200ae388     m_boss32.obj
 0003:00004424       _makron_move_sight         200ae424     m_boss32.obj
 0003:00004438       _makron_frames_attack3     200ae438     m_boss32.obj
 0003:00004498       _makron_move_attack3       200ae498     m_boss32.obj
 0003:000044a8       _makron_frames_attack4     200ae4a8     m_boss32.obj
 0003:000045e0       _makron_move_attack4       200ae5e0     m_boss32.obj
 0003:000045f0       _makron_frames_attack5     200ae5f0     m_boss32.obj
 0003:000046b0       _makron_move_attack5       200ae6b0     m_boss32.obj
 0003:000046c0       _brain_frames_stand        200ae6c0     m_brain.obj
 0003:00004828       _brain_move_stand          200ae828     m_brain.obj
 0003:00004838       _brain_frames_idle         200ae838     m_brain.obj
 0003:000049a0       _brain_move_idle           200ae9a0     m_brain.obj
 0003:000049b0       _brain_frames_walk1        200ae9b0     m_brain.obj
 0003:00004a34       _brain_move_walk1          200aea34     m_brain.obj
 0003:00004a44       _brain_frames_death2       200aea44     m_brain.obj
 0003:00004a80       _brain_frames_defense      200aea80     m_brain.obj
 0003:00004aec       _brain_move_defense        200aeaec     m_brain.obj
 0003:00004b00       _brain_frames_pain3        200aeb00     m_brain.obj
 0003:00004b48       _brain_move_pain3          200aeb48     m_brain.obj
 0003:00004b58       _brain_frames_pain2        200aeb58     m_brain.obj
 0003:00004bb8       _brain_move_pain2          200aebb8     m_brain.obj
 0003:00004bc8       _brain_frames_pain1        200aebc8     m_brain.obj
 0003:00004cc4       _brain_move_pain1          200aecc4     m_brain.obj
 0003:00004cd8       _brain_frames_duck         200aecd8     m_brain.obj
 0003:00004d38       _brain_move_duck           200aed38     m_brain.obj
 0003:00004d48       _brain_move_death2         200aed48     m_brain.obj
 0003:00004d58       _brain_frames_death1       200aed58     m_brain.obj
 0003:00004e30       _brain_move_death1         200aee30     m_brain.obj
 0003:00004e40       _brain_frames_attack1      200aee40     m_brain.obj
 0003:00004f18       _brain_move_attack1        200aef18     m_brain.obj
 0003:00004f28       _brain_frames_attack2      200aef28     m_brain.obj
 0003:00004ff4       _brain_move_attack2        200aeff4     m_brain.obj
 0003:00005008       _brain_frames_run          200af008     m_brain.obj
 0003:0000508c       _brain_move_run            200af08c     m_brain.obj
 0003:000050a0       _chick_frames_fidget       200af0a0     m_chick.obj
 0003:00005208       _chick_move_fidget         200af208     m_chick.obj
 0003:00005218       _chick_frames_stand        200af218     m_chick.obj
 0003:00005380       _chick_move_stand          200af380     m_chick.obj
 0003:00005390       _chick_frames_start_run    200af390     m_chick.obj
 0003:00005408       _chick_move_start_run      200af408     m_chick.obj
 0003:00005418       _chick_frames_run          200af418     m_chick.obj
 0003:00005490       _chick_move_run            200af490     m_chick.obj
 0003:000054a0       _chick_frames_walk         200af4a0     m_chick.obj
 0003:00005518       _chick_move_walk           200af518     m_chick.obj
 0003:00005528       _chick_frames_pain1        200af528     m_chick.obj
 0003:00005564       _chick_move_pain1          200af564     m_chick.obj
 0003:00005574       _chick_frames_pain2        200af574     m_chick.obj
 0003:000055b0       _chick_move_pain2          200af5b0     m_chick.obj
 0003:000055c0       _chick_frames_pain3        200af5c0     m_chick.obj
 0003:000056bc       _chick_move_pain3          200af6bc     m_chick.obj
 0003:000056cc       _chick_frames_end_attack1  200af6cc     m_chick.obj
 0003:00005708       _chick_frames_death2       200af708     m_chick.obj
 0003:0000581c       _chick_move_death2         200af81c     m_chick.obj
 0003:0000582c       _chick_frames_start_slash  200af82c     m_chick.obj
 0003:00005850       _chick_frames_death1       200af850     m_chick.obj
 0003:000058e0       _chick_move_death1         200af8e0     m_chick.obj
 0003:000058f0       _chick_frames_duck         200af8f0     m_chick.obj
 0003:00005944       _chick_move_duck           200af944     m_chick.obj
 0003:00005958       _chick_frames_start_attack1 200af958     m_chick.obj
 0003:000059f4       _chick_move_start_attack1  200af9f4     m_chick.obj
 0003:00005a08       _chick_frames_attack1      200afa08     m_chick.obj
 0003:00005ab0       _chick_move_attack1        200afab0     m_chick.obj
 0003:00005ac0       _chick_move_end_attack1    200afac0     m_chick.obj
 0003:00005ad0       _chick_frames_slash        200afad0     m_chick.obj
 0003:00005b3c       _chick_move_slash          200afb3c     m_chick.obj
 0003:00005b4c       _chick_frames_end_slash    200afb4c     m_chick.obj
 0003:00005b7c       _chick_move_end_slash      200afb7c     m_chick.obj
 0003:00005b8c       _chick_move_start_slash    200afb8c     m_chick.obj
 0003:00005ba0       _monster_flash_offset      200afba0     m_flash.obj
 0003:00006590       _flipper_frames_stand      200b0590     m_flipper.obj
 0003:0000659c       _flipper_move_stand        200b059c     m_flipper.obj
 0003:000065ac       _flipper_frames_start_run  200b05ac     m_flipper.obj
 0003:000065e8       _flipper_frames_run        200b05e8     m_flipper.obj
 0003:00006708       _flipper_move_run_loop     200b0708     m_flipper.obj
 0003:00006718       _flipper_frames_run_start  200b0718     m_flipper.obj
 0003:00006760       _flipper_move_run_start    200b0760     m_flipper.obj
 0003:00006770       _flipper_frames_walk       200b0770     m_flipper.obj
 0003:00006890       _flipper_move_walk         200b0890     m_flipper.obj
 0003:000068a0       _flipper_move_start_run    200b08a0     m_flipper.obj
 0003:000068b0       _flipper_frames_pain2      200b08b0     m_flipper.obj
 0003:000068ec       _flipper_move_pain2        200b08ec     m_flipper.obj
 0003:000068fc       _flipper_frames_pain1      200b08fc     m_flipper.obj
 0003:00006938       _flipper_move_pain1        200b0938     m_flipper.obj
 0003:00006948       _flipper_frames_attack     200b0948     m_flipper.obj
 0003:00006a38       _flipper_move_attack       200b0a38     m_flipper.obj
 0003:00006a48       _flipper_frames_death      200b0a48     m_flipper.obj
 0003:00006ce8       _flipper_move_death        200b0ce8     m_flipper.obj
 0003:00006cf8       _floater_frames_stand1     200b0cf8     m_float.obj
 0003:00006f68       _floater_move_stand1       200b0f68     m_float.obj
 0003:00006f78       _floater_frames_stand2     200b0f78     m_float.obj
 0003:000071e8       _floater_move_stand2       200b11e8     m_float.obj
 0003:000071f8       _floater_frames_activate   200b11f8     m_float.obj
 0003:00007360       _floater_move_activate     200b1360     m_float.obj
 0003:00007370       _floater_frames_attack1    200b1370     m_float.obj
 0003:00007418       _floater_move_attack1      200b1418     m_float.obj
 0003:00007428       _floater_frames_attack2    200b1428     m_float.obj
 0003:00007554       _floater_move_attack2      200b1554     m_float.obj
 0003:00007570       _floater_frames_attack3    200b1570     m_float.obj
 0003:00007708       _floater_move_attack3      200b1708     m_float.obj
 0003:00007718       _floater_frames_death      200b1718     m_float.obj
 0003:000077b4       _floater_move_death        200b17b4     m_float.obj
 0003:000077c8       _floater_frames_pain1      200b17c8     m_float.obj
 0003:0000781c       _floater_move_pain1        200b181c     m_float.obj
 0003:00007830       _floater_frames_pain2      200b1830     m_float.obj
 0003:00007890       _floater_move_pain2        200b1890     m_float.obj
 0003:000078a0       _floater_frames_pain3      200b18a0     m_float.obj
 0003:00007930       _floater_move_pain3        200b1930     m_float.obj
 0003:00007940       _floater_frames_walk       200b1940     m_float.obj
 0003:00007bb0       _floater_move_walk         200b1bb0     m_float.obj
 0003:00007bc0       _floater_frames_run        200b1bc0     m_float.obj
 0003:00007e30       _floater_move_run          200b1e30     m_float.obj
 0003:00007e40       _flyer_frames_stand        200b1e40     m_flyer.obj
 0003:0000805c       _flyer_move_stand          200b205c     m_flyer.obj
 0003:0000806c       _flyer_frames_end_melee    200b206c     m_flyer.obj
 0003:00008090       _flyer_frames_walk         200b2090     m_flyer.obj
 0003:000082ac       _flyer_move_walk           200b22ac     m_flyer.obj
 0003:000082c0       _flyer_frames_run          200b22c0     m_flyer.obj
 0003:000084dc       _flyer_move_run            200b24dc     m_flyer.obj
 0003:000084f0       _flyer_frames_start        200b24f0     m_flyer.obj
 0003:00008538       _flyer_move_start          200b2538     m_flyer.obj
 0003:00008548       _flyer_frames_stop         200b2548     m_flyer.obj
 0003:0000859c       _flyer_move_stop           200b259c     m_flyer.obj
 0003:000085b0       _flyer_frames_rollright    200b25b0     m_flyer.obj
 0003:0000861c       _flyer_move_rollright      200b261c     m_flyer.obj
 0003:00008630       _flyer_frames_rollleft     200b2630     m_flyer.obj
 0003:0000869c       _flyer_move_rollleft       200b269c     m_flyer.obj
 0003:000086ac       _flyer_frames_pain3        200b26ac     m_flyer.obj
 0003:000086dc       _flyer_move_pain3          200b26dc     m_flyer.obj
 0003:000086ec       _flyer_frames_pain2        200b26ec     m_flyer.obj
 0003:0000871c       _flyer_move_pain2          200b271c     m_flyer.obj
 0003:00008730       _flyer_frames_pain1        200b2730     m_flyer.obj
 0003:0000879c       _flyer_move_pain1          200b279c     m_flyer.obj
 0003:000087b0       _flyer_frames_defense      200b27b0     m_flyer.obj
 0003:000087f8       _flyer_move_defense        200b27f8     m_flyer.obj
 0003:00008808       _flyer_frames_bankright    200b2808     m_flyer.obj
 0003:0000885c       _flyer_move_bankright      200b285c     m_flyer.obj
 0003:00008870       _flyer_frames_bankleft     200b2870     m_flyer.obj
 0003:000088c4       _flyer_move_bankleft       200b28c4     m_flyer.obj
 0003:000088d8       _flyer_frames_attack2      200b28d8     m_flyer.obj
 0003:000089a4       _flyer_move_attack2        200b29a4     m_flyer.obj
 0003:000089b8       _flyer_frames_start_melee  200b29b8     m_flyer.obj
 0003:00008a00       _flyer_move_start_melee    200b2a00     m_flyer.obj
 0003:00008a10       _flyer_move_end_melee      200b2a10     m_flyer.obj
 0003:00008a20       _flyer_frames_loop_melee   200b2a20     m_flyer.obj
 0003:00008ab0       _flyer_move_loop_melee     200b2ab0     m_flyer.obj
 0003:00008ac0       _gladiator_frames_stand    200b2ac0     m_gladiator.obj
 0003:00008b14       _gladiator_move_stand      200b2b14     m_gladiator.obj
 0003:00008b28       _gladiator_frames_walk     200b2b28     m_gladiator.obj
 0003:00008be8       _gladiator_move_walk       200b2be8     m_gladiator.obj
 0003:00008bf8       _gladiator_frames_run      200b2bf8     m_gladiator.obj
 0003:00008c40       _gladiator_move_run        200b2c40     m_gladiator.obj
 0003:00008c50       _gladiator_frames_attack_melee 200b2c50     m_gladiator.obj
 0003:00008d1c       _gladiator_move_attack_melee 200b2d1c     m_gladiator.obj
 0003:00008d30       _gladiator_frames_attack_gun 200b2d30     m_gladiator.obj
 0003:00008d9c       _gladiator_move_attack_gun 200b2d9c     m_gladiator.obj
 0003:00008db0       _gladiator_frames_pain     200b2db0     m_gladiator.obj
 0003:00008df8       _gladiator_move_pain       200b2df8     m_gladiator.obj
 0003:00008e08       _gladiator_frames_pain_air 200b2e08     m_gladiator.obj
 0003:00008e5c       _gladiator_move_pain_air   200b2e5c     m_gladiator.obj
 0003:00008e70       _gladiator_frames_death    200b2e70     m_gladiator.obj
 0003:00008f78       _gladiator_move_death      200b2f78     m_gladiator.obj
 0003:00008f88       _gunner_frames_fidget      200b2f88     m_gunner.obj
 0003:000091d4       _gunner_move_fidget        200b31d4     m_gunner.obj
 0003:000091e4       _gunner_frames_pain3       200b31e4     m_gunner.obj
 0003:00009220       _gunner_frames_stand       200b3220     m_gunner.obj
 0003:00009388       _gunner_move_stand         200b3388     m_gunner.obj
 0003:00009398       _gunner_frames_walk        200b3398     m_gunner.obj
 0003:00009434       _gunner_move_walk          200b3434     m_gunner.obj
 0003:00009448       _gunner_frames_run         200b3448     m_gunner.obj
 0003:000094a8       _gunner_move_run           200b34a8     m_gunner.obj
 0003:000094b8       _gunner_frames_runandshoot 200b34b8     m_gunner.obj
 0003:00009500       _gunner_move_runandshoot   200b3500     m_gunner.obj
 0003:00009510       _gunner_move_pain3         200b3510     m_gunner.obj
 0003:00009520       _gunner_frames_pain2       200b3520     m_gunner.obj
 0003:00009580       _gunner_move_pain2         200b3580     m_gunner.obj
 0003:00009590       _gunner_frames_pain1       200b3590     m_gunner.obj
 0003:00009668       _gunner_move_pain1         200b3668     m_gunner.obj
 0003:00009678       _gunner_frames_death       200b3678     m_gunner.obj
 0003:000096fc       _gunner_move_death         200b36fc     m_gunner.obj
 0003:00009710       _gunner_frames_duck        200b3710     m_gunner.obj
 0003:00009770       _gunner_move_duck          200b3770     m_gunner.obj
 0003:00009780       _gunner_frames_attack_chain 200b3780     m_gunner.obj
 0003:000097d4       _gunner_move_attack_chain  200b37d4     m_gunner.obj
 0003:000097e8       _gunner_frames_fire_chain  200b37e8     m_gunner.obj
 0003:00009848       _gunner_move_fire_chain    200b3848     m_gunner.obj
 0003:00009858       _gunner_frames_endfire_chain 200b3858     m_gunner.obj
 0003:000098ac       _gunner_move_endfire_chain 200b38ac     m_gunner.obj
 0003:000098c0       _gunner_frames_attack_grenade 200b38c0     m_gunner.obj
 0003:000099bc       _gunner_move_attack_grenade 200b39bc     m_gunner.obj
 0003:000099d0       _hover_frames_stand        200b39d0     m_hover.obj
 0003:00009b38       _hover_move_stand          200b3b38     m_hover.obj
 0003:00009b48       _hover_frames_stop1        200b3b48     m_hover.obj
 0003:00009bb4       _hover_move_stop1          200b3bb4     m_hover.obj
 0003:00009bc4       _hover_frames_land         200b3bc4     m_hover.obj
 0003:00009bd0       _hover_frames_stop2        200b3bd0     m_hover.obj
 0003:00009c30       _hover_move_stop2          200b3c30     m_hover.obj
 0003:00009c40       _hover_frames_takeoff      200b3c40     m_hover.obj
 0003:00009da8       _hover_move_takeoff        200b3da8     m_hover.obj
 0003:00009db8       _hover_frames_pain3        200b3db8     m_hover.obj
 0003:00009e24       _hover_move_pain3          200b3e24     m_hover.obj
 0003:00009e34       _hover_frames_start_attack 200b3e34     m_hover.obj
 0003:00009e58       _hover_frames_pain2        200b3e58     m_hover.obj
 0003:00009ee8       _hover_move_pain2          200b3ee8     m_hover.obj
 0003:00009ef8       _hover_frames_pain1        200b3ef8     m_hover.obj
 0003:0000a048       _hover_move_pain1          200b4048     m_hover.obj
 0003:0000a058       _hover_move_land           200b4058     m_hover.obj
 0003:0000a068       _hover_frames_forward      200b4068     m_hover.obj
 0003:0000a20c       _hover_move_forward        200b420c     m_hover.obj
 0003:0000a21c       _hover_frames_attack1      200b421c     m_hover.obj
 0003:0000a240       _hover_frames_walk         200b4240     m_hover.obj
 0003:0000a3e4       _hover_move_walk           200b43e4     m_hover.obj
 0003:0000a3f8       _hover_frames_run          200b43f8     m_hover.obj
 0003:0000a59c       _hover_move_run            200b459c     m_hover.obj
 0003:0000a5b0       _hover_frames_death1       200b45b0     m_hover.obj
 0003:0000a634       _hover_move_death1         200b4634     m_hover.obj
 0003:0000a648       _hover_frames_backward     200b4648     m_hover.obj
 0003:0000a768       _hover_move_backward       200b4768     m_hover.obj
 0003:0000a778       _hover_move_start_attack   200b4778     m_hover.obj
 0003:0000a788       _hover_move_attack1        200b4788     m_hover.obj
 0003:0000a798       _hover_frames_end_attack   200b4798     m_hover.obj
 0003:0000a7b0       _hover_move_end_attack     200b47b0     m_hover.obj
 0003:0000a7c0       _infantry_frames_stand     200b47c0     m_infantry.obj
 0003:0000a8c8       _infantry_move_stand       200b48c8     m_infantry.obj
 0003:0000a8d8       _infantry_frames_fidget    200b48d8     m_infantry.obj
 0003:0000ab24       _infantry_move_fidget      200b4b24     m_infantry.obj
 0003:0000ab34       _infantry_frames_duck      200b4b34     m_infantry.obj
 0003:0000ab70       _infantry_frames_walk      200b4b70     m_infantry.obj
 0003:0000ac00       _infantry_move_walk        200b4c00     m_infantry.obj
 0003:0000ac10       _infantry_frames_run       200b4c10     m_infantry.obj
 0003:0000ac70       _infantry_move_run         200b4c70     m_infantry.obj
 0003:0000ac80       _infantry_frames_pain1     200b4c80     m_infantry.obj
 0003:0000acf8       _infantry_move_pain1       200b4cf8     m_infantry.obj
 0003:0000ad08       _infantry_frames_pain2     200b4d08     m_infantry.obj
 0003:0000ad80       _infantry_move_pain2       200b4d80     m_infantry.obj
 0003:0000ad90       _aimangles                 200b4d90     m_infantry.obj
 0003:0000ae20       _infantry_frames_death1    200b4e20     m_infantry.obj
 0003:0000af10       _infantry_move_death1      200b4f10     m_infantry.obj
 0003:0000af20       _infantry_frames_death2    200b4f20     m_infantry.obj
 0003:0000b04c       _infantry_move_death2      200b504c     m_infantry.obj
 0003:0000b060       _infantry_frames_death3    200b5060     m_infantry.obj
 0003:0000b0cc       _infantry_move_death3      200b50cc     m_infantry.obj
 0003:0000b0dc       _infantry_move_duck        200b50dc     m_infantry.obj
 0003:0000b0f0       _infantry_frames_attack1   200b50f0     m_infantry.obj
 0003:0000b1a4       _infantry_move_attack1     200b51a4     m_infantry.obj
 0003:0000b1b8       _infantry_frames_attack2   200b51b8     m_infantry.obj
 0003:0000b218       _infantry_move_attack2     200b5218     m_infantry.obj
 0003:0000b228       _insane_frames_stand_normal 200b5228     m_insane.obj
 0003:0000b270       _insane_move_stand_normal  200b5270     m_insane.obj
 0003:0000b280       _insane_frames_stand_insane 200b5280     m_insane.obj
 0003:0000b3e8       _insane_move_stand_insane  200b53e8     m_insane.obj
 0003:0000b3f8       _insane_frames_uptodown    200b53f8     m_insane.obj
 0003:0000b5d8       _insane_move_uptodown      200b55d8     m_insane.obj
 0003:0000b5e8       _insane_frames_downtoup    200b55e8     m_insane.obj
 0003:0000b6cc       _insane_move_downtoup      200b56cc     m_insane.obj
 0003:0000b6dc       _insane_frames_jumpdown    200b56dc     m_insane.obj
 0003:0000b718       _insane_move_jumpdown      200b5718     m_insane.obj
 0003:0000b728       _insane_frames_down        200b5728     m_insane.obj
 0003:0000ba04       _insane_move_down          200b5a04     m_insane.obj
 0003:0000ba18       _insane_frames_walk_normal 200b5a18     m_insane.obj
 0003:0000bab4       _insane_move_walk_normal   200b5ab4     m_insane.obj
 0003:0000bac4       _insane_move_run_normal    200b5ac4     m_insane.obj
 0003:0000bad8       _insane_frames_walk_insane 200b5ad8     m_insane.obj
 0003:0000bc10       _insane_move_walk_insane   200b5c10     m_insane.obj
 0003:0000bc20       _insane_move_run_insane    200b5c20     m_insane.obj
 0003:0000bc30       _insane_frames_stand_pain  200b5c30     m_insane.obj
 0003:0000bcb4       _insane_move_stand_pain    200b5cb4     m_insane.obj
 0003:0000bcc8       _insane_frames_stand_death 200b5cc8     m_insane.obj
 0003:0000bd94       _insane_move_stand_death   200b5d94     m_insane.obj
 0003:0000bda8       _insane_frames_crawl       200b5da8     m_insane.obj
 0003:0000be14       _insane_move_crawl         200b5e14     m_insane.obj
 0003:0000be24       _insane_move_runcrawl      200b5e24     m_insane.obj
 0003:0000be38       _insane_frames_crawl_pain  200b5e38     m_insane.obj
 0003:0000bea4       _insane_move_crawl_pain    200b5ea4     m_insane.obj
 0003:0000beb8       _insane_frames_crawl_death 200b5eb8     m_insane.obj
 0003:0000bf0c       _insane_move_crawl_death   200b5f0c     m_insane.obj
 0003:0000bf20       _insane_frames_cross       200b5f20     m_insane.obj
 0003:0000bfd4       _insane_move_cross         200b5fd4     m_insane.obj
 0003:0000bfe8       _insane_frames_struggle_cross 200b5fe8     m_insane.obj
 0003:0000c09c       _insane_move_struggle_cross 200b609c     m_insane.obj
 0003:0000c0b0       _medic_frames_stand        200b60b0     m_medic.obj
 0003:0000c4e8       _medic_move_stand          200b64e8     m_medic.obj
 0003:0000c4f8       _medic_frames_walk         200b64f8     m_medic.obj
 0003:0000c588       _medic_move_walk           200b6588     m_medic.obj
 0003:0000c598       _medic_frames_run          200b6598     m_medic.obj
 0003:0000c5e0       _medic_move_run            200b65e0     m_medic.obj
 0003:0000c5f0       _medic_frames_pain1        200b65f0     m_medic.obj
 0003:0000c650       _medic_move_pain1          200b6650     m_medic.obj
 0003:0000c660       _medic_frames_pain2        200b6660     m_medic.obj
 0003:0000c714       _medic_move_pain2          200b6714     m_medic.obj
 0003:0000c728       _medic_frames_death        200b6728     m_medic.obj
 0003:0000c890       _medic_move_death          200b6890     m_medic.obj
 0003:0000c8a0       _medic_frames_duck         200b68a0     m_medic.obj
 0003:0000c960       _medic_move_duck           200b6960     m_medic.obj
 0003:0000c970       _medic_frames_attackHyperBlaster 200b6970     m_medic.obj
 0003:0000ca30       _medic_move_attackHyperBlaster 200b6a30     m_medic.obj
 0003:0000ca40       _medic_frames_attackBlaster 200b6a40     m_medic.obj
 0003:0000cae8       _medic_move_attackBlaster  200b6ae8     m_medic.obj
 0003:0000cb70       _medic_frames_attackCable  200b6b70     m_medic.obj
 0003:0000ccc0       _medic_move_attackCable    200b6cc0     m_medic.obj
 0003:0000ccd0       _mutant_frames_stand       200b6cd0     m_mutant.obj
 0003:0000cf34       _mutant_move_stand         200b6f34     m_mutant.obj
 0003:0000cf44       _mutant_frames_pain1       200b6f44     m_mutant.obj
 0003:0000cf80       _mutant_frames_idle        200b6f80     m_mutant.obj
 0003:0000d01c       _mutant_move_idle          200b701c     m_mutant.obj
 0003:0000d030       _mutant_frames_walk        200b7030     m_mutant.obj
 0003:0000d0c0       _mutant_move_walk          200b70c0     m_mutant.obj
 0003:0000d0d0       _mutant_frames_start_walk  200b70d0     m_mutant.obj
 0003:0000d100       _mutant_move_start_walk    200b7100     m_mutant.obj
 0003:0000d110       _mutant_frames_run         200b7110     m_mutant.obj
 0003:0000d158       _mutant_move_run           200b7158     m_mutant.obj
 0003:0000d168       _mutant_frames_attack      200b7168     m_mutant.obj
 0003:0000d1bc       _mutant_move_attack        200b71bc     m_mutant.obj
 0003:0000d1d0       _mutant_frames_jump        200b71d0     m_mutant.obj
 0003:0000d230       _mutant_move_jump          200b7230     m_mutant.obj
 0003:0000d240       _mutant_move_pain1         200b7240     m_mutant.obj
 0003:0000d250       _mutant_frames_pain2       200b7250     m_mutant.obj
 0003:0000d298       _mutant_move_pain2         200b7298     m_mutant.obj
 0003:0000d2a8       _mutant_frames_pain3       200b72a8     m_mutant.obj
 0003:0000d32c       _mutant_move_pain3         200b732c     m_mutant.obj
 0003:0000d340       _mutant_frames_death1      200b7340     m_mutant.obj
 0003:0000d3ac       _mutant_move_death1        200b73ac     m_mutant.obj
 0003:0000d3c0       _mutant_frames_death2      200b73c0     m_mutant.obj
 0003:0000d438       _mutant_move_death2        200b7438     m_mutant.obj
 0003:0000d448       _parasite_frames_start_fidget 200b7448     m_parasite.obj
 0003:0000d478       _parasite_move_start_fidget 200b7478     m_parasite.obj
 0003:0000d488       _parasite_frames_fidget    200b7488     m_parasite.obj
 0003:0000d4d0       _parasite_move_fidget      200b74d0     m_parasite.obj
 0003:0000d4e0       _parasite_frames_end_fidget 200b74e0     m_parasite.obj
 0003:0000d540       _parasite_move_end_fidget  200b7540     m_parasite.obj
 0003:0000d550       _parasite_frames_stand     200b7550     m_parasite.obj
 0003:0000d61c       _parasite_move_stand       200b761c     m_parasite.obj
 0003:0000d630       _parasite_frames_run       200b7630     m_parasite.obj
 0003:0000d684       _parasite_move_run         200b7684     m_parasite.obj
 0003:0000d694       _parasite_frames_start_run 200b7694     m_parasite.obj
 0003:0000d6ac       _parasite_move_start_run   200b76ac     m_parasite.obj
 0003:0000d6c0       _parasite_frames_stop_run  200b76c0     m_parasite.obj
 0003:0000d708       _parasite_move_stop_run    200b7708     m_parasite.obj
 0003:0000d718       _parasite_frames_walk      200b7718     m_parasite.obj
 0003:0000d76c       _parasite_move_walk        200b776c     m_parasite.obj
 0003:0000d77c       _parasite_frames_start_walk 200b777c     m_parasite.obj
 0003:0000d794       _parasite_move_start_walk  200b7794     m_parasite.obj
 0003:0000d7a8       _parasite_frames_stop_walk 200b77a8     m_parasite.obj
 0003:0000d7f0       _parasite_move_stop_walk   200b77f0     m_parasite.obj
 0003:0000d800       _parasite_frames_pain1     200b7800     m_parasite.obj
 0003:0000d884       _parasite_move_pain1       200b7884     m_parasite.obj
 0003:0000d898       _parasite_frames_drain     200b7898     m_parasite.obj
 0003:0000d970       _parasite_move_drain       200b7970     m_parasite.obj
 0003:0000d980       _parasite_frames_break     200b7980     m_parasite.obj
 0003:0000db00       _parasite_move_break       200b7b00     m_parasite.obj
 0003:0000db10       _parasite_frames_death     200b7b10     m_parasite.obj
 0003:0000db64       _parasite_move_death       200b7b64     m_parasite.obj
 0003:0000db78       _soldier_frames_stand1     200b7b78     m_soldier.obj
 0003:0000dce0       _soldier_move_stand1       200b7ce0     m_soldier.obj
 0003:0000dcf0       _soldier_frames_stand3     200b7cf0     m_soldier.obj
 0003:0000dec4       _soldier_move_stand3       200b7ec4     m_soldier.obj
 0003:0000ded4       _soldier_frames_pain1      200b7ed4     m_soldier.obj
 0003:0000df10       _soldier_frames_walk1      200b7f10     m_soldier.obj
 0003:0000e09c       _soldier_move_walk1        200b809c     m_soldier.obj
 0003:0000e0ac       _soldier_frames_duck       200b80ac     m_soldier.obj
 0003:0000e0e8       _soldier_frames_walk2      200b80e8     m_soldier.obj
 0003:0000e160       _soldier_move_walk2        200b8160     m_soldier.obj
 0003:0000e170       _soldier_frames_start_run  200b8170     m_soldier.obj
 0003:0000e188       _soldier_move_start_run    200b8188     m_soldier.obj
 0003:0000e198       _soldier_frames_run        200b8198     m_soldier.obj
 0003:0000e1e0       _soldier_move_run          200b81e0     m_soldier.obj
 0003:0000e1f0       _soldier_move_pain1        200b81f0     m_soldier.obj
 0003:0000e200       _soldier_frames_pain2      200b8200     m_soldier.obj
 0003:0000e254       _soldier_move_pain2        200b8254     m_soldier.obj
 0003:0000e268       _soldier_frames_pain3      200b8268     m_soldier.obj
 0003:0000e340       _soldier_move_pain3        200b8340     m_soldier.obj
 0003:0000e350       _soldier_frames_pain4      200b8350     m_soldier.obj
 0003:0000e41c       _soldier_move_pain4        200b841c     m_soldier.obj
 0003:0000e490       _soldier_frames_attack1    200b8490     m_soldier.obj
 0003:0000e520       _soldier_move_attack1      200b8520     m_soldier.obj
 0003:0000e530       _soldier_frames_attack2    200b8530     m_soldier.obj
 0003:0000e608       _soldier_move_attack2      200b8608     m_soldier.obj
 0003:0000e618       _soldier_frames_attack3    200b8618     m_soldier.obj
 0003:0000e684       _soldier_move_attack3      200b8684     m_soldier.obj
 0003:0000e698       _soldier_frames_attack4    200b8698     m_soldier.obj
 0003:0000e6e0       _soldier_move_attack4      200b86e0     m_soldier.obj
 0003:0000e6f0       _soldier_frames_attack6    200b86f0     m_soldier.obj
 0003:0000e798       _soldier_move_attack6      200b8798     m_soldier.obj
 0003:0000e7a8       _soldier_move_duck         200b87a8     m_soldier.obj
 0003:0000e7b8       _soldier_frames_death1     200b87b8     m_soldier.obj
 0003:0000e968       _soldier_move_death1       200b8968     m_soldier.obj
 0003:0000e978       _soldier_frames_death2     200b8978     m_soldier.obj
 0003:0000eb1c       _soldier_move_death2       200b8b1c     m_soldier.obj
 0003:0000eb30       _soldier_frames_death3     200b8b30     m_soldier.obj
 0003:0000ed4c       _soldier_move_death3       200b8d4c     m_soldier.obj
 0003:0000ed60       _soldier_frames_death4     200b8d60     m_soldier.obj
 0003:0000efdc       _soldier_move_death4       200b8fdc     m_soldier.obj
 0003:0000eff0       _soldier_frames_death5     200b8ff0     m_soldier.obj
 0003:0000f110       _soldier_move_death5       200b9110     m_soldier.obj
 0003:0000f120       _soldier_frames_death6     200b9120     m_soldier.obj
 0003:0000f198       _soldier_move_death6       200b9198     m_soldier.obj
 0003:0000f1a8       _supertank_frames_stand    200b91a8     m_supertank.obj
 0003:0000f478       _supertank_move_stand      200b9478     m_supertank.obj
 0003:0000f488       _supertank_frames_run      200b9488     m_supertank.obj
 0003:0000f560       _supertank_move_run        200b9560     m_supertank.obj
 0003:0000f570       _supertank_frames_forward  200b9570     m_supertank.obj
 0003:0000f648       _supertank_move_forward    200b9648     m_supertank.obj
 0003:0000f658       _supertank_frames_turn_right 200b9658     m_supertank.obj
 0003:0000f730       _supertank_move_turn_right 200b9730     m_supertank.obj
 0003:0000f740       _supertank_frames_turn_left 200b9740     m_supertank.obj
 0003:0000f818       _supertank_move_turn_left  200b9818     m_supertank.obj
 0003:0000f828       _supertank_frames_pain3    200b9828     m_supertank.obj
 0003:0000f858       _supertank_move_pain3      200b9858     m_supertank.obj
 0003:0000f868       _supertank_frames_pain2    200b9868     m_supertank.obj
 0003:0000f898       _supertank_move_pain2      200b9898     m_supertank.obj
 0003:0000f8a8       _supertank_frames_pain1    200b98a8     m_supertank.obj
 0003:0000f8d8       _supertank_move_pain1      200b98d8     m_supertank.obj
 0003:0000f8e8       _supertank_frames_death1   200b98e8     m_supertank.obj
 0003:0000fa08       _supertank_move_death      200b9a08     m_supertank.obj
 0003:0000fa18       _supertank_frames_backward 200b9a18     m_supertank.obj
 0003:0000faf0       _supertank_move_backward   200b9af0     m_supertank.obj
 0003:0000fb00       _supertank_frames_attack4  200b9b00     m_supertank.obj
 0003:0000fb48       _supertank_move_attack4    200b9b48     m_supertank.obj
 0003:0000fb58       _supertank_frames_attack3  200b9b58     m_supertank.obj
 0003:0000fc9c       _supertank_move_attack3    200b9c9c     m_supertank.obj
 0003:0000fcb0       _supertank_frames_attack2  200b9cb0     m_supertank.obj
 0003:0000fdf4       _supertank_move_attack2    200b9df4     m_supertank.obj
 0003:0000fe08       _supertank_frames_attack1  200b9e08     m_supertank.obj
 0003:0000fe50       _supertank_move_attack1    200b9e50     m_supertank.obj
 0003:0000fe60       _supertank_frames_end_attack1 200b9e60     m_supertank.obj
 0003:0000ff08       _supertank_move_end_attack1 200b9f08     m_supertank.obj
 0003:0000ff18       _tank_frames_stand         200b9f18     m_tank.obj
 0003:00010080       _tank_move_stand           200ba080     m_tank.obj
 0003:00010090       _tank_frames_start_walk    200ba090     m_tank.obj
 0003:000100c0       _tank_move_start_walk      200ba0c0     m_tank.obj
 0003:000100d0       _tank_frames_walk          200ba0d0     m_tank.obj
 0003:00010190       _tank_move_walk            200ba190     m_tank.obj
 0003:000101a0       _tank_frames_stop_walk     200ba1a0     m_tank.obj
 0003:000101dc       _tank_move_stop_walk       200ba1dc     m_tank.obj
 0003:000101ec       _tank_frames_start_run     200ba1ec     m_tank.obj
 0003:0001021c       _tank_move_start_run       200ba21c     m_tank.obj
 0003:0001022c       _tank_frames_stop_run      200ba22c     m_tank.obj
 0003:00010268       _tank_frames_run           200ba268     m_tank.obj
 0003:00010328       _tank_move_run             200ba328     m_tank.obj
 0003:00010338       _tank_move_stop_run        200ba338     m_tank.obj
 0003:00010348       _tank_frames_pain1         200ba348     m_tank.obj
 0003:00010378       _tank_move_pain1           200ba378     m_tank.obj
 0003:00010388       _tank_frames_pain2         200ba388     m_tank.obj
 0003:000103c4       _tank_move_pain2           200ba3c4     m_tank.obj
 0003:000103d8       _tank_frames_pain3         200ba3d8     m_tank.obj
 0003:00010498       _tank_move_pain3           200ba498     m_tank.obj
 0003:000104a8       _tank_frames_attack_blast  200ba4a8     m_tank.obj
 0003:00010568       _tank_move_attack_blast    200ba568     m_tank.obj
 0003:00010578       _tank_frames_reattack_blast 200ba578     m_tank.obj
 0003:000105c0       _tank_move_reattack_blast  200ba5c0     m_tank.obj
 0003:000105d0       _tank_frames_attack_post_blast 200ba5d0     m_tank.obj
 0003:00010618       _tank_move_attack_post_blast 200ba618     m_tank.obj
 0003:00010628       _tank_frames_attack_strike 200ba628     m_tank.obj
 0003:000107f0       _tank_move_attack_strike   200ba7f0     m_tank.obj
 0003:00010800       _tank_frames_attack_pre_rocket 200ba800     m_tank.obj
 0003:000108fc       _tank_move_attack_pre_rocket 200ba8fc     m_tank.obj
 0003:00010910       _tank_frames_attack_fire_rocket 200ba910     m_tank.obj
 0003:0001097c       _tank_move_attack_fire_rocket 200ba97c     m_tank.obj
 0003:00010990       _tank_frames_attack_post_rocket 200ba990     m_tank.obj
 0003:00010aa4       _tank_move_attack_post_rocket 200baaa4     m_tank.obj
 0003:00010ab8       _tank_frames_attack_chain  200baab8     m_tank.obj
 0003:00010c14       _tank_move_attack_chain    200bac14     m_tank.obj
 0003:00010c28       _tank_frames_death1        200bac28     m_tank.obj
 0003:00010da8       _tank_move_death           200bada8     m_tank.obj
 0003:00010f1c       __fltused                  200baf1c     LIBCMTD:_fpinit_.obj
 0003:00010f20       __ldused                   200baf20     LIBCMTD:_fpinit_.obj
 0003:00010f24       ___security_cookie         200baf24     LIBCMTD:gs_cookie.obj
 0003:00010f28       ___security_cookie_complement 200baf28     LIBCMTD:gs_cookie.obj
 0003:00010f70       __cfltcvt_tab              200baf70     LIBCMTD:cmiscdat.obj
 0003:00010f98       ___flsindex                200baf98     LIBCMTD:tidtable.obj
 0003:00010f9c       ___getvalueindex           200baf9c     LIBCMTD:tidtable.obj
 0003:00011114       ___nullstring              200bb114     LIBCMTD:output.obj
 0003:00011118       ___wnullstring             200bb118     LIBCMTD:output.obj
 0003:00011218       __d_inf                    200bb218     LIBCMTD:_util_.obj
 0003:00011220       __d_ind                    200bb220     LIBCMTD:_util_.obj
 0003:00011228       __d_max                    200bb228     LIBCMTD:_util_.obj
 0003:00011230       __d_min                    200bb230     LIBCMTD:_util_.obj
 0003:00011238       __d_mzero                  200bb238     LIBCMTD:_util_.obj
 0003:0001125c       __crtDbgFlag               200bb25c     LIBCMTD:dbgheap.obj
 0003:00011260       ___crtDebugFillThreshold   200bb260     LIBCMTD:dbgheap.obj
 0003:00011268       __crtBreakAlloc            200bb268     LIBCMTD:dbgheap.obj
 0003:00011288       __timezone                 200bb288     LIBCMTD:timeset.obj
 0003:0001128c       __daylight                 200bb28c     LIBCMTD:timeset.obj
 0003:00011290       __dstbias                  200bb290     LIBCMTD:timeset.obj
 0003:00011318       __tzname                   200bb318     LIBCMTD:timeset.obj
 0003:00011320       __iob                      200bb320     LIBCMTD:_file.obj
 0003:000115a0       __lookuptrailbytes         200bb5a0     LIBCMTD:read.obj
 0003:000116a0       ___initialmbcinfo          200bb6a0     LIBCMTD:mbctype.obj
 0003:000118c0       __mbctype                  200bb8c0     LIBCMTD:mbctype.obj
 0003:000119c8       __mbcasemap                200bb9c8     LIBCMTD:mbctype.obj
 0003:00011ac8       ___ptmbcinfo               200bbac8     LIBCMTD:mbctype.obj
 0003:00011bc0       ___globallocalestatus      200bbbc0     LIBCMTD:glstatus.obj
 0003:00011bc4       ___clocalestr              200bbbc4     LIBCMTD:nlsdata2.obj
 0003:00011bc8       ___lc_time_c               200bbbc8     LIBCMTD:nlsdata2.obj
 0003:00011d30       ___initiallocinfo          200bbd30     LIBCMTD:nlsdata2.obj
 0003:00011e08       ___ptlocinfo               200bbe08     LIBCMTD:nlsdata2.obj
 0003:00011e0c       ___initiallocalestructinfo 200bbe0c     LIBCMTD:nlsdata2.obj
 0003:00011e18       ___badioinfo               200bbe18     LIBCMTD:ioinit.obj
 0003:00011f90       __pfnAllocHook             200bbf90     LIBCMTD:dbghook.obj
 0003:00011fa0       __crtAssertBusy            200bbfa0     LIBCMTD:dbgrptt.obj
 0003:00011fa4       __CrtDbgMode               200bbfa4     LIBCMTD:dbgrptt.obj
 0003:00011fb0       __CrtDbgFile               200bbfb0     LIBCMTD:dbgrptt.obj
 0003:00011fbc       __matherr_flag             200bbfbc     LIBCMTD:_matherr_.obj
 0003:00011fc4       __lpdays                   200bbfc4     LIBCMTD:days.obj
 0003:00011ff8       __days                     200bbff8     LIBCMTD:days.obj
 0003:00012030       __NLG_Destination          200bc030     LIBCMTD:exsup.obj
 0003:00012070       ___lconv_static_decimal    200bc070     LIBCMTD:lconv.obj
 0003:00012074       ___lconv_static_W_decimal  200bc074     LIBCMTD:lconv.obj
 0003:00012078       ___lconv_c                 200bc078     LIBCMTD:lconv.obj
 0003:000120c8       ___lconv                   200bc0c8     LIBCMTD:lconv.obj
 0003:000120cc       __pctype                   200bc0cc     LIBCMTD:ctype.obj
 0003:000120d0       __pwctype                  200bc0d0     LIBCMTD:ctype.obj
 0003:000120d8       __pow10pos                 200bc0d8     LIBCMTD:_constpow_.obj
 0003:00012238       __pow10neg                 200bc238     LIBCMTD:_constpow_.obj
 0003:00012394       ___mb_cur_max              200bc394     LIBCMTD:nlsdata1.obj
 0003:00012398       ___decimal_point           200bc398     LIBCMTD:nlsdata1.obj
 0003:0001239c       ___decimal_point_length    200bc39c     LIBCMTD:nlsdata1.obj
 0003:000123a0       ??_R0?AVbad_exception@std@@@8 200bc3a0     LIBCMTD:frame.obj
 0003:000123c0       ??_R0?AVexception@std@@@8  200bc3c0     LIBCMTD:frame.obj
 0003:000123e0       __confh                    200bc3e0     LIBCMTD:initcon.obj
 0003:000123e4       ___abort_behavior          200bc3e4     LIBCMTD:abort.obj
 0003:000123e8       ??_R0?AVtype_info@@@8      200bc3e8     LIBCMTD:typinfo.obj
 0003:00012400       ??_R0?AVbad_cast@std@@@8   200bc400     LIBCMTD:stdexcpt.obj
 0003:0001241c       ??_R0?AVbad_typeid@std@@@8 200bc41c     LIBCMTD:stdexcpt.obj
 0003:0001243c       ??_R0?AV__non_rtti_object@std@@@8 200bc43c     LIBCMTD:stdexcpt.obj
 0003:00012afc       _trail_active              200bcafc     p_trail.obj
 0003:0001338c       _vec3_origin               200bd38c     q_shared.obj
 0003:00013398       ___fastflag                200bd398     LIBCMTD:_fpinit_.obj
 0003:000133a0       __aenvptr                  200bd3a0     LIBCMTD:dllcrt0.obj
 0003:000133a4       __wenvptr                  200bd3a4     LIBCMTD:dllcrt0.obj
 0003:000133a8       ___error_mode              200bd3a8     LIBCMTD:dllcrt0.obj
 0003:000133ac       ___app_type                200bd3ac     LIBCMTD:dllcrt0.obj
 0003:000133b0       _gpFlsAlloc                200bd3b0     LIBCMTD:tidtable.obj
 0003:000133b4       _gpFlsGetValue             200bd3b4     LIBCMTD:tidtable.obj
 0003:000133b8       _gpFlsSetValue             200bd3b8     LIBCMTD:tidtable.obj
 0003:000133bc       _gpFlsFree                 200bd3bc     LIBCMTD:tidtable.obj
 0003:000136e4       ___pInvalidArgHandler      200bd6e4     LIBCMTD:invarg.obj
 0003:00013700       ?_pfnDumpClient@@3P6AXPAXI@ZA 200bd700     LIBCMTD:dbgheap.obj
 0003:00013708       ___crtDebugCheckCount      200bd708     LIBCMTD:dbgheap.obj
 0003:000137c8       __cflush                   200bd7c8     LIBCMTD:_file.obj
 0003:000137d0       ___mbulinfo                200bd7d0     LIBCMTD:mbctype.obj
 0003:000137dc       ___mbcodepage              200bd7dc     LIBCMTD:mbctype.obj
 0003:000137e0       ___ismbcodepage            200bd7e0     LIBCMTD:mbctype.obj
 0003:000137e4       ___mblcid                  200bd7e4     LIBCMTD:mbctype.obj
 0003:000137e8       __stdbuf                   200bd7e8     LIBCMTD:_sftbuf.obj
 0003:000137f0       ___locale_changed          200bd7f0     LIBCMTD:setlocal.obj
 0003:000137f4       __umaskval                 200bd7f4     LIBCMTD:crt0dat.obj
 0003:000137f8       ___argc                    200bd7f8     LIBCMTD:crt0dat.obj
 0003:000137fc       ___argv                    200bd7fc     LIBCMTD:crt0dat.obj
 0003:00013800       ___wargv                   200bd800     LIBCMTD:crt0dat.obj
 0003:00013804       __environ                  200bd804     LIBCMTD:crt0dat.obj
 0003:00013808       ___initenv                 200bd808     LIBCMTD:crt0dat.obj
 0003:0001380c       __wenviron                 200bd80c     LIBCMTD:crt0dat.obj
 0003:00013810       ___winitenv                200bd810     LIBCMTD:crt0dat.obj
 0003:00013814       __pgmptr                   200bd814     LIBCMTD:crt0dat.obj
 0003:00013818       __wpgmptr                  200bd818     LIBCMTD:crt0dat.obj
 0003:0001381c       __exitflag                 200bd81c     LIBCMTD:crt0dat.obj
 0003:00013820       __C_Termination_Done       200bd820     LIBCMTD:crt0dat.obj
 0003:00013824       __C_Exit_Done              200bd824     LIBCMTD:crt0dat.obj
 0003:00013938       __crtheap                  200bd938     LIBCMTD:heapinit.obj
 0003:0001393c       __outputformat             200bd93c     LIBCMTD:outputformat.obj
 0003:00013ad4       __newmode                  200bdad4     LIBCMTD:_newmode.obj
 0003:00013ad8       ?_pnhHeap@@3P6AHI@ZA       200bdad8     LIBCMTD:handler.obj
 0003:00013adc       __commode                  200bdadc     LIBCMTD:ncommode.obj
 0003:00013ae0       ___lconv_static_null       200bdae0     LIBCMTD:lconv.obj
 0003:00013ae4       ___lconv_static_W_null     200bdae4     LIBCMTD:lconv.obj
 0003:00014110       ?__pInconsistency@@3P6AXXZA 200be110     LIBCMTD:hooks.obj
 0003:00014118       ___pPurecall               200be118     LIBCMTD:inithelp.obj
 0003:00014130       __fmode                    200be130     LIBCMTD:txtmode.obj
 0003:00014150       ?pArgList@UnDecorator@@0PAVReplicator@@A 200be150     LIBCMTD:undname.obj
 0003:00014154       ?pZNameList@UnDecorator@@0PAVReplicator@@A 200be154     LIBCMTD:undname.obj
 0003:00014158       ?pTemplateArgList@UnDecorator@@0PAVReplicator@@A 200be158     LIBCMTD:undname.obj
 0003:0001415c       ?gName@UnDecorator@@0PBDB  200be15c     LIBCMTD:undname.obj
 0003:00014160       ?name@UnDecorator@@0PBDB   200be160     LIBCMTD:undname.obj
 0003:00014164       ?outputString@UnDecorator@@0PADA 200be164     LIBCMTD:undname.obj
 0003:00014168       ?maxStringLength@UnDecorator@@0HA 200be168     LIBCMTD:undname.obj
 0003:0001416c       ?disableFlags@UnDecorator@@0KA 200be16c     LIBCMTD:undname.obj
 0003:00014170       ?m_pGetParameter@UnDecorator@@0P6APADJ@ZA 200be170     LIBCMTD:undname.obj
 0003:00014174       ?fExplicitTemplateParams@UnDecorator@@0_NA 200be174     LIBCMTD:undname.obj
 0003:00014175       ?fGetTemplateArgumentList@UnDecorator@@0_NA 200be175     LIBCMTD:undname.obj
 0003:000141c8       ?nodes@?1??make@DNameStatusNode@@SAPAV2@W4DNameStatus@@@Z@4PAV2@A 200be1c8     LIBCMTD:undname.obj
 0003:000141f8       ??_B?1??make@DNameStatusNode@@SAPAV1@W4DNameStatus@@@Z@51 200be1f8     LIBCMTD:undname.obj
 0003:000141fc       __LittleLong               200be1fc     <common>
 0003:00014200       _paged_total               200be200     <common>
 0003:00014204       __LittleFloat              200be204     <common>
 0003:00014220       _com_token                 200be220     <common>
 0003:000142a0       _i                         200be2a0     <common>
 0003:000142a4       __LittleShort              200be2a4     <common>
 0003:000142a8       __BigShort                 200be2a8     <common>
 0003:000142ac       __BigLong                  200be2ac     <common>
 0003:000142b0       __BigFloat                 200be2b0     <common>
 0003:000142b4       _bigendien                 200be2b4     <common>
 0003:000142c0       _corners                   200be2c0     <common>
 0003:000142d8       _bobfracsin                200be2d8     <common>
 0003:000142dc       _xyspeed                   200be2dc     <common>
 0003:000142e0       _bobmove                   200be2e0     <common>
 0003:000142e4       _bobcycle                  200be2e4     <common>
 0003:000142e8       _trail_head                200be2e8     <common>
 0003:00014300       _trail                     200be300     <common>
 0003:00014320       _pm_passent                200be320     <common>
 0003:00014324       _c_yes                     200be324     <common>
 0003:00014328       _c_no                      200be328     <common>
 0003:0001432c       _numipfilters              200be32c     <common>
 0003:00014340       _ipfilters                 200be340     <common>
 0003:00016340       _mmove_reloc               200c0340     <common>
 0003:00016350       _obstacle                  200c0350     <common>
 0003:00016360       _pushed                    200c0360     <common>
 0003:0001e360       _pushed_p                  200c8360     <common>
 0003:0001e364       _dedicated                 200c8364     <common>
 0003:0001e368       _sv_rollangle              200c8368     <common>
 0003:0001e36c       _bob_roll                  200c836c     <common>
 0003:0001e370       _run_roll                  200c8370     <common>
 0003:0001e374       _bob_pitch                 200c8374     <common>
 0003:0001e378       _fraglimit                 200c8378     <common>
 0003:0001e37c       _maxspectators             200c837c     <common>
 0003:0001e380       _snd_fry                   200c8380     <common>
 0003:0001e3a0       _game                      200c83a0     <common>
 0003:0001e9bc       _spectator_password        200c89bc     <common>
 0003:0001e9c0       _flood_persecond           200c89c0     <common>
 0003:0001e9c4       _sm_meat_index             200c89c4     <common>
 0003:0001e9c8       _bob_up                    200c89c8     <common>
 0003:0001e9cc       _flood_msgs                200c89cc     <common>
 0003:0001e9d0       _gun_y                     200c89d0     <common>
 0003:0001e9d4       _sv_cheats                 200c89d4     <common>
 0003:0001e9d8       _sv_maxvelocity            200c89d8     <common>
 0003:0001e9dc       _g_edicts                  200c89dc     <common>
 0003:0001e9e0       _needpass                  200c89e0     <common>
 0003:0001e9e4       _gun_z                     200c89e4     <common>
 0003:0001e9e8       _sv_gravity                200c89e8     <common>
 0003:0001e9ec       _sv_rollspeed              200c89ec     <common>
 0003:0001e9f0       _deathmatch                200c89f0     <common>
 0003:0001e9f4       _maxclients                200c89f4     <common>
 0003:0001e9f8       _coop                      200c89f8     <common>
 0003:0001ea00       _st                        200c8a00     <common>
 0003:0001ea44       _run_pitch                 200c8a44     <common>
 0003:0001ea48       _timelimit                 200c8a48     <common>
 0003:0001ea4c       _sv_maplist                200c8a4c     <common>
 0003:0001ea50       _dmflags                   200c8a50     <common>
 0003:0001ea54       _password                  200c8a54     <common>
 0003:0001ea58       _filterban                 200c8a58     <common>
 0003:0001ea5c       _skill                     200c8a5c     <common>
 0003:0001ea60       _meansOfDeath              200c8a60     <common>
 0003:0001ea64       _g_select_empty            200c8a64     <common>
 0003:0001ea68       _flood_waitdelay           200c8a68     <common>
 0003:0001ea80       _globals                   200c8a80     <common>
 0003:0001ead0       _maxentities               200c8ad0     <common>
 0003:0001eae0       _gi                        200c8ae0     <common>
 0003:0001eba0       _level                     200c8ba0     <common>
 0003:0001ecd0       _gun_x                     200c8cd0     <common>
 0003:0001ecd4       _enemy_infront             200c8cd4     <common>
 0003:0001ecd8       _enemy_range               200c8cd8     <common>
 0003:0001ecdc       _enemy_yaw                 200c8cdc     <common>
 0003:0001ece0       _enemy_vis                 200c8ce0     <common>
 0003:0001ece4       __pfnReportHook            200c8ce4     <common>
 0003:0001ece8       __pReportHookListW         200c8ce8     <common>
 0003:0001ecec       __pReportHookList          200c8cec     <common>
 0003:0001ecf0       __debugger_hook_dummy      200c8cf0     <common>
 0003:0001ecf4       ___env_initialized         200c8cf4     <common>
 0003:0001ecf8       ___onexitend               200c8cf8     <common>
 0003:0001ecfc       ___onexitbegin             200c8cfc     <common>
 0003:0001ed00       ___mbctype_initialized     200c8d00     <common>
 0003:0001ed04       ___dyn_tls_init_callback   200c8d04     <common>
 0003:0001ed08       ___setlc_active            200c8d08     <common>
 0003:0001ed0c       ___unguarded_readlc_active 200c8d0c     <common>
 0003:0001ed10       __nhandle                  200c8d10     <common>
 0003:0001ed20       ___pioinfo                 200c8d20     <common>
 0003:0001ee20       ___piob                    200c8e20     <common>
 0003:0001ee40       __bufin                    200c8e40     <common>
 0003:0001fe40       __nstream                  200c9e40     <common>
 0003:0001fe44       ___use_sse2_mathfcns       200c9e44     <common>
 0003:0001fe48       __pmatherr                 200c9e48     <common>
 0003:0001fe4c       ___sse2_available          200c9e4c     <common>
 0003:0001fe50       __acmdln                   200c9e50     <common>

 entry point at        0001:00045e40

 Static symbols

 0001:00005590       _CheckPowerArmor           20006590 f   g_combat.obj
 0001:000057d0       _CheckArmor                200067d0 f   g_combat.obj
 0001:0000cb00       _drop_temp_touch           2000db00 f   g_items.obj
 0001:0000cb40       _drop_make_touchable       2000db40 f   g_items.obj
 0001:0000f6a0       _light_use                 200106a0 f   g_misc.obj
 0001:00012a90       _localtime                 20013a90 f   g_misc.obj
 0001:00012ab0       _time                      20013ab0 f   g_misc.obj
 0001:00012ad0       _func_clock_reset          20013ad0 f   g_misc.obj
 0001:00012b50       _func_clock_format_countdown 20013b50 f   g_misc.obj
 0001:000136d0       _M_FliesOn                 200146d0 f   g_monster.obj
 0001:00013740       _M_FliesOff                20014740 f   g_monster.obj
 0001:000190a0       _StringToFilter            2001a0a0 f   g_svcmds.obj
 0001:0001e860       _fire_lead                 2001f860 f   g_weapon.obj
 0001:0001f2f0       _check_dodge               200202f0 f   g_weapon.obj
 0001:0001f6c0       _Grenade_Explode           200206c0 f   g_weapon.obj
 0001:0001f9c0       _Grenade_Touch             200209c0 f   g_weapon.obj
 0001:00030010       _parasite_drain_attack_ok  20031010 f   m_parasite.obj
 0001:00033820       _SP_CreateCoopSpots        20034820 f   p_client.obj
 0001:00033b30       _SP_FixCoopSpots           20034b30 f   p_client.obj
 0001:0003c5b0       _P_ProjectSource           2003d5b0 f   p_weapon.obj
 0001:000415d0       _shortsort                 200425d0 f   LIBCMTD:qsort.obj
 0001:00041640       _swap                      20042640 f   LIBCMTD:qsort.obj
 0001:00044150       _vscan_fn                  20045150 f   LIBCMTD:sscanf.obj
 0001:00045030       _cmpBYTE                   20046030 f   LIBCMTD:memcmp.obj
 0001:00045060       _cmpResult                 20046060 f   LIBCMTD:memcmp.obj
 0001:00045080       _unaligned_memcmp          20046080 f   LIBCMTD:memcmp.obj
 0001:00045790       _cmpWORD                   20046790 f   LIBCMTD:memcmp.obj
 0001:00045810       _cmpDWORD                  20046810 f   LIBCMTD:memcmp.obj
 0001:00045e70       ___DllMainCRTStartup       20046e70 f   LIBCMTD:dllcrt0.obj
 0001:000464f0       __cftoe2_l                 200474f0 f   LIBCMTD:cvt.obj
 0001:00047290       __cftof2_l                 20048290 f   LIBCMTD:cvt.obj
 0001:00047870       __shift                    20048870 f   LIBCMTD:cvt.obj
 0001:00048250       ?strtoxl@@YAKPAUlocaleinfo_struct@@PBDPAPBDHH@Z 20049250 f   LIBCMTD:strtol.obj
 0001:00048830       ?strtoxq@@YA_KPAUlocaleinfo_struct@@PBDPAPBDHH@Z 20049830 f   LIBCMTD:strtoq.obj
 0001:0004b0d0       _write_char                2004c0d0 f   LIBCMTD:output.obj
 0001:0004b180       _write_multi_char          2004c180 f   LIBCMTD:output.obj
 0001:0004b1c0       _write_string              2004c1c0 f   LIBCMTD:output.obj
 0001:0004dac0       __get_fname                2004eac0 f   LIBCMTD:_fpexcept_.obj
 0001:00051f10       _write_char                20052f10 f   LIBCMTD:outputp.obj
 0001:00051fc0       _write_multi_char          20052fc0 f   LIBCMTD:outputp.obj
 0001:00052000       _write_string              20053000 f   LIBCMTD:outputp.obj
 0001:00052180       __nh_malloc_dbg_impl       20053180 f   LIBCMTD:dbgheap.obj
 0001:00052220       __heap_alloc_dbg_impl      20053220 f   LIBCMTD:dbgheap.obj
 0001:000527f0       _realloc_help              200537f0 f   LIBCMTD:dbgheap.obj
 0001:000538b0       _CheckBytes                200548b0 f   LIBCMTD:dbgheap.obj
 0001:00054670       ?_CrtMemDumpAllObjectsSince_stat@@YAXPBU_CrtMemState@@PAUlocaleinfo_struct@@@Z 20055670 f   LIBCMTD:dbgheap.obj
 0001:00054980       __printMemBlockData        20055980 f   LIBCMTD:dbgheap.obj
 0001:00055720       __tzset_nolock             20056720 f   LIBCMTD:tzset.obj
 0001:00055d30       __isindst_nolock           20056d30 f   LIBCMTD:tzset.obj
 0001:00056090       _cvtdate                   20057090 f   LIBCMTD:tzset.obj
 0001:00057520       _ValidateLocalCookies      20058520 f   LIBCMTD:chandler4.obj
 0001:00058550       _flsall                    20059550 f   LIBCMTD:fflush.obj
 0001:0005aba0       __unwind_handler4          2005bba0 f   LIBCMTD:exsup4.obj
 0001:0005b360       ?getSystemCP@@YAHH@Z       2005c360 f   LIBCMTD:mbctype.obj
 0001:0005b7c0       ?CPtoLCID@@YAHH@Z          2005c7c0 f   LIBCMTD:mbctype.obj
 0001:0005b840       ?setSBCS@@YAXPAUthreadmbcinfostruct@@@Z 2005c840 f   LIBCMTD:mbctype.obj
 0001:0005b920       ?setSBUpLow@@YAXPAUthreadmbcinfostruct@@@Z 2005c920 f   LIBCMTD:mbctype.obj
 0001:0005ec20       ___check_float_string      2005fc20 f   LIBCMTD:input.obj
 0001:0005ed40       __hextodec                 2005fd40 f   LIBCMTD:input.obj
 0001:0005ed80       __inc                      2005fd80 f   LIBCMTD:input.obj
 0001:0005ede0       __un_inc                   2005fde0 f   LIBCMTD:input.obj
 0001:0005ee00       __whiteout                 2005fe00 f   LIBCMTD:input.obj
 0001:00060980       ___check_float_string      20061980 f   LIBCMTD:inputs.obj
 0001:00060a80       __hextodec                 20061a80 f   LIBCMTD:inputs.obj
 0001:00060ac0       __inc                      20061ac0 f   LIBCMTD:inputs.obj
 0001:00060b20       __un_inc                   20061b20 f   LIBCMTD:inputs.obj
 0001:00060b40       __whiteout                 20061b40 f   LIBCMTD:inputs.obj
 0001:00062650       __copytlocinfo_nolock      20063650 f   LIBCMTD:setlocal.obj
 0001:00062a50       _sync_legacy_variables_lk  20063a50 f   LIBCMTD:setlocal.obj
 0001:00062a90       __setlocale_nolock         20063a90 f   LIBCMTD:setlocal.obj
 0001:00062e80       __setlocale_set_cat        20063e80 f   LIBCMTD:setlocal.obj
 0001:000633b0       __setlocale_get_all        200643b0 f   LIBCMTD:setlocal.obj
 0001:00063f20       _doexit                    20064f20 f   LIBCMTD:crt0dat.obj
 0001:00064210       __initterm                 20065210 f   LIBCMTD:crt0dat.obj
 0001:00064730       _parse_cmdline             20065730 f   LIBCMTD:stdargv.obj
 0001:00064fa0       _xcptlookup                20065fa0 f   LIBCMTD:winxfltr.obj
 0001:00066f90       ?CatchGuardHandler@@YA?AW4_EXCEPTION_DISPOSITION@@PAUEHExceptionRecord@@PAUCatchGuardRN@@PAX2@Z 20067f90 f   LIBCMTD:_trnsctrl_.obj
 0001:000670d0       ?TranslatorGuardHandler@@YA?AW4_EXCEPTION_DISPOSITION@@PAUEHExceptionRecord@@PAUTranslatorGuardRN@@PAX2@Z 200680d0 f   LIBCMTD:_trnsctrl_.obj
 0001:00068b40       _ctrlevent_capture@4       20069b40 f   LIBCMTD:winsig.obj
 0001:00068f40       _siglookup                 20069f40 f   LIBCMTD:winsig.obj
 0001:0006bcf0       _write_char                2006ccf0 f   LIBCMTD:outputs.obj
 0001:0006bda0       _write_multi_char          2006cda0 f   LIBCMTD:outputs.obj
 0001:0006bde0       _write_string              2006cde0 f   LIBCMTD:outputs.obj
 0001:0006cb00       __is_LFH_enabled           2006db00 f   LIBCMTD:expand.obj
 0001:0006d3d0       __getenv_s_helper          2006e3d0 f   LIBCMTD:getenv.obj
 0001:0006d640       __dupenv_s_helper          2006e640 f   LIBCMTD:getenv.obj
 0001:0006f490       __tsopen_nolock            20070490 f   LIBCMTD:open.obj
 0001:00070d30       __unwind_handler           20071d30 f   LIBCMTD:exsup.obj
 0001:00071600       ?__crtGetStringTypeA_stat@@YAHPAUlocaleinfo_struct@@KPBDHPAGHHH@Z 20072600 f   LIBCMTD:a_str.obj
 0001:00071810       ?__crtLCMapStringA_stat@@YAHPAUlocaleinfo_struct@@KKPBDHPADHHH@Z 20072810 f   LIBCMTD:a_map.obj
 0001:00071aa0       ?strncnt@@YAHPBDH@Z        20072aa0 f   LIBCMTD:a_map.obj
 0001:00071be0       __get_lc_time              20072be0 f   LIBCMTD:inittime.obj
 0001:000731c0       _fix_grouping              200741c0 f   LIBCMTD:initnum.obj
 0001:00073860       _fix_grouping              20074860 f   LIBCMTD:initmon.obj
 0001:00074790       _TranslateName             20075790 f   LIBCMTD:getqloc.obj
 0001:00074820       _GetLcidFromLangCountry    20075820 f   LIBCMTD:getqloc.obj
 0001:000748e0       _LangCountryEnumProc@4     200758e0 f   LIBCMTD:getqloc.obj
 0001:00074d20       _GetLcidFromLanguage       20075d20 f   LIBCMTD:getqloc.obj
 0001:00074da0       _LanguageEnumProc@4        20075da0 f   LIBCMTD:getqloc.obj
 0001:00074f40       _GetLcidFromCountry        20075f40 f   LIBCMTD:getqloc.obj
 0001:00074f90       _CountryEnumProc@4         20075f90 f   LIBCMTD:getqloc.obj
 0001:00075090       _GetLcidFromDefault        20076090 f   LIBCMTD:getqloc.obj
 0001:000750d0       _ProcessCodePage           200760d0 f   LIBCMTD:getqloc.obj
 0001:00075180       _TestDefaultCountry        20076180 f   LIBCMTD:getqloc.obj
 0001:000751d0       _TestDefaultLanguage       200761d0 f   LIBCMTD:getqloc.obj
 0001:00075250       _LcidFromHexString         20076250 f   LIBCMTD:getqloc.obj
 0001:000752d0       _GetPrimaryLen             200762d0 f   LIBCMTD:getqloc.obj
 0001:000753c0       __onexit_nolock            200763c0 f   LIBCMTD:onexit.obj
 0001:00076300       ?x_ismbbtype_l@@YAHPAUlocaleinfo_struct@@IHH@Z 20077300 f   LIBCMTD:ismbbyte.obj
 0001:00076720       __abstract_cw              20077720 f   LIBCMTD:_ieee87_.obj
 0001:00076870       __hw_cw                    20077870 f   LIBCMTD:_ieee87_.obj
 0001:000769d0       __abstract_sw              200779d0 f   LIBCMTD:_ieee87_.obj
 0001:00076a60       ___statusfp_sse2           20077a60 f   LIBCMTD:_ieee87_.obj
 0001:00076a80       ___clearfp_sse2            20077a80 f   LIBCMTD:_ieee87_.obj
 0001:00076ab0       ___control87_sse2          20077ab0 f   LIBCMTD:_ieee87_.obj
 0001:00076b30       ___abstract_cw_sse2        20077b30 f   LIBCMTD:_ieee87_.obj
 0001:00076c80       ___hw_cw_sse2              20077c80 f   LIBCMTD:_ieee87_.obj
 0001:00076dd0       ___abstract_sw_sse2        20077dd0 f   LIBCMTD:_ieee87_.obj
 0001:00076e60       ___fpreset_sse2            20077e60 f   LIBCMTD:_ieee87_.obj
 0001:00077590       ?FindHandler@@YAXPAUEHExceptionRecord@@PAUEHRegistrationNode@@PAU_CONTEXT@@PAXPBU_s_FuncInfo@@EH1@Z 20078590 f   LIBCMTD:frame.obj
 0001:00077ae0       ?FindHandlerForForeignException@@YAXPAUEHExceptionRecord@@PAUEHRegistrationNode@@PAU_CONTEXT@@PAXPBU_s_FuncInfo@@HH1@Z 20078ae0 f   LIBCMTD:frame.obj
 0001:00077f20       ?CatchIt@@YAXPAUEHExceptionRecord@@PAUEHRegistrationNode@@PAU_CONTEXT@@PAXPBU_s_FuncInfo@@PBU_s_HandlerType@@PBU_s_CatchableType@@PBU_s_TryBlockMapEntry@@H1E@Z 20078f20 f   LIBCMTD:frame.obj
 0001:00077fe0       ?CallCatchBlock@@YAPAXPAUEHExceptionRecord@@PAUEHRegistrationNode@@PAU_CONTEXT@@PBU_s_FuncInfo@@PAXHK@Z 20078fe0 f   LIBCMTD:frame.obj
 0001:00078270       ?ExFilterRethrow@@YAHPAU_EXCEPTION_POINTERS@@@Z 20079270 f   LIBCMTD:frame.obj
 0001:00078ee0       ?IsInExceptionSpec@@YAEPAUEHExceptionRecord@@PBU_s_ESTypeList@@@Z 20079ee0 f   LIBCMTD:frame.obj
 0001:00078fa0       ?CallUnexpected@@YAXPBU_s_ESTypeList@@@Z 20079fa0 f   LIBCMTD:frame.obj
 0001:00078fee       __catch$?CallUnexpected@@YAXPBU_s_ESTypeList@@@Z$0 20079fee f   LIBCMTD:frame.obj
 0001:00079030       ?Is_bad_exception_allowed@@YAEPBU_s_ESTypeList@@@Z 2007a030 f   LIBCMTD:frame.obj
 0001:00079980       _xtoa_s@20                 2007a980 f   LIBCMTD:xtoas.obj
 0001:00079da0       @x64toa_s@24               2007ada0 f   LIBCMTD:xtoas.obj
 0001:0007a650       ?wcsncnt@@YAIPB_WI@Z       2007b650 f   LIBCMTD:wcstombs.obj
 0001:0007b8c0       _xtow_s@20                 2007c8c0 f   LIBCMTD:xtows.obj
 0001:0007bcf0       @x64tow_s@24               2007ccf0 f   LIBCMTD:xtows.obj
 0001:0007d190       _write_char                2007e190 f   LIBCMTD:woutput.obj
 0001:0007d1f0       _write_multi_char          2007e1f0 f   LIBCMTD:woutput.obj
 0001:0007d230       _write_string              2007e230 f   LIBCMTD:woutput.obj
 0001:0007f770       ?__crtGetLocaleInfoA_stat@@YAHPAUlocaleinfo_struct@@KKPADH@Z 20080770 f   LIBCMTD:a_loc.obj
 0001:00081280       _write_char                20082280 f   LIBCMTD:woutputs.obj
 0001:000812e0       _write_multi_char          200822e0 f   LIBCMTD:woutputs.obj
 0001:00081320       _write_string              20082320 f   LIBCMTD:woutputs.obj
 0001:00084c80       _write_char                20085c80 f   LIBCMTD:woutputp.obj
 0001:00084ce0       _write_multi_char          20085ce0 f   LIBCMTD:woutputp.obj
 0001:00084d20       _write_string              20085d20 f   LIBCMTD:woutputp.obj
 0001:00085240       ?__crtCompareStringA_stat@@YAHPAUlocaleinfo_struct@@KKPBDH1HH@Z 20086240 f   LIBCMTD:a_cmp.obj
 0001:000855d0       ?strncnt@@YAHPBDH@Z        200865d0 f   LIBCMTD:a_cmp.obj
 0001:00085d90       _findenv                   20086d90 f   LIBCMTD:setenv.obj
 0001:00085e10       _copy_environ              20086e10 f   LIBCMTD:setenv.obj
 0001:00086650       ?wcstoxl@@YAKPB_WPAPB_WHH@Z 20087650 f   LIBCMTD:wcstol.obj
 0001:00090630       ?und_strlen@@YAIPBD@Z      20091630 f   LIBCMTD:undname.obj
 0001:00090670       ?und_memcpy@@YAXPADPBDI@Z  20091670 f   LIBCMTD:undname.obj
 0001:000906b0       ?und_strncmp@@YAIPBD0I@Z   200916b0 f   LIBCMTD:undname.obj
 0001:00090d90       __unwindfunclet$?strtoxl@@YAKPAUlocaleinfo_struct@@PBDPAPBDHH@Z$0 20091d90 f   LIBCMTD:strtol.obj
 0001:00090d98       __ehhandler$?strtoxl@@YAKPAUlocaleinfo_struct@@PBDPAPBDHH@Z 20091d98 f   LIBCMTD:strtol.obj
 0001:00090dc0       __unwindfunclet$?strtoxq@@YA_KPAUlocaleinfo_struct@@PBDPAPBDHH@Z$0 20091dc0 f   LIBCMTD:strtoq.obj
 0001:00090dc8       __ehhandler$?strtoxq@@YA_KPAUlocaleinfo_struct@@PBDPAPBDHH@Z 20091dc8 f   LIBCMTD:strtoq.obj
 0001:00090df0       __unwindfunclet$?getSystemCP@@YAHH@Z$0 20091df0 f   LIBCMTD:mbctype.obj
 0001:00090df8       __ehhandler$?getSystemCP@@YAHH@Z 20091df8 f   LIBCMTD:mbctype.obj
 0001:00090e20       __unwindfunclet$?x_ismbbtype_l@@YAHPAUlocaleinfo_struct@@IHH@Z$0 20091e20 f   LIBCMTD:ismbbyte.obj
 0001:00090e28       __ehhandler$?x_ismbbtype_l@@YAHPAUlocaleinfo_struct@@IHH@Z 20091e28 f   LIBCMTD:ismbbyte.obj
 0001:00090e50       __ehhandler$?CallUnexpected@@YAXPBU_s_ESTypeList@@@Z 20091e50 f   LIBCMTD:frame.obj
 0001:00090e70       __unwindfunclet$?make@DNameStatusNode@@SAPAV1@W4DNameStatus@@@Z$0 20091e70 f   LIBCMTD:undname.obj
 0001:00090e7e       __ehhandler$?make@DNameStatusNode@@SAPAV1@W4DNameStatus@@@Z 20091e7e f   LIBCMTD:undname.obj
